
addiw.exe:     file format elf64-littleriscv


Disassembly of section .text:

00000000000100e8 <exit>:
   100e8:	1141                	add	sp,sp,-16
   100ea:	4581                	li	a1,0
   100ec:	e022                	sd	s0,0(sp)
   100ee:	e406                	sd	ra,8(sp)
   100f0:	842a                	mv	s0,a0
   100f2:	2f0000ef          	jal	103e2 <__call_exitprocs>
   100f6:	f481b503          	ld	a0,-184(gp) # 11ce8 <_global_impure_ptr>
   100fa:	6d3c                	ld	a5,88(a0)
   100fc:	c391                	beqz	a5,10100 <exit+0x18>
   100fe:	9782                	jalr	a5
   10100:	8522                	mv	a0,s0
   10102:	456000ef          	jal	10558 <_exit>

0000000000010106 <register_fini>:
   10106:	00000793          	li	a5,0
   1010a:	c789                	beqz	a5,10114 <register_fini+0xe>
   1010c:	6541                	lui	a0,0x10
   1010e:	4a450513          	add	a0,a0,1188 # 104a4 <__libc_fini_array>
   10112:	a6d9                	j	104d8 <atexit>
   10114:	8082                	ret

0000000000010116 <_start>:
   10116:	00002197          	auipc	gp,0x2
   1011a:	c8a18193          	add	gp,gp,-886 # 11da0 <__global_pointer$>
   1011e:	f6018513          	add	a0,gp,-160 # 11d00 <completed.1>
   10122:	f9818613          	add	a2,gp,-104 # 11d38 <__BSS_END__>
   10126:	8e09                	sub	a2,a2,a0
   10128:	4581                	li	a1,0
   1012a:	20e000ef          	jal	10338 <memset>
   1012e:	00000517          	auipc	a0,0x0
   10132:	3aa50513          	add	a0,a0,938 # 104d8 <atexit>
   10136:	c519                	beqz	a0,10144 <_start+0x2e>
   10138:	00000517          	auipc	a0,0x0
   1013c:	36c50513          	add	a0,a0,876 # 104a4 <__libc_fini_array>
   10140:	398000ef          	jal	104d8 <atexit>
   10144:	18a000ef          	jal	102ce <__libc_init_array>
   10148:	4502                	lw	a0,0(sp)
   1014a:	002c                	add	a1,sp,8
   1014c:	4601                	li	a2,0
   1014e:	04e000ef          	jal	1019c <main>
   10152:	bf59                	j	100e8 <exit>

0000000000010154 <__do_global_dtors_aux>:
   10154:	1141                	add	sp,sp,-16
   10156:	e022                	sd	s0,0(sp)
   10158:	f601c783          	lbu	a5,-160(gp) # 11d00 <completed.1>
   1015c:	e406                	sd	ra,8(sp)
   1015e:	ef91                	bnez	a5,1017a <__do_global_dtors_aux+0x26>
   10160:	00000793          	li	a5,0
   10164:	cb81                	beqz	a5,10174 <__do_global_dtors_aux+0x20>
   10166:	6545                	lui	a0,0x11
   10168:	58050513          	add	a0,a0,1408 # 11580 <__EH_FRAME_BEGIN__>
   1016c:	00000097          	auipc	ra,0x0
   10170:	000000e7          	jalr	zero # 0 <exit-0x100e8>
   10174:	4785                	li	a5,1
   10176:	f6f18023          	sb	a5,-160(gp) # 11d00 <completed.1>
   1017a:	60a2                	ld	ra,8(sp)
   1017c:	6402                	ld	s0,0(sp)
   1017e:	0141                	add	sp,sp,16
   10180:	8082                	ret

0000000000010182 <frame_dummy>:
   10182:	00000793          	li	a5,0
   10186:	cb91                	beqz	a5,1019a <frame_dummy+0x18>
   10188:	6545                	lui	a0,0x11
   1018a:	f6818593          	add	a1,gp,-152 # 11d08 <object.0>
   1018e:	58050513          	add	a0,a0,1408 # 11580 <__EH_FRAME_BEGIN__>
   10192:	00000317          	auipc	t1,0x0
   10196:	00000067          	jr	zero # 0 <exit-0x100e8>
   1019a:	8082                	ret

000000000001019c <main>:
   1019c:	1101                	add	sp,sp,-32
   1019e:	ec22                	sd	s0,24(sp)
   101a0:	1000                	add	s0,sp,32
   101a2:	87aa                	mv	a5,a0
   101a4:	feb43023          	sd	a1,-32(s0)
   101a8:	fef42623          	sw	a5,-20(s0)

00000000000101ac <test_2>:
   101ac:	4189                	li	gp,2
   101ae:	4081                	li	ra,0
   101b0:	0000871b          	sext.w	a4,ra
   101b4:	4381                	li	t2,0
   101b6:	10771463          	bne	a4,t2,102be <fail>

00000000000101ba <test_3>:
   101ba:	418d                	li	gp,3
   101bc:	4085                	li	ra,1
   101be:	0010871b          	addw	a4,ra,1 # 1016d <__do_global_dtors_aux+0x19>
   101c2:	4389                	li	t2,2
   101c4:	0e771d63          	bne	a4,t2,102be <fail>

00000000000101c8 <test_4>:
   101c8:	4191                	li	gp,4
   101ca:	408d                	li	ra,3
   101cc:	0070871b          	addw	a4,ra,7
   101d0:	43a9                	li	t2,10
   101d2:	0e771663          	bne	a4,t2,102be <fail>

00000000000101d6 <test_5>:
   101d6:	4195                	li	gp,5
   101d8:	4081                	li	ra,0
   101da:	8000871b          	addw	a4,ra,-2048
   101de:	80000393          	li	t2,-2048
   101e2:	0c771e63          	bne	a4,t2,102be <fail>

00000000000101e6 <test_6>:
   101e6:	4199                	li	gp,6
   101e8:	800000b7          	lui	ra,0x80000
   101ec:	0000871b          	sext.w	a4,ra
   101f0:	800003b7          	lui	t2,0x80000
   101f4:	0c771563          	bne	a4,t2,102be <fail>

00000000000101f8 <test_7>:
   101f8:	419d                	li	gp,7
   101fa:	800000b7          	lui	ra,0x80000
   101fe:	8000871b          	addw	a4,ra,-2048 # 7ffff800 <__global_pointer$+0x7ffeda60>
   10202:	800003b7          	lui	t2,0x80000
   10206:	8003839b          	addw	t2,t2,-2048 # 7ffff800 <__global_pointer$+0x7ffeda60>
   1020a:	0a771a63          	bne	a4,t2,102be <fail>

000000000001020e <test_8>:
   1020e:	41a1                	li	gp,8
   10210:	4081                	li	ra,0
   10212:	7ff0871b          	addw	a4,ra,2047
   10216:	7ff00393          	li	t2,2047
   1021a:	0a771263          	bne	a4,t2,102be <fail>

000000000001021e <test_9>:
   1021e:	41a5                	li	gp,9
   10220:	800000b7          	lui	ra,0x80000
   10224:	30fd                	addw	ra,ra,-1 # 7fffffff <__global_pointer$+0x7ffee25f>
   10226:	0000871b          	sext.w	a4,ra
   1022a:	800003b7          	lui	t2,0x80000
   1022e:	33fd                	addw	t2,t2,-1 # 7fffffff <__global_pointer$+0x7ffee25f>
   10230:	08771763          	bne	a4,t2,102be <fail>

0000000000010234 <test_10>:
   10234:	41a9                	li	gp,10
   10236:	800000b7          	lui	ra,0x80000
   1023a:	30fd                	addw	ra,ra,-1 # 7fffffff <__global_pointer$+0x7ffee25f>
   1023c:	7ff0871b          	addw	a4,ra,2047
   10240:	800003b7          	lui	t2,0x80000
   10244:	7fe3839b          	addw	t2,t2,2046 # ffffffff800007fe <__global_pointer$+0xffffffff7ffeea5e>
   10248:	06771b63          	bne	a4,t2,102be <fail>

000000000001024c <test_11>:
   1024c:	41ad                	li	gp,11
   1024e:	800000b7          	lui	ra,0x80000
   10252:	7ff0871b          	addw	a4,ra,2047 # ffffffff800007ff <__global_pointer$+0xffffffff7ffeea5f>
   10256:	800003b7          	lui	t2,0x80000
   1025a:	7ff3839b          	addw	t2,t2,2047 # ffffffff800007ff <__global_pointer$+0xffffffff7ffeea5f>
   1025e:	06771063          	bne	a4,t2,102be <fail>

0000000000010262 <test_12>:
   10262:	41b1                	li	gp,12
   10264:	800000b7          	lui	ra,0x80000
   10268:	30fd                	addw	ra,ra,-1 # 7fffffff <__global_pointer$+0x7ffee25f>
   1026a:	8000871b          	addw	a4,ra,-2048
   1026e:	7ffff3b7          	lui	t2,0x7ffff
   10272:	7ff3839b          	addw	t2,t2,2047 # 7ffff7ff <__global_pointer$+0x7ffeda5f>
   10276:	04771463          	bne	a4,t2,102be <fail>

000000000001027a <test_13>:
   1027a:	41b5                	li	gp,13
   1027c:	4081                	li	ra,0
   1027e:	fff0871b          	addw	a4,ra,-1
   10282:	53fd                	li	t2,-1
   10284:	02771d63          	bne	a4,t2,102be <fail>

0000000000010288 <test_14>:
   10288:	41b9                	li	gp,14
   1028a:	50fd                	li	ra,-1
   1028c:	0010871b          	addw	a4,ra,1
   10290:	4381                	li	t2,0
   10292:	02771663          	bne	a4,t2,102be <fail>

0000000000010296 <test_15>:
   10296:	41bd                	li	gp,15
   10298:	50fd                	li	ra,-1
   1029a:	fff0871b          	addw	a4,ra,-1
   1029e:	53f9                	li	t2,-2
   102a0:	00771f63          	bne	a4,t2,102be <fail>

00000000000102a4 <test_16>:
   102a4:	41c1                	li	gp,16
   102a6:	800000b7          	lui	ra,0x80000
   102aa:	30fd                	addw	ra,ra,-1 # 7fffffff <__global_pointer$+0x7ffee25f>
   102ac:	0010871b          	addw	a4,ra,1
   102b0:	800003b7          	lui	t2,0x80000
   102b4:	00771563          	bne	a4,t2,102be <fail>
   102b8:	00301263          	bne	zero,gp,102bc <pass>

00000000000102bc <pass>:
   102bc:	a019                	j	102c2 <continue>

00000000000102be <fail>:
   102be:	00000000          	.word	0x00000000

00000000000102c2 <continue>:
   102c2:	4081                	li	ra,0
   102c4:	4781                	li	a5,0
   102c6:	853e                	mv	a0,a5
   102c8:	6462                	ld	s0,24(sp)
   102ca:	6105                	add	sp,sp,32
   102cc:	8082                	ret

00000000000102ce <__libc_init_array>:
   102ce:	1101                	add	sp,sp,-32
   102d0:	e822                	sd	s0,16(sp)
   102d2:	67c5                	lui	a5,0x11
   102d4:	6445                	lui	s0,0x11
   102d6:	e04a                	sd	s2,0(sp)
   102d8:	58478793          	add	a5,a5,1412 # 11584 <__preinit_array_end>
   102dc:	58440713          	add	a4,s0,1412 # 11584 <__preinit_array_end>
   102e0:	ec06                	sd	ra,24(sp)
   102e2:	e426                	sd	s1,8(sp)
   102e4:	40e78933          	sub	s2,a5,a4
   102e8:	00e78d63          	beq	a5,a4,10302 <__libc_init_array+0x34>
   102ec:	40395913          	sra	s2,s2,0x3
   102f0:	58440413          	add	s0,s0,1412
   102f4:	4481                	li	s1,0
   102f6:	601c                	ld	a5,0(s0)
   102f8:	0485                	add	s1,s1,1
   102fa:	0421                	add	s0,s0,8
   102fc:	9782                	jalr	a5
   102fe:	ff24ece3          	bltu	s1,s2,102f6 <__libc_init_array+0x28>
   10302:	6445                	lui	s0,0x11
   10304:	67c5                	lui	a5,0x11
   10306:	59878793          	add	a5,a5,1432 # 11598 <__do_global_dtors_aux_fini_array_entry>
   1030a:	58840713          	add	a4,s0,1416 # 11588 <__init_array_start>
   1030e:	40e78933          	sub	s2,a5,a4
   10312:	40395913          	sra	s2,s2,0x3
   10316:	00e78b63          	beq	a5,a4,1032c <__libc_init_array+0x5e>
   1031a:	58840413          	add	s0,s0,1416
   1031e:	4481                	li	s1,0
   10320:	601c                	ld	a5,0(s0)
   10322:	0485                	add	s1,s1,1
   10324:	0421                	add	s0,s0,8
   10326:	9782                	jalr	a5
   10328:	ff24ece3          	bltu	s1,s2,10320 <__libc_init_array+0x52>
   1032c:	60e2                	ld	ra,24(sp)
   1032e:	6442                	ld	s0,16(sp)
   10330:	64a2                	ld	s1,8(sp)
   10332:	6902                	ld	s2,0(sp)
   10334:	6105                	add	sp,sp,32
   10336:	8082                	ret

0000000000010338 <memset>:
   10338:	433d                	li	t1,15
   1033a:	872a                	mv	a4,a0
   1033c:	02c37163          	bgeu	t1,a2,1035e <memset+0x26>
   10340:	00f77793          	and	a5,a4,15
   10344:	e3c1                	bnez	a5,103c4 <memset+0x8c>
   10346:	e1bd                	bnez	a1,103ac <memset+0x74>
   10348:	ff067693          	and	a3,a2,-16
   1034c:	8a3d                	and	a2,a2,15
   1034e:	96ba                	add	a3,a3,a4
   10350:	e30c                	sd	a1,0(a4)
   10352:	e70c                	sd	a1,8(a4)
   10354:	0741                	add	a4,a4,16
   10356:	fed76de3          	bltu	a4,a3,10350 <memset+0x18>
   1035a:	e211                	bnez	a2,1035e <memset+0x26>
   1035c:	8082                	ret
   1035e:	40c306b3          	sub	a3,t1,a2
   10362:	068a                	sll	a3,a3,0x2
   10364:	00000297          	auipc	t0,0x0
   10368:	9696                	add	a3,a3,t0
   1036a:	00a68067          	jr	10(a3)
   1036e:	00b70723          	sb	a1,14(a4)
   10372:	00b706a3          	sb	a1,13(a4)
   10376:	00b70623          	sb	a1,12(a4)
   1037a:	00b705a3          	sb	a1,11(a4)
   1037e:	00b70523          	sb	a1,10(a4)
   10382:	00b704a3          	sb	a1,9(a4)
   10386:	00b70423          	sb	a1,8(a4)
   1038a:	00b703a3          	sb	a1,7(a4)
   1038e:	00b70323          	sb	a1,6(a4)
   10392:	00b702a3          	sb	a1,5(a4)
   10396:	00b70223          	sb	a1,4(a4)
   1039a:	00b701a3          	sb	a1,3(a4)
   1039e:	00b70123          	sb	a1,2(a4)
   103a2:	00b700a3          	sb	a1,1(a4)
   103a6:	00b70023          	sb	a1,0(a4)
   103aa:	8082                	ret
   103ac:	0ff5f593          	zext.b	a1,a1
   103b0:	00859693          	sll	a3,a1,0x8
   103b4:	8dd5                	or	a1,a1,a3
   103b6:	01059693          	sll	a3,a1,0x10
   103ba:	8dd5                	or	a1,a1,a3
   103bc:	02059693          	sll	a3,a1,0x20
   103c0:	8dd5                	or	a1,a1,a3
   103c2:	b759                	j	10348 <memset+0x10>
   103c4:	00279693          	sll	a3,a5,0x2
   103c8:	00000297          	auipc	t0,0x0
   103cc:	9696                	add	a3,a3,t0
   103ce:	8286                	mv	t0,ra
   103d0:	fa2680e7          	jalr	-94(a3)
   103d4:	8096                	mv	ra,t0
   103d6:	17c1                	add	a5,a5,-16
   103d8:	8f1d                	sub	a4,a4,a5
   103da:	963e                	add	a2,a2,a5
   103dc:	f8c371e3          	bgeu	t1,a2,1035e <memset+0x26>
   103e0:	b79d                	j	10346 <memset+0xe>

00000000000103e2 <__call_exitprocs>:
   103e2:	715d                	add	sp,sp,-80
   103e4:	f052                	sd	s4,32(sp)
   103e6:	f481ba03          	ld	s4,-184(gp) # 11ce8 <_global_impure_ptr>
   103ea:	f84a                	sd	s2,48(sp)
   103ec:	e486                	sd	ra,72(sp)
   103ee:	1f8a3903          	ld	s2,504(s4)
   103f2:	e0a2                	sd	s0,64(sp)
   103f4:	fc26                	sd	s1,56(sp)
   103f6:	f44e                	sd	s3,40(sp)
   103f8:	ec56                	sd	s5,24(sp)
   103fa:	e85a                	sd	s6,16(sp)
   103fc:	e45e                	sd	s7,8(sp)
   103fe:	e062                	sd	s8,0(sp)
   10400:	02090863          	beqz	s2,10430 <__call_exitprocs+0x4e>
   10404:	8b2a                	mv	s6,a0
   10406:	8bae                	mv	s7,a1
   10408:	4a85                	li	s5,1
   1040a:	59fd                	li	s3,-1
   1040c:	00892483          	lw	s1,8(s2)
   10410:	fff4841b          	addw	s0,s1,-1
   10414:	00044e63          	bltz	s0,10430 <__call_exitprocs+0x4e>
   10418:	048e                	sll	s1,s1,0x3
   1041a:	94ca                	add	s1,s1,s2
   1041c:	020b8663          	beqz	s7,10448 <__call_exitprocs+0x66>
   10420:	2084b783          	ld	a5,520(s1)
   10424:	03778263          	beq	a5,s7,10448 <__call_exitprocs+0x66>
   10428:	347d                	addw	s0,s0,-1
   1042a:	14e1                	add	s1,s1,-8
   1042c:	ff3418e3          	bne	s0,s3,1041c <__call_exitprocs+0x3a>
   10430:	60a6                	ld	ra,72(sp)
   10432:	6406                	ld	s0,64(sp)
   10434:	74e2                	ld	s1,56(sp)
   10436:	7942                	ld	s2,48(sp)
   10438:	79a2                	ld	s3,40(sp)
   1043a:	7a02                	ld	s4,32(sp)
   1043c:	6ae2                	ld	s5,24(sp)
   1043e:	6b42                	ld	s6,16(sp)
   10440:	6ba2                	ld	s7,8(sp)
   10442:	6c02                	ld	s8,0(sp)
   10444:	6161                	add	sp,sp,80
   10446:	8082                	ret
   10448:	00892783          	lw	a5,8(s2)
   1044c:	6498                	ld	a4,8(s1)
   1044e:	37fd                	addw	a5,a5,-1
   10450:	04878463          	beq	a5,s0,10498 <__call_exitprocs+0xb6>
   10454:	0004b423          	sd	zero,8(s1)
   10458:	db61                	beqz	a4,10428 <__call_exitprocs+0x46>
   1045a:	31092783          	lw	a5,784(s2)
   1045e:	008a96bb          	sllw	a3,s5,s0
   10462:	00892c03          	lw	s8,8(s2)
   10466:	8ff5                	and	a5,a5,a3
   10468:	2781                	sext.w	a5,a5
   1046a:	ef89                	bnez	a5,10484 <__call_exitprocs+0xa2>
   1046c:	9702                	jalr	a4
   1046e:	00892703          	lw	a4,8(s2)
   10472:	1f8a3783          	ld	a5,504(s4)
   10476:	01871463          	bne	a4,s8,1047e <__call_exitprocs+0x9c>
   1047a:	fb2787e3          	beq	a5,s2,10428 <__call_exitprocs+0x46>
   1047e:	dbcd                	beqz	a5,10430 <__call_exitprocs+0x4e>
   10480:	893e                	mv	s2,a5
   10482:	b769                	j	1040c <__call_exitprocs+0x2a>
   10484:	31492783          	lw	a5,788(s2)
   10488:	1084b583          	ld	a1,264(s1)
   1048c:	8ff5                	and	a5,a5,a3
   1048e:	2781                	sext.w	a5,a5
   10490:	e799                	bnez	a5,1049e <__call_exitprocs+0xbc>
   10492:	855a                	mv	a0,s6
   10494:	9702                	jalr	a4
   10496:	bfe1                	j	1046e <__call_exitprocs+0x8c>
   10498:	00892423          	sw	s0,8(s2)
   1049c:	bf75                	j	10458 <__call_exitprocs+0x76>
   1049e:	852e                	mv	a0,a1
   104a0:	9702                	jalr	a4
   104a2:	b7f1                	j	1046e <__call_exitprocs+0x8c>

00000000000104a4 <__libc_fini_array>:
   104a4:	1101                	add	sp,sp,-32
   104a6:	e822                	sd	s0,16(sp)
   104a8:	67c5                	lui	a5,0x11
   104aa:	6445                	lui	s0,0x11
   104ac:	59878793          	add	a5,a5,1432 # 11598 <__do_global_dtors_aux_fini_array_entry>
   104b0:	5a040413          	add	s0,s0,1440 # 115a0 <impure_data>
   104b4:	8c1d                	sub	s0,s0,a5
   104b6:	e426                	sd	s1,8(sp)
   104b8:	ec06                	sd	ra,24(sp)
   104ba:	40345493          	sra	s1,s0,0x3
   104be:	c881                	beqz	s1,104ce <__libc_fini_array+0x2a>
   104c0:	1461                	add	s0,s0,-8
   104c2:	943e                	add	s0,s0,a5
   104c4:	601c                	ld	a5,0(s0)
   104c6:	14fd                	add	s1,s1,-1
   104c8:	1461                	add	s0,s0,-8
   104ca:	9782                	jalr	a5
   104cc:	fce5                	bnez	s1,104c4 <__libc_fini_array+0x20>
   104ce:	60e2                	ld	ra,24(sp)
   104d0:	6442                	ld	s0,16(sp)
   104d2:	64a2                	ld	s1,8(sp)
   104d4:	6105                	add	sp,sp,32
   104d6:	8082                	ret

00000000000104d8 <atexit>:
   104d8:	85aa                	mv	a1,a0
   104da:	4681                	li	a3,0
   104dc:	4601                	li	a2,0
   104de:	4501                	li	a0,0
   104e0:	a009                	j	104e2 <__register_exitproc>

00000000000104e2 <__register_exitproc>:
   104e2:	f481b703          	ld	a4,-184(gp) # 11ce8 <_global_impure_ptr>
   104e6:	1f873783          	ld	a5,504(a4)
   104ea:	c3b1                	beqz	a5,1052e <__register_exitproc+0x4c>
   104ec:	4798                	lw	a4,8(a5)
   104ee:	487d                	li	a6,31
   104f0:	06e84263          	blt	a6,a4,10554 <__register_exitproc+0x72>
   104f4:	c505                	beqz	a0,1051c <__register_exitproc+0x3a>
   104f6:	00371813          	sll	a6,a4,0x3
   104fa:	983e                	add	a6,a6,a5
   104fc:	10c83823          	sd	a2,272(a6)
   10500:	3107a883          	lw	a7,784(a5)
   10504:	4605                	li	a2,1
   10506:	00e6163b          	sllw	a2,a2,a4
   1050a:	00c8e8b3          	or	a7,a7,a2
   1050e:	3117a823          	sw	a7,784(a5)
   10512:	20d83823          	sd	a3,528(a6)
   10516:	4689                	li	a3,2
   10518:	02d50063          	beq	a0,a3,10538 <__register_exitproc+0x56>
   1051c:	00270693          	add	a3,a4,2
   10520:	068e                	sll	a3,a3,0x3
   10522:	2705                	addw	a4,a4,1
   10524:	c798                	sw	a4,8(a5)
   10526:	97b6                	add	a5,a5,a3
   10528:	e38c                	sd	a1,0(a5)
   1052a:	4501                	li	a0,0
   1052c:	8082                	ret
   1052e:	20070793          	add	a5,a4,512
   10532:	1ef73c23          	sd	a5,504(a4)
   10536:	bf5d                	j	104ec <__register_exitproc+0xa>
   10538:	3147a683          	lw	a3,788(a5)
   1053c:	4501                	li	a0,0
   1053e:	8ed1                	or	a3,a3,a2
   10540:	30d7aa23          	sw	a3,788(a5)
   10544:	00270693          	add	a3,a4,2
   10548:	068e                	sll	a3,a3,0x3
   1054a:	2705                	addw	a4,a4,1
   1054c:	c798                	sw	a4,8(a5)
   1054e:	97b6                	add	a5,a5,a3
   10550:	e38c                	sd	a1,0(a5)
   10552:	8082                	ret
   10554:	557d                	li	a0,-1
   10556:	8082                	ret

0000000000010558 <_exit>:
   10558:	05d00893          	li	a7,93
   1055c:	00000073          	ecall
   10560:	00054363          	bltz	a0,10566 <_exit+0xe>
   10564:	a001                	j	10564 <_exit+0xc>
   10566:	1141                	add	sp,sp,-16
   10568:	e022                	sd	s0,0(sp)
   1056a:	842a                	mv	s0,a0
   1056c:	e406                	sd	ra,8(sp)
   1056e:	4080043b          	negw	s0,s0
   10572:	008000ef          	jal	1057a <__errno>
   10576:	c100                	sw	s0,0(a0)
   10578:	a001                	j	10578 <_exit+0x20>

000000000001057a <__errno>:
   1057a:	f581b503          	ld	a0,-168(gp) # 11cf8 <_impure_ptr>
   1057e:	8082                	ret

srli.exe:     file format elf64-littleriscv


Disassembly of section .text:

00000000000100e8 <exit>:
   100e8:	1141                	add	sp,sp,-16
   100ea:	4581                	li	a1,0
   100ec:	e022                	sd	s0,0(sp)
   100ee:	e406                	sd	ra,8(sp)
   100f0:	842a                	mv	s0,a0
   100f2:	32e000ef          	jal	10420 <__call_exitprocs>
   100f6:	f481b503          	ld	a0,-184(gp) # 11d28 <_global_impure_ptr>
   100fa:	6d3c                	ld	a5,88(a0)
   100fc:	c391                	beqz	a5,10100 <exit+0x18>
   100fe:	9782                	jalr	a5
   10100:	8522                	mv	a0,s0
   10102:	494000ef          	jal	10596 <_exit>

0000000000010106 <register_fini>:
   10106:	00000793          	li	a5,0
   1010a:	c789                	beqz	a5,10114 <register_fini+0xe>
   1010c:	6541                	lui	a0,0x10
   1010e:	4e250513          	add	a0,a0,1250 # 104e2 <__libc_fini_array>
   10112:	a111                	j	10516 <atexit>
   10114:	8082                	ret

0000000000010116 <_start>:
   10116:	00002197          	auipc	gp,0x2
   1011a:	cca18193          	add	gp,gp,-822 # 11de0 <__global_pointer$>
   1011e:	f6018513          	add	a0,gp,-160 # 11d40 <completed.1>
   10122:	f9818613          	add	a2,gp,-104 # 11d78 <__BSS_END__>
   10126:	8e09                	sub	a2,a2,a0
   10128:	4581                	li	a1,0
   1012a:	24c000ef          	jal	10376 <memset>
   1012e:	00000517          	auipc	a0,0x0
   10132:	3e850513          	add	a0,a0,1000 # 10516 <atexit>
   10136:	c519                	beqz	a0,10144 <_start+0x2e>
   10138:	00000517          	auipc	a0,0x0
   1013c:	3aa50513          	add	a0,a0,938 # 104e2 <__libc_fini_array>
   10140:	3d6000ef          	jal	10516 <atexit>
   10144:	1c8000ef          	jal	1030c <__libc_init_array>
   10148:	4502                	lw	a0,0(sp)
   1014a:	002c                	add	a1,sp,8
   1014c:	4601                	li	a2,0
   1014e:	04e000ef          	jal	1019c <main>
   10152:	bf59                	j	100e8 <exit>

0000000000010154 <__do_global_dtors_aux>:
   10154:	1141                	add	sp,sp,-16
   10156:	e022                	sd	s0,0(sp)
   10158:	f601c783          	lbu	a5,-160(gp) # 11d40 <completed.1>
   1015c:	e406                	sd	ra,8(sp)
   1015e:	ef91                	bnez	a5,1017a <__do_global_dtors_aux+0x26>
   10160:	00000793          	li	a5,0
   10164:	cb81                	beqz	a5,10174 <__do_global_dtors_aux+0x20>
   10166:	6545                	lui	a0,0x11
   10168:	5c050513          	add	a0,a0,1472 # 115c0 <__EH_FRAME_BEGIN__>
   1016c:	00000097          	auipc	ra,0x0
   10170:	000000e7          	jalr	zero # 0 <exit-0x100e8>
   10174:	4785                	li	a5,1
   10176:	f6f18023          	sb	a5,-160(gp) # 11d40 <completed.1>
   1017a:	60a2                	ld	ra,8(sp)
   1017c:	6402                	ld	s0,0(sp)
   1017e:	0141                	add	sp,sp,16
   10180:	8082                	ret

0000000000010182 <frame_dummy>:
   10182:	00000793          	li	a5,0
   10186:	cb91                	beqz	a5,1019a <frame_dummy+0x18>
   10188:	6545                	lui	a0,0x11
   1018a:	f6818593          	add	a1,gp,-152 # 11d48 <object.0>
   1018e:	5c050513          	add	a0,a0,1472 # 115c0 <__EH_FRAME_BEGIN__>
   10192:	00000317          	auipc	t1,0x0
   10196:	00000067          	jr	zero # 0 <exit-0x100e8>
   1019a:	8082                	ret

000000000001019c <main>:
   1019c:	1101                	add	sp,sp,-32
   1019e:	ec22                	sd	s0,24(sp)
   101a0:	1000                	add	s0,sp,32
   101a2:	87aa                	mv	a5,a0
   101a4:	feb43023          	sd	a1,-32(s0)
   101a8:	fef42623          	sw	a5,-20(s0)

00000000000101ac <test_2>:
   101ac:	4189                	li	gp,2
   101ae:	800000b7          	lui	ra,0x80000
   101b2:	0000d713          	srl	a4,ra,0x0
   101b6:	800003b7          	lui	t2,0x80000
   101ba:	14771163          	bne	a4,t2,102fc <fail>

00000000000101be <test_3>:
   101be:	418d                	li	gp,3
   101c0:	800000b7          	lui	ra,0x80000
   101c4:	0010d713          	srl	a4,ra,0x1
   101c8:	0010039b          	addw	t2,zero,1
   101cc:	1386                	sll	t2,t2,0x21
   101ce:	13fd                	add	t2,t2,-1 # ffffffff7fffffff <__global_pointer$+0xffffffff7ffee21f>
   101d0:	03fa                	sll	t2,t2,0x1e
   101d2:	12771563          	bne	a4,t2,102fc <fail>

00000000000101d6 <test_4>:
   101d6:	4191                	li	gp,4
   101d8:	800000b7          	lui	ra,0x80000
   101dc:	0070d713          	srl	a4,ra,0x7
   101e0:	0010039b          	addw	t2,zero,1
   101e4:	1386                	sll	t2,t2,0x21
   101e6:	13fd                	add	t2,t2,-1
   101e8:	03e2                	sll	t2,t2,0x18
   101ea:	10771963          	bne	a4,t2,102fc <fail>

00000000000101ee <test_5>:
   101ee:	4195                	li	gp,5
   101f0:	800000b7          	lui	ra,0x80000
   101f4:	00e0d713          	srl	a4,ra,0xe
   101f8:	0010039b          	addw	t2,zero,1
   101fc:	1386                	sll	t2,t2,0x21
   101fe:	13fd                	add	t2,t2,-1
   10200:	03c6                	sll	t2,t2,0x11
   10202:	0e771d63          	bne	a4,t2,102fc <fail>

0000000000010206 <test_6>:
   10206:	4199                	li	gp,6
   10208:	800000b7          	lui	ra,0x80000
   1020c:	2085                	addw	ra,ra,1 # ffffffff80000001 <__global_pointer$+0xffffffff7ffee221>
   1020e:	01f0d713          	srl	a4,ra,0x1f
   10212:	0010039b          	addw	t2,zero,1
   10216:	1386                	sll	t2,t2,0x21
   10218:	13fd                	add	t2,t2,-1
   1021a:	0e771163          	bne	a4,t2,102fc <fail>

000000000001021e <test_7>:
   1021e:	419d                	li	gp,7
   10220:	50fd                	li	ra,-1
   10222:	0000d713          	srl	a4,ra,0x0
   10226:	53fd                	li	t2,-1
   10228:	0c771a63          	bne	a4,t2,102fc <fail>

000000000001022c <test_8>:
   1022c:	41a1                	li	gp,8
   1022e:	50fd                	li	ra,-1
   10230:	0010d713          	srl	a4,ra,0x1
   10234:	fff0039b          	addw	t2,zero,-1
   10238:	13fe                	sll	t2,t2,0x3f
   1023a:	13fd                	add	t2,t2,-1
   1023c:	0c771063          	bne	a4,t2,102fc <fail>

0000000000010240 <test_9>:
   10240:	41a5                	li	gp,9
   10242:	50fd                	li	ra,-1
   10244:	0070d713          	srl	a4,ra,0x7
   10248:	0010039b          	addw	t2,zero,1
   1024c:	13e6                	sll	t2,t2,0x39
   1024e:	13fd                	add	t2,t2,-1
   10250:	0a771663          	bne	a4,t2,102fc <fail>

0000000000010254 <test_10>:
   10254:	41a9                	li	gp,10
   10256:	50fd                	li	ra,-1
   10258:	00e0d713          	srl	a4,ra,0xe
   1025c:	0010039b          	addw	t2,zero,1
   10260:	13ca                	sll	t2,t2,0x32
   10262:	13fd                	add	t2,t2,-1
   10264:	08771c63          	bne	a4,t2,102fc <fail>

0000000000010268 <test_11>:
   10268:	41ad                	li	gp,11
   1026a:	50fd                	li	ra,-1
   1026c:	01f0d713          	srl	a4,ra,0x1f
   10270:	0010039b          	addw	t2,zero,1
   10274:	1386                	sll	t2,t2,0x21
   10276:	13fd                	add	t2,t2,-1
   10278:	08771263          	bne	a4,t2,102fc <fail>

000000000001027c <test_12>:
   1027c:	41b1                	li	gp,12
   1027e:	212120b7          	lui	ra,0x21212
   10282:	1210809b          	addw	ra,ra,289 # 21212121 <__global_pointer$+0x21200341>
   10286:	0000d713          	srl	a4,ra,0x0
   1028a:	212123b7          	lui	t2,0x21212
   1028e:	1213839b          	addw	t2,t2,289 # 21212121 <__global_pointer$+0x21200341>
   10292:	06771563          	bne	a4,t2,102fc <fail>

0000000000010296 <test_13>:
   10296:	41b5                	li	gp,13
   10298:	212120b7          	lui	ra,0x21212
   1029c:	1210809b          	addw	ra,ra,289 # 21212121 <__global_pointer$+0x21200341>
   102a0:	0010d713          	srl	a4,ra,0x1
   102a4:	109093b7          	lui	t2,0x10909
   102a8:	0903839b          	addw	t2,t2,144 # 10909090 <__global_pointer$+0x108f72b0>
   102ac:	04771863          	bne	a4,t2,102fc <fail>

00000000000102b0 <test_14>:
   102b0:	41b9                	li	gp,14
   102b2:	212120b7          	lui	ra,0x21212
   102b6:	1210809b          	addw	ra,ra,289 # 21212121 <__global_pointer$+0x21200341>
   102ba:	0070d713          	srl	a4,ra,0x7
   102be:	004243b7          	lui	t2,0x424
   102c2:	2423839b          	addw	t2,t2,578 # 424242 <__global_pointer$+0x412462>
   102c6:	02771b63          	bne	a4,t2,102fc <fail>

00000000000102ca <test_15>:
   102ca:	41bd                	li	gp,15
   102cc:	212120b7          	lui	ra,0x21212
   102d0:	1210809b          	addw	ra,ra,289 # 21212121 <__global_pointer$+0x21200341>
   102d4:	00e0d713          	srl	a4,ra,0xe
   102d8:	63a1                	lui	t2,0x8
   102da:	4843839b          	addw	t2,t2,1156 # 8484 <exit-0x7c64>
   102de:	00771f63          	bne	a4,t2,102fc <fail>

00000000000102e2 <test_16>:
   102e2:	41c1                	li	gp,16
   102e4:	212120b7          	lui	ra,0x21212
   102e8:	1210809b          	addw	ra,ra,289 # 21212121 <__global_pointer$+0x21200341>
   102ec:	01f0d713          	srl	a4,ra,0x1f
   102f0:	4381                	li	t2,0
   102f2:	00771563          	bne	a4,t2,102fc <fail>
   102f6:	00301263          	bne	zero,gp,102fa <pass>

00000000000102fa <pass>:
   102fa:	a019                	j	10300 <continue>

00000000000102fc <fail>:
   102fc:	00000000          	.word	0x00000000

0000000000010300 <continue>:
   10300:	4081                	li	ra,0
   10302:	4781                	li	a5,0
   10304:	853e                	mv	a0,a5
   10306:	6462                	ld	s0,24(sp)
   10308:	6105                	add	sp,sp,32
   1030a:	8082                	ret

000000000001030c <__libc_init_array>:
   1030c:	1101                	add	sp,sp,-32
   1030e:	e822                	sd	s0,16(sp)
   10310:	67c5                	lui	a5,0x11
   10312:	6445                	lui	s0,0x11
   10314:	e04a                	sd	s2,0(sp)
   10316:	5c478793          	add	a5,a5,1476 # 115c4 <__preinit_array_end>
   1031a:	5c440713          	add	a4,s0,1476 # 115c4 <__preinit_array_end>
   1031e:	ec06                	sd	ra,24(sp)
   10320:	e426                	sd	s1,8(sp)
   10322:	40e78933          	sub	s2,a5,a4
   10326:	00e78d63          	beq	a5,a4,10340 <__libc_init_array+0x34>
   1032a:	40395913          	sra	s2,s2,0x3
   1032e:	5c440413          	add	s0,s0,1476
   10332:	4481                	li	s1,0
   10334:	601c                	ld	a5,0(s0)
   10336:	0485                	add	s1,s1,1
   10338:	0421                	add	s0,s0,8
   1033a:	9782                	jalr	a5
   1033c:	ff24ece3          	bltu	s1,s2,10334 <__libc_init_array+0x28>
   10340:	6445                	lui	s0,0x11
   10342:	67c5                	lui	a5,0x11
   10344:	5d878793          	add	a5,a5,1496 # 115d8 <__do_global_dtors_aux_fini_array_entry>
   10348:	5c840713          	add	a4,s0,1480 # 115c8 <__init_array_start>
   1034c:	40e78933          	sub	s2,a5,a4
   10350:	40395913          	sra	s2,s2,0x3
   10354:	00e78b63          	beq	a5,a4,1036a <__libc_init_array+0x5e>
   10358:	5c840413          	add	s0,s0,1480
   1035c:	4481                	li	s1,0
   1035e:	601c                	ld	a5,0(s0)
   10360:	0485                	add	s1,s1,1
   10362:	0421                	add	s0,s0,8
   10364:	9782                	jalr	a5
   10366:	ff24ece3          	bltu	s1,s2,1035e <__libc_init_array+0x52>
   1036a:	60e2                	ld	ra,24(sp)
   1036c:	6442                	ld	s0,16(sp)
   1036e:	64a2                	ld	s1,8(sp)
   10370:	6902                	ld	s2,0(sp)
   10372:	6105                	add	sp,sp,32
   10374:	8082                	ret

0000000000010376 <memset>:
   10376:	433d                	li	t1,15
   10378:	872a                	mv	a4,a0
   1037a:	02c37163          	bgeu	t1,a2,1039c <memset+0x26>
   1037e:	00f77793          	and	a5,a4,15
   10382:	e3c1                	bnez	a5,10402 <memset+0x8c>
   10384:	e1bd                	bnez	a1,103ea <memset+0x74>
   10386:	ff067693          	and	a3,a2,-16
   1038a:	8a3d                	and	a2,a2,15
   1038c:	96ba                	add	a3,a3,a4
   1038e:	e30c                	sd	a1,0(a4)
   10390:	e70c                	sd	a1,8(a4)
   10392:	0741                	add	a4,a4,16
   10394:	fed76de3          	bltu	a4,a3,1038e <memset+0x18>
   10398:	e211                	bnez	a2,1039c <memset+0x26>
   1039a:	8082                	ret
   1039c:	40c306b3          	sub	a3,t1,a2
   103a0:	068a                	sll	a3,a3,0x2
   103a2:	00000297          	auipc	t0,0x0
   103a6:	9696                	add	a3,a3,t0
   103a8:	00a68067          	jr	10(a3)
   103ac:	00b70723          	sb	a1,14(a4)
   103b0:	00b706a3          	sb	a1,13(a4)
   103b4:	00b70623          	sb	a1,12(a4)
   103b8:	00b705a3          	sb	a1,11(a4)
   103bc:	00b70523          	sb	a1,10(a4)
   103c0:	00b704a3          	sb	a1,9(a4)
   103c4:	00b70423          	sb	a1,8(a4)
   103c8:	00b703a3          	sb	a1,7(a4)
   103cc:	00b70323          	sb	a1,6(a4)
   103d0:	00b702a3          	sb	a1,5(a4)
   103d4:	00b70223          	sb	a1,4(a4)
   103d8:	00b701a3          	sb	a1,3(a4)
   103dc:	00b70123          	sb	a1,2(a4)
   103e0:	00b700a3          	sb	a1,1(a4)
   103e4:	00b70023          	sb	a1,0(a4)
   103e8:	8082                	ret
   103ea:	0ff5f593          	zext.b	a1,a1
   103ee:	00859693          	sll	a3,a1,0x8
   103f2:	8dd5                	or	a1,a1,a3
   103f4:	01059693          	sll	a3,a1,0x10
   103f8:	8dd5                	or	a1,a1,a3
   103fa:	02059693          	sll	a3,a1,0x20
   103fe:	8dd5                	or	a1,a1,a3
   10400:	b759                	j	10386 <memset+0x10>
   10402:	00279693          	sll	a3,a5,0x2
   10406:	00000297          	auipc	t0,0x0
   1040a:	9696                	add	a3,a3,t0
   1040c:	8286                	mv	t0,ra
   1040e:	fa2680e7          	jalr	-94(a3)
   10412:	8096                	mv	ra,t0
   10414:	17c1                	add	a5,a5,-16
   10416:	8f1d                	sub	a4,a4,a5
   10418:	963e                	add	a2,a2,a5
   1041a:	f8c371e3          	bgeu	t1,a2,1039c <memset+0x26>
   1041e:	b79d                	j	10384 <memset+0xe>

0000000000010420 <__call_exitprocs>:
   10420:	715d                	add	sp,sp,-80
   10422:	f052                	sd	s4,32(sp)
   10424:	f481ba03          	ld	s4,-184(gp) # 11d28 <_global_impure_ptr>
   10428:	f84a                	sd	s2,48(sp)
   1042a:	e486                	sd	ra,72(sp)
   1042c:	1f8a3903          	ld	s2,504(s4)
   10430:	e0a2                	sd	s0,64(sp)
   10432:	fc26                	sd	s1,56(sp)
   10434:	f44e                	sd	s3,40(sp)
   10436:	ec56                	sd	s5,24(sp)
   10438:	e85a                	sd	s6,16(sp)
   1043a:	e45e                	sd	s7,8(sp)
   1043c:	e062                	sd	s8,0(sp)
   1043e:	02090863          	beqz	s2,1046e <__call_exitprocs+0x4e>
   10442:	8b2a                	mv	s6,a0
   10444:	8bae                	mv	s7,a1
   10446:	4a85                	li	s5,1
   10448:	59fd                	li	s3,-1
   1044a:	00892483          	lw	s1,8(s2)
   1044e:	fff4841b          	addw	s0,s1,-1
   10452:	00044e63          	bltz	s0,1046e <__call_exitprocs+0x4e>
   10456:	048e                	sll	s1,s1,0x3
   10458:	94ca                	add	s1,s1,s2
   1045a:	020b8663          	beqz	s7,10486 <__call_exitprocs+0x66>
   1045e:	2084b783          	ld	a5,520(s1)
   10462:	03778263          	beq	a5,s7,10486 <__call_exitprocs+0x66>
   10466:	347d                	addw	s0,s0,-1
   10468:	14e1                	add	s1,s1,-8
   1046a:	ff3418e3          	bne	s0,s3,1045a <__call_exitprocs+0x3a>
   1046e:	60a6                	ld	ra,72(sp)
   10470:	6406                	ld	s0,64(sp)
   10472:	74e2                	ld	s1,56(sp)
   10474:	7942                	ld	s2,48(sp)
   10476:	79a2                	ld	s3,40(sp)
   10478:	7a02                	ld	s4,32(sp)
   1047a:	6ae2                	ld	s5,24(sp)
   1047c:	6b42                	ld	s6,16(sp)
   1047e:	6ba2                	ld	s7,8(sp)
   10480:	6c02                	ld	s8,0(sp)
   10482:	6161                	add	sp,sp,80
   10484:	8082                	ret
   10486:	00892783          	lw	a5,8(s2)
   1048a:	6498                	ld	a4,8(s1)
   1048c:	37fd                	addw	a5,a5,-1
   1048e:	04878463          	beq	a5,s0,104d6 <__call_exitprocs+0xb6>
   10492:	0004b423          	sd	zero,8(s1)
   10496:	db61                	beqz	a4,10466 <__call_exitprocs+0x46>
   10498:	31092783          	lw	a5,784(s2)
   1049c:	008a96bb          	sllw	a3,s5,s0
   104a0:	00892c03          	lw	s8,8(s2)
   104a4:	8ff5                	and	a5,a5,a3
   104a6:	2781                	sext.w	a5,a5
   104a8:	ef89                	bnez	a5,104c2 <__call_exitprocs+0xa2>
   104aa:	9702                	jalr	a4
   104ac:	00892703          	lw	a4,8(s2)
   104b0:	1f8a3783          	ld	a5,504(s4)
   104b4:	01871463          	bne	a4,s8,104bc <__call_exitprocs+0x9c>
   104b8:	fb2787e3          	beq	a5,s2,10466 <__call_exitprocs+0x46>
   104bc:	dbcd                	beqz	a5,1046e <__call_exitprocs+0x4e>
   104be:	893e                	mv	s2,a5
   104c0:	b769                	j	1044a <__call_exitprocs+0x2a>
   104c2:	31492783          	lw	a5,788(s2)
   104c6:	1084b583          	ld	a1,264(s1)
   104ca:	8ff5                	and	a5,a5,a3
   104cc:	2781                	sext.w	a5,a5
   104ce:	e799                	bnez	a5,104dc <__call_exitprocs+0xbc>
   104d0:	855a                	mv	a0,s6
   104d2:	9702                	jalr	a4
   104d4:	bfe1                	j	104ac <__call_exitprocs+0x8c>
   104d6:	00892423          	sw	s0,8(s2)
   104da:	bf75                	j	10496 <__call_exitprocs+0x76>
   104dc:	852e                	mv	a0,a1
   104de:	9702                	jalr	a4
   104e0:	b7f1                	j	104ac <__call_exitprocs+0x8c>

00000000000104e2 <__libc_fini_array>:
   104e2:	1101                	add	sp,sp,-32
   104e4:	e822                	sd	s0,16(sp)
   104e6:	67c5                	lui	a5,0x11
   104e8:	6445                	lui	s0,0x11
   104ea:	5d878793          	add	a5,a5,1496 # 115d8 <__do_global_dtors_aux_fini_array_entry>
   104ee:	5e040413          	add	s0,s0,1504 # 115e0 <impure_data>
   104f2:	8c1d                	sub	s0,s0,a5
   104f4:	e426                	sd	s1,8(sp)
   104f6:	ec06                	sd	ra,24(sp)
   104f8:	40345493          	sra	s1,s0,0x3
   104fc:	c881                	beqz	s1,1050c <__libc_fini_array+0x2a>
   104fe:	1461                	add	s0,s0,-8
   10500:	943e                	add	s0,s0,a5
   10502:	601c                	ld	a5,0(s0)
   10504:	14fd                	add	s1,s1,-1
   10506:	1461                	add	s0,s0,-8
   10508:	9782                	jalr	a5
   1050a:	fce5                	bnez	s1,10502 <__libc_fini_array+0x20>
   1050c:	60e2                	ld	ra,24(sp)
   1050e:	6442                	ld	s0,16(sp)
   10510:	64a2                	ld	s1,8(sp)
   10512:	6105                	add	sp,sp,32
   10514:	8082                	ret

0000000000010516 <atexit>:
   10516:	85aa                	mv	a1,a0
   10518:	4681                	li	a3,0
   1051a:	4601                	li	a2,0
   1051c:	4501                	li	a0,0
   1051e:	a009                	j	10520 <__register_exitproc>

0000000000010520 <__register_exitproc>:
   10520:	f481b703          	ld	a4,-184(gp) # 11d28 <_global_impure_ptr>
   10524:	1f873783          	ld	a5,504(a4)
   10528:	c3b1                	beqz	a5,1056c <__register_exitproc+0x4c>
   1052a:	4798                	lw	a4,8(a5)
   1052c:	487d                	li	a6,31
   1052e:	06e84263          	blt	a6,a4,10592 <__register_exitproc+0x72>
   10532:	c505                	beqz	a0,1055a <__register_exitproc+0x3a>
   10534:	00371813          	sll	a6,a4,0x3
   10538:	983e                	add	a6,a6,a5
   1053a:	10c83823          	sd	a2,272(a6)
   1053e:	3107a883          	lw	a7,784(a5)
   10542:	4605                	li	a2,1
   10544:	00e6163b          	sllw	a2,a2,a4
   10548:	00c8e8b3          	or	a7,a7,a2
   1054c:	3117a823          	sw	a7,784(a5)
   10550:	20d83823          	sd	a3,528(a6)
   10554:	4689                	li	a3,2
   10556:	02d50063          	beq	a0,a3,10576 <__register_exitproc+0x56>
   1055a:	00270693          	add	a3,a4,2
   1055e:	068e                	sll	a3,a3,0x3
   10560:	2705                	addw	a4,a4,1
   10562:	c798                	sw	a4,8(a5)
   10564:	97b6                	add	a5,a5,a3
   10566:	e38c                	sd	a1,0(a5)
   10568:	4501                	li	a0,0
   1056a:	8082                	ret
   1056c:	20070793          	add	a5,a4,512
   10570:	1ef73c23          	sd	a5,504(a4)
   10574:	bf5d                	j	1052a <__register_exitproc+0xa>
   10576:	3147a683          	lw	a3,788(a5)
   1057a:	4501                	li	a0,0
   1057c:	8ed1                	or	a3,a3,a2
   1057e:	30d7aa23          	sw	a3,788(a5)
   10582:	00270693          	add	a3,a4,2
   10586:	068e                	sll	a3,a3,0x3
   10588:	2705                	addw	a4,a4,1
   1058a:	c798                	sw	a4,8(a5)
   1058c:	97b6                	add	a5,a5,a3
   1058e:	e38c                	sd	a1,0(a5)
   10590:	8082                	ret
   10592:	557d                	li	a0,-1
   10594:	8082                	ret

0000000000010596 <_exit>:
   10596:	05d00893          	li	a7,93
   1059a:	00000073          	ecall
   1059e:	00054363          	bltz	a0,105a4 <_exit+0xe>
   105a2:	a001                	j	105a2 <_exit+0xc>
   105a4:	1141                	add	sp,sp,-16
   105a6:	e022                	sd	s0,0(sp)
   105a8:	842a                	mv	s0,a0
   105aa:	e406                	sd	ra,8(sp)
   105ac:	4080043b          	negw	s0,s0
   105b0:	008000ef          	jal	105b8 <__errno>
   105b4:	c100                	sw	s0,0(a0)
   105b6:	a001                	j	105b6 <_exit+0x20>

00000000000105b8 <__errno>:
   105b8:	f581b503          	ld	a0,-168(gp) # 11d38 <_impure_ptr>
   105bc:	8082                	ret

xori.exe:     file format elf64-littleriscv


Disassembly of section .text:

00000000000100e8 <exit>:
   100e8:	1141                	add	sp,sp,-16
   100ea:	4581                	li	a1,0
   100ec:	e022                	sd	s0,0(sp)
   100ee:	e406                	sd	ra,8(sp)
   100f0:	842a                	mv	s0,a0
   100f2:	25c000ef          	jal	1034e <__call_exitprocs>
   100f6:	f481b503          	ld	a0,-184(gp) # 11c50 <_global_impure_ptr>
   100fa:	6d3c                	ld	a5,88(a0)
   100fc:	c391                	beqz	a5,10100 <exit+0x18>
   100fe:	9782                	jalr	a5
   10100:	8522                	mv	a0,s0
   10102:	3c2000ef          	jal	104c4 <_exit>

0000000000010106 <register_fini>:
   10106:	00000793          	li	a5,0
   1010a:	c789                	beqz	a5,10114 <register_fini+0xe>
   1010c:	6541                	lui	a0,0x10
   1010e:	41050513          	add	a0,a0,1040 # 10410 <__libc_fini_array>
   10112:	ae0d                	j	10444 <atexit>
   10114:	8082                	ret

0000000000010116 <_start>:
   10116:	00002197          	auipc	gp,0x2
   1011a:	bf218193          	add	gp,gp,-1038 # 11d08 <__global_pointer$>
   1011e:	f6018513          	add	a0,gp,-160 # 11c68 <completed.1>
   10122:	f9818613          	add	a2,gp,-104 # 11ca0 <__BSS_END__>
   10126:	8e09                	sub	a2,a2,a0
   10128:	4581                	li	a1,0
   1012a:	17a000ef          	jal	102a4 <memset>
   1012e:	00000517          	auipc	a0,0x0
   10132:	31650513          	add	a0,a0,790 # 10444 <atexit>
   10136:	c519                	beqz	a0,10144 <_start+0x2e>
   10138:	00000517          	auipc	a0,0x0
   1013c:	2d850513          	add	a0,a0,728 # 10410 <__libc_fini_array>
   10140:	304000ef          	jal	10444 <atexit>
   10144:	0f6000ef          	jal	1023a <__libc_init_array>
   10148:	4502                	lw	a0,0(sp)
   1014a:	002c                	add	a1,sp,8
   1014c:	4601                	li	a2,0
   1014e:	04e000ef          	jal	1019c <main>
   10152:	bf59                	j	100e8 <exit>

0000000000010154 <__do_global_dtors_aux>:
   10154:	1141                	add	sp,sp,-16
   10156:	e022                	sd	s0,0(sp)
   10158:	f601c783          	lbu	a5,-160(gp) # 11c68 <completed.1>
   1015c:	e406                	sd	ra,8(sp)
   1015e:	ef91                	bnez	a5,1017a <__do_global_dtors_aux+0x26>
   10160:	00000793          	li	a5,0
   10164:	cb81                	beqz	a5,10174 <__do_global_dtors_aux+0x20>
   10166:	6545                	lui	a0,0x11
   10168:	4ec50513          	add	a0,a0,1260 # 114ec <__EH_FRAME_BEGIN__>
   1016c:	00000097          	auipc	ra,0x0
   10170:	000000e7          	jalr	zero # 0 <exit-0x100e8>
   10174:	4785                	li	a5,1
   10176:	f6f18023          	sb	a5,-160(gp) # 11c68 <completed.1>
   1017a:	60a2                	ld	ra,8(sp)
   1017c:	6402                	ld	s0,0(sp)
   1017e:	0141                	add	sp,sp,16
   10180:	8082                	ret

0000000000010182 <frame_dummy>:
   10182:	00000793          	li	a5,0
   10186:	cb91                	beqz	a5,1019a <frame_dummy+0x18>
   10188:	6545                	lui	a0,0x11
   1018a:	f6818593          	add	a1,gp,-152 # 11c70 <object.0>
   1018e:	4ec50513          	add	a0,a0,1260 # 114ec <__EH_FRAME_BEGIN__>
   10192:	00000317          	auipc	t1,0x0
   10196:	00000067          	jr	zero # 0 <exit-0x100e8>
   1019a:	8082                	ret

000000000001019c <main>:
   1019c:	1101                	add	sp,sp,-32
   1019e:	ec22                	sd	s0,24(sp)
   101a0:	1000                	add	s0,sp,32
   101a2:	87aa                	mv	a5,a0
   101a4:	feb43023          	sd	a1,-32(s0)
   101a8:	fef42623          	sw	a5,-20(s0)

00000000000101ac <test_2>:
   101ac:	4189                	li	gp,2
   101ae:	00ff10b7          	lui	ra,0xff1
   101b2:	f000809b          	addw	ra,ra,-256 # ff0f00 <__global_pointer$+0xfdf1f8>
   101b6:	f0f0c713          	xor	a4,ra,-241
   101ba:	ff00f3b7          	lui	t2,0xff00f
   101be:	23bd                	addw	t2,t2,15 # ffffffffff00f00f <__global_pointer$+0xfffffffffeffd307>
   101c0:	06771563          	bne	a4,t2,1022a <fail>

00000000000101c4 <test_3>:
   101c4:	418d                	li	gp,3
   101c6:	0ff010b7          	lui	ra,0xff01
   101ca:	30c1                	addw	ra,ra,-16 # ff00ff0 <__global_pointer$+0xfeef2e8>
   101cc:	0f00c713          	xor	a4,ra,240
   101d0:	0ff013b7          	lui	t2,0xff01
   101d4:	f003839b          	addw	t2,t2,-256 # ff00f00 <__global_pointer$+0xfeef1f8>
   101d8:	04771963          	bne	a4,t2,1022a <fail>

00000000000101dc <test_4>:
   101dc:	4191                	li	gp,4
   101de:	00ff10b7          	lui	ra,0xff1
   101e2:	8ff0809b          	addw	ra,ra,-1793 # ff08ff <__global_pointer$+0xfdebf7>
   101e6:	70f0c713          	xor	a4,ra,1807
   101ea:	00ff13b7          	lui	t2,0xff1
   101ee:	33c1                	addw	t2,t2,-16 # ff0ff0 <__global_pointer$+0xfdf2e8>
   101f0:	02771d63          	bne	a4,t2,1022a <fail>

00000000000101f4 <test_5>:
   101f4:	4195                	li	gp,5
   101f6:	f00ff0b7          	lui	ra,0xf00ff
   101fa:	20bd                	addw	ra,ra,15 # fffffffff00ff00f <__global_pointer$+0xfffffffff00ed307>
   101fc:	0f00c713          	xor	a4,ra,240
   10200:	f00ff3b7          	lui	t2,0xf00ff
   10204:	0ff3839b          	addw	t2,t2,255 # fffffffff00ff0ff <__global_pointer$+0xfffffffff00ed3f7>
   10208:	02771163          	bne	a4,t2,1022a <fail>

000000000001020c <test_6>:
   1020c:	4199                	li	gp,6
   1020e:	ff00f0b7          	lui	ra,0xff00f
   10212:	7000809b          	addw	ra,ra,1792 # ffffffffff00f700 <__global_pointer$+0xfffffffffeffd9f8>
   10216:	70f0c093          	xor	ra,ra,1807
   1021a:	ff00f3b7          	lui	t2,0xff00f
   1021e:	23bd                	addw	t2,t2,15 # ffffffffff00f00f <__global_pointer$+0xfffffffffeffd307>
   10220:	00709563          	bne	ra,t2,1022a <fail>
   10224:	00301263          	bne	zero,gp,10228 <pass>

0000000000010228 <pass>:
   10228:	a019                	j	1022e <continue>

000000000001022a <fail>:
   1022a:	00000000          	.word	0x00000000

000000000001022e <continue>:
   1022e:	4081                	li	ra,0
   10230:	4781                	li	a5,0
   10232:	853e                	mv	a0,a5
   10234:	6462                	ld	s0,24(sp)
   10236:	6105                	add	sp,sp,32
   10238:	8082                	ret

000000000001023a <__libc_init_array>:
   1023a:	1101                	add	sp,sp,-32
   1023c:	e822                	sd	s0,16(sp)
   1023e:	67c5                	lui	a5,0x11
   10240:	6445                	lui	s0,0x11
   10242:	e04a                	sd	s2,0(sp)
   10244:	4f078793          	add	a5,a5,1264 # 114f0 <__init_array_start>
   10248:	4f040713          	add	a4,s0,1264 # 114f0 <__init_array_start>
   1024c:	ec06                	sd	ra,24(sp)
   1024e:	e426                	sd	s1,8(sp)
   10250:	40e78933          	sub	s2,a5,a4
   10254:	00e78d63          	beq	a5,a4,1026e <__libc_init_array+0x34>
   10258:	40395913          	sra	s2,s2,0x3
   1025c:	4f040413          	add	s0,s0,1264
   10260:	4481                	li	s1,0
   10262:	601c                	ld	a5,0(s0)
   10264:	0485                	add	s1,s1,1
   10266:	0421                	add	s0,s0,8
   10268:	9782                	jalr	a5
   1026a:	ff24ece3          	bltu	s1,s2,10262 <__libc_init_array+0x28>
   1026e:	6445                	lui	s0,0x11
   10270:	67c5                	lui	a5,0x11
   10272:	50078793          	add	a5,a5,1280 # 11500 <__do_global_dtors_aux_fini_array_entry>
   10276:	4f040713          	add	a4,s0,1264 # 114f0 <__init_array_start>
   1027a:	40e78933          	sub	s2,a5,a4
   1027e:	40395913          	sra	s2,s2,0x3
   10282:	00e78b63          	beq	a5,a4,10298 <__libc_init_array+0x5e>
   10286:	4f040413          	add	s0,s0,1264
   1028a:	4481                	li	s1,0
   1028c:	601c                	ld	a5,0(s0)
   1028e:	0485                	add	s1,s1,1
   10290:	0421                	add	s0,s0,8
   10292:	9782                	jalr	a5
   10294:	ff24ece3          	bltu	s1,s2,1028c <__libc_init_array+0x52>
   10298:	60e2                	ld	ra,24(sp)
   1029a:	6442                	ld	s0,16(sp)
   1029c:	64a2                	ld	s1,8(sp)
   1029e:	6902                	ld	s2,0(sp)
   102a0:	6105                	add	sp,sp,32
   102a2:	8082                	ret

00000000000102a4 <memset>:
   102a4:	433d                	li	t1,15
   102a6:	872a                	mv	a4,a0
   102a8:	02c37163          	bgeu	t1,a2,102ca <memset+0x26>
   102ac:	00f77793          	and	a5,a4,15
   102b0:	e3c1                	bnez	a5,10330 <memset+0x8c>
   102b2:	e1bd                	bnez	a1,10318 <memset+0x74>
   102b4:	ff067693          	and	a3,a2,-16
   102b8:	8a3d                	and	a2,a2,15
   102ba:	96ba                	add	a3,a3,a4
   102bc:	e30c                	sd	a1,0(a4)
   102be:	e70c                	sd	a1,8(a4)
   102c0:	0741                	add	a4,a4,16
   102c2:	fed76de3          	bltu	a4,a3,102bc <memset+0x18>
   102c6:	e211                	bnez	a2,102ca <memset+0x26>
   102c8:	8082                	ret
   102ca:	40c306b3          	sub	a3,t1,a2
   102ce:	068a                	sll	a3,a3,0x2
   102d0:	00000297          	auipc	t0,0x0
   102d4:	9696                	add	a3,a3,t0
   102d6:	00a68067          	jr	10(a3)
   102da:	00b70723          	sb	a1,14(a4)
   102de:	00b706a3          	sb	a1,13(a4)
   102e2:	00b70623          	sb	a1,12(a4)
   102e6:	00b705a3          	sb	a1,11(a4)
   102ea:	00b70523          	sb	a1,10(a4)
   102ee:	00b704a3          	sb	a1,9(a4)
   102f2:	00b70423          	sb	a1,8(a4)
   102f6:	00b703a3          	sb	a1,7(a4)
   102fa:	00b70323          	sb	a1,6(a4)
   102fe:	00b702a3          	sb	a1,5(a4)
   10302:	00b70223          	sb	a1,4(a4)
   10306:	00b701a3          	sb	a1,3(a4)
   1030a:	00b70123          	sb	a1,2(a4)
   1030e:	00b700a3          	sb	a1,1(a4)
   10312:	00b70023          	sb	a1,0(a4)
   10316:	8082                	ret
   10318:	0ff5f593          	zext.b	a1,a1
   1031c:	00859693          	sll	a3,a1,0x8
   10320:	8dd5                	or	a1,a1,a3
   10322:	01059693          	sll	a3,a1,0x10
   10326:	8dd5                	or	a1,a1,a3
   10328:	02059693          	sll	a3,a1,0x20
   1032c:	8dd5                	or	a1,a1,a3
   1032e:	b759                	j	102b4 <memset+0x10>
   10330:	00279693          	sll	a3,a5,0x2
   10334:	00000297          	auipc	t0,0x0
   10338:	9696                	add	a3,a3,t0
   1033a:	8286                	mv	t0,ra
   1033c:	fa2680e7          	jalr	-94(a3)
   10340:	8096                	mv	ra,t0
   10342:	17c1                	add	a5,a5,-16
   10344:	8f1d                	sub	a4,a4,a5
   10346:	963e                	add	a2,a2,a5
   10348:	f8c371e3          	bgeu	t1,a2,102ca <memset+0x26>
   1034c:	b79d                	j	102b2 <memset+0xe>

000000000001034e <__call_exitprocs>:
   1034e:	715d                	add	sp,sp,-80
   10350:	f052                	sd	s4,32(sp)
   10352:	f481ba03          	ld	s4,-184(gp) # 11c50 <_global_impure_ptr>
   10356:	f84a                	sd	s2,48(sp)
   10358:	e486                	sd	ra,72(sp)
   1035a:	1f8a3903          	ld	s2,504(s4)
   1035e:	e0a2                	sd	s0,64(sp)
   10360:	fc26                	sd	s1,56(sp)
   10362:	f44e                	sd	s3,40(sp)
   10364:	ec56                	sd	s5,24(sp)
   10366:	e85a                	sd	s6,16(sp)
   10368:	e45e                	sd	s7,8(sp)
   1036a:	e062                	sd	s8,0(sp)
   1036c:	02090863          	beqz	s2,1039c <__call_exitprocs+0x4e>
   10370:	8b2a                	mv	s6,a0
   10372:	8bae                	mv	s7,a1
   10374:	4a85                	li	s5,1
   10376:	59fd                	li	s3,-1
   10378:	00892483          	lw	s1,8(s2)
   1037c:	fff4841b          	addw	s0,s1,-1
   10380:	00044e63          	bltz	s0,1039c <__call_exitprocs+0x4e>
   10384:	048e                	sll	s1,s1,0x3
   10386:	94ca                	add	s1,s1,s2
   10388:	020b8663          	beqz	s7,103b4 <__call_exitprocs+0x66>
   1038c:	2084b783          	ld	a5,520(s1)
   10390:	03778263          	beq	a5,s7,103b4 <__call_exitprocs+0x66>
   10394:	347d                	addw	s0,s0,-1
   10396:	14e1                	add	s1,s1,-8
   10398:	ff3418e3          	bne	s0,s3,10388 <__call_exitprocs+0x3a>
   1039c:	60a6                	ld	ra,72(sp)
   1039e:	6406                	ld	s0,64(sp)
   103a0:	74e2                	ld	s1,56(sp)
   103a2:	7942                	ld	s2,48(sp)
   103a4:	79a2                	ld	s3,40(sp)
   103a6:	7a02                	ld	s4,32(sp)
   103a8:	6ae2                	ld	s5,24(sp)
   103aa:	6b42                	ld	s6,16(sp)
   103ac:	6ba2                	ld	s7,8(sp)
   103ae:	6c02                	ld	s8,0(sp)
   103b0:	6161                	add	sp,sp,80
   103b2:	8082                	ret
   103b4:	00892783          	lw	a5,8(s2)
   103b8:	6498                	ld	a4,8(s1)
   103ba:	37fd                	addw	a5,a5,-1
   103bc:	04878463          	beq	a5,s0,10404 <__call_exitprocs+0xb6>
   103c0:	0004b423          	sd	zero,8(s1)
   103c4:	db61                	beqz	a4,10394 <__call_exitprocs+0x46>
   103c6:	31092783          	lw	a5,784(s2)
   103ca:	008a96bb          	sllw	a3,s5,s0
   103ce:	00892c03          	lw	s8,8(s2)
   103d2:	8ff5                	and	a5,a5,a3
   103d4:	2781                	sext.w	a5,a5
   103d6:	ef89                	bnez	a5,103f0 <__call_exitprocs+0xa2>
   103d8:	9702                	jalr	a4
   103da:	00892703          	lw	a4,8(s2)
   103de:	1f8a3783          	ld	a5,504(s4)
   103e2:	01871463          	bne	a4,s8,103ea <__call_exitprocs+0x9c>
   103e6:	fb2787e3          	beq	a5,s2,10394 <__call_exitprocs+0x46>
   103ea:	dbcd                	beqz	a5,1039c <__call_exitprocs+0x4e>
   103ec:	893e                	mv	s2,a5
   103ee:	b769                	j	10378 <__call_exitprocs+0x2a>
   103f0:	31492783          	lw	a5,788(s2)
   103f4:	1084b583          	ld	a1,264(s1)
   103f8:	8ff5                	and	a5,a5,a3
   103fa:	2781                	sext.w	a5,a5
   103fc:	e799                	bnez	a5,1040a <__call_exitprocs+0xbc>
   103fe:	855a                	mv	a0,s6
   10400:	9702                	jalr	a4
   10402:	bfe1                	j	103da <__call_exitprocs+0x8c>
   10404:	00892423          	sw	s0,8(s2)
   10408:	bf75                	j	103c4 <__call_exitprocs+0x76>
   1040a:	852e                	mv	a0,a1
   1040c:	9702                	jalr	a4
   1040e:	b7f1                	j	103da <__call_exitprocs+0x8c>

0000000000010410 <__libc_fini_array>:
   10410:	1101                	add	sp,sp,-32
   10412:	e822                	sd	s0,16(sp)
   10414:	67c5                	lui	a5,0x11
   10416:	6445                	lui	s0,0x11
   10418:	50078793          	add	a5,a5,1280 # 11500 <__do_global_dtors_aux_fini_array_entry>
   1041c:	50840413          	add	s0,s0,1288 # 11508 <impure_data>
   10420:	8c1d                	sub	s0,s0,a5
   10422:	e426                	sd	s1,8(sp)
   10424:	ec06                	sd	ra,24(sp)
   10426:	40345493          	sra	s1,s0,0x3
   1042a:	c881                	beqz	s1,1043a <__libc_fini_array+0x2a>
   1042c:	1461                	add	s0,s0,-8
   1042e:	943e                	add	s0,s0,a5
   10430:	601c                	ld	a5,0(s0)
   10432:	14fd                	add	s1,s1,-1
   10434:	1461                	add	s0,s0,-8
   10436:	9782                	jalr	a5
   10438:	fce5                	bnez	s1,10430 <__libc_fini_array+0x20>
   1043a:	60e2                	ld	ra,24(sp)
   1043c:	6442                	ld	s0,16(sp)
   1043e:	64a2                	ld	s1,8(sp)
   10440:	6105                	add	sp,sp,32
   10442:	8082                	ret

0000000000010444 <atexit>:
   10444:	85aa                	mv	a1,a0
   10446:	4681                	li	a3,0
   10448:	4601                	li	a2,0
   1044a:	4501                	li	a0,0
   1044c:	a009                	j	1044e <__register_exitproc>

000000000001044e <__register_exitproc>:
   1044e:	f481b703          	ld	a4,-184(gp) # 11c50 <_global_impure_ptr>
   10452:	1f873783          	ld	a5,504(a4)
   10456:	c3b1                	beqz	a5,1049a <__register_exitproc+0x4c>
   10458:	4798                	lw	a4,8(a5)
   1045a:	487d                	li	a6,31
   1045c:	06e84263          	blt	a6,a4,104c0 <__register_exitproc+0x72>
   10460:	c505                	beqz	a0,10488 <__register_exitproc+0x3a>
   10462:	00371813          	sll	a6,a4,0x3
   10466:	983e                	add	a6,a6,a5
   10468:	10c83823          	sd	a2,272(a6)
   1046c:	3107a883          	lw	a7,784(a5)
   10470:	4605                	li	a2,1
   10472:	00e6163b          	sllw	a2,a2,a4
   10476:	00c8e8b3          	or	a7,a7,a2
   1047a:	3117a823          	sw	a7,784(a5)
   1047e:	20d83823          	sd	a3,528(a6)
   10482:	4689                	li	a3,2
   10484:	02d50063          	beq	a0,a3,104a4 <__register_exitproc+0x56>
   10488:	00270693          	add	a3,a4,2
   1048c:	068e                	sll	a3,a3,0x3
   1048e:	2705                	addw	a4,a4,1
   10490:	c798                	sw	a4,8(a5)
   10492:	97b6                	add	a5,a5,a3
   10494:	e38c                	sd	a1,0(a5)
   10496:	4501                	li	a0,0
   10498:	8082                	ret
   1049a:	20070793          	add	a5,a4,512
   1049e:	1ef73c23          	sd	a5,504(a4)
   104a2:	bf5d                	j	10458 <__register_exitproc+0xa>
   104a4:	3147a683          	lw	a3,788(a5)
   104a8:	4501                	li	a0,0
   104aa:	8ed1                	or	a3,a3,a2
   104ac:	30d7aa23          	sw	a3,788(a5)
   104b0:	00270693          	add	a3,a4,2
   104b4:	068e                	sll	a3,a3,0x3
   104b6:	2705                	addw	a4,a4,1
   104b8:	c798                	sw	a4,8(a5)
   104ba:	97b6                	add	a5,a5,a3
   104bc:	e38c                	sd	a1,0(a5)
   104be:	8082                	ret
   104c0:	557d                	li	a0,-1
   104c2:	8082                	ret

00000000000104c4 <_exit>:
   104c4:	05d00893          	li	a7,93
   104c8:	00000073          	ecall
   104cc:	00054363          	bltz	a0,104d2 <_exit+0xe>
   104d0:	a001                	j	104d0 <_exit+0xc>
   104d2:	1141                	add	sp,sp,-16
   104d4:	e022                	sd	s0,0(sp)
   104d6:	842a                	mv	s0,a0
   104d8:	e406                	sd	ra,8(sp)
   104da:	4080043b          	negw	s0,s0
   104de:	008000ef          	jal	104e6 <__errno>
   104e2:	c100                	sw	s0,0(a0)
   104e4:	a001                	j	104e4 <_exit+0x20>

00000000000104e6 <__errno>:
   104e6:	f581b503          	ld	a0,-168(gp) # 11c60 <_impure_ptr>
   104ea:	8082                	ret

fadd.exe:     file format elf64-littleriscv


Disassembly of section .text:

00000000000100e8 <exit>:
   100e8:	1141                	add	sp,sp,-16
   100ea:	4581                	li	a1,0
   100ec:	e022                	sd	s0,0(sp)
   100ee:	e406                	sd	ra,8(sp)
   100f0:	842a                	mv	s0,a0
   100f2:	416000ef          	jal	10508 <__call_exitprocs>
   100f6:	f481b503          	ld	a0,-184(gp) # 11e50 <_global_impure_ptr>
   100fa:	6d3c                	ld	a5,88(a0)
   100fc:	c391                	beqz	a5,10100 <exit+0x18>
   100fe:	9782                	jalr	a5
   10100:	8522                	mv	a0,s0
   10102:	57c000ef          	jal	1067e <_exit>

0000000000010106 <register_fini>:
   10106:	00000793          	li	a5,0
   1010a:	c789                	beqz	a5,10114 <register_fini+0xe>
   1010c:	6541                	lui	a0,0x10
   1010e:	5ca50513          	add	a0,a0,1482 # 105ca <__libc_fini_array>
   10112:	a1f5                	j	105fe <atexit>
   10114:	8082                	ret

0000000000010116 <_start>:
   10116:	00002197          	auipc	gp,0x2
   1011a:	df218193          	add	gp,gp,-526 # 11f08 <__global_pointer$>
   1011e:	f6018513          	add	a0,gp,-160 # 11e68 <completed.1>
   10122:	f9818613          	add	a2,gp,-104 # 11ea0 <__BSS_END__>
   10126:	8e09                	sub	a2,a2,a0
   10128:	4581                	li	a1,0
   1012a:	334000ef          	jal	1045e <memset>
   1012e:	00000517          	auipc	a0,0x0
   10132:	4d050513          	add	a0,a0,1232 # 105fe <atexit>
   10136:	c519                	beqz	a0,10144 <_start+0x2e>
   10138:	00000517          	auipc	a0,0x0
   1013c:	49250513          	add	a0,a0,1170 # 105ca <__libc_fini_array>
   10140:	4be000ef          	jal	105fe <atexit>
   10144:	2b0000ef          	jal	103f4 <__libc_init_array>
   10148:	4502                	lw	a0,0(sp)
   1014a:	002c                	add	a1,sp,8
   1014c:	4601                	li	a2,0
   1014e:	04e000ef          	jal	1019c <main>
   10152:	bf59                	j	100e8 <exit>

0000000000010154 <__do_global_dtors_aux>:
   10154:	1141                	add	sp,sp,-16
   10156:	e022                	sd	s0,0(sp)
   10158:	f601c783          	lbu	a5,-160(gp) # 11e68 <completed.1>
   1015c:	e406                	sd	ra,8(sp)
   1015e:	ef91                	bnez	a5,1017a <__do_global_dtors_aux+0x26>
   10160:	00000793          	li	a5,0
   10164:	cb81                	beqz	a5,10174 <__do_global_dtors_aux+0x20>
   10166:	6545                	lui	a0,0x11
   10168:	6e850513          	add	a0,a0,1768 # 116e8 <__EH_FRAME_BEGIN__>
   1016c:	00000097          	auipc	ra,0x0
   10170:	000000e7          	jalr	zero # 0 <exit-0x100e8>
   10174:	4785                	li	a5,1
   10176:	f6f18023          	sb	a5,-160(gp) # 11e68 <completed.1>
   1017a:	60a2                	ld	ra,8(sp)
   1017c:	6402                	ld	s0,0(sp)
   1017e:	0141                	add	sp,sp,16
   10180:	8082                	ret

0000000000010182 <frame_dummy>:
   10182:	00000793          	li	a5,0
   10186:	cb91                	beqz	a5,1019a <frame_dummy+0x18>
   10188:	6545                	lui	a0,0x11
   1018a:	f6818593          	add	a1,gp,-152 # 11e70 <object.0>
   1018e:	6e850513          	add	a0,a0,1768 # 116e8 <__EH_FRAME_BEGIN__>
   10192:	00000317          	auipc	t1,0x0
   10196:	00000067          	jr	zero # 0 <exit-0x100e8>
   1019a:	8082                	ret

000000000001019c <main>:
   1019c:	7179                	add	sp,sp,-48
   1019e:	f422                	sd	s0,40(sp)
   101a0:	1800                	add	s0,sp,48
   101a2:	87aa                	mv	a5,a0
   101a4:	fcb43823          	sd	a1,-48(s0)
   101a8:	fcf42e23          	sw	a5,-36(s0)
   101ac:	fe042623          	sw	zero,-20(s0)
   101b0:	fe042423          	sw	zero,-24(s0)
   101b4:	fe042223          	sw	zero,-28(s0)
   101b8:	fe042023          	sw	zero,-32(s0)
   101bc:	67c1                	lui	a5,0x10
   101be:	6a87a787          	flw	fa5,1704(a5) # 106a8 <__errno+0x8>
   101c2:	fef42627          	fsw	fa5,-20(s0)
   101c6:	67c1                	lui	a5,0x10
   101c8:	6ac7a787          	flw	fa5,1708(a5) # 106ac <__errno+0xc>
   101cc:	fef42427          	fsw	fa5,-24(s0)
   101d0:	fec42707          	flw	fa4,-20(s0)
   101d4:	fe842787          	flw	fa5,-24(s0)
   101d8:	00f777d3          	fadd.s	fa5,fa4,fa5
   101dc:	fef42227          	fsw	fa5,-28(s0)
   101e0:	67c1                	lui	a5,0x10
   101e2:	6b07a787          	flw	fa5,1712(a5) # 106b0 <__errno+0x10>
   101e6:	fef42027          	fsw	fa5,-32(s0)
   101ea:	fe042707          	flw	fa4,-32(s0)
   101ee:	fe442787          	flw	fa5,-28(s0)
   101f2:	a0f727d3          	feq.s	a5,fa4,fa5
   101f6:	e399                	bnez	a5,101fc <main+0x60>
   101f8:	0000                	unimp
   101fa:	0000                	unimp
   101fc:	67c1                	lui	a5,0x10
   101fe:	6b47a787          	flw	fa5,1716(a5) # 106b4 <__errno+0x14>
   10202:	fef42627          	fsw	fa5,-20(s0)
   10206:	67c1                	lui	a5,0x10
   10208:	6b87a787          	flw	fa5,1720(a5) # 106b8 <__errno+0x18>
   1020c:	fef42627          	fsw	fa5,-20(s0)
   10210:	67c1                	lui	a5,0x10
   10212:	6bc7a787          	flw	fa5,1724(a5) # 106bc <__errno+0x1c>
   10216:	fef42427          	fsw	fa5,-24(s0)
   1021a:	fec42707          	flw	fa4,-20(s0)
   1021e:	fe842787          	flw	fa5,-24(s0)
   10222:	00f777d3          	fadd.s	fa5,fa4,fa5
   10226:	fef42227          	fsw	fa5,-28(s0)
   1022a:	fe442707          	flw	fa4,-28(s0)
   1022e:	67c1                	lui	a5,0x10
   10230:	6c07a787          	flw	fa5,1728(a5) # 106c0 <__errno+0x20>
   10234:	a0f727d3          	feq.s	a5,fa4,fa5
   10238:	e399                	bnez	a5,1023e <main+0xa2>
   1023a:	0000                	unimp
   1023c:	0000                	unimp
   1023e:	67c1                	lui	a5,0x10
   10240:	6b47a787          	flw	fa5,1716(a5) # 106b4 <__errno+0x14>
   10244:	fef42627          	fsw	fa5,-20(s0)
   10248:	67c1                	lui	a5,0x10
   1024a:	6c47a787          	flw	fa5,1732(a5) # 106c4 <__errno+0x24>
   1024e:	fef42427          	fsw	fa5,-24(s0)
   10252:	fec42707          	flw	fa4,-20(s0)
   10256:	fe842787          	flw	fa5,-24(s0)
   1025a:	00f777d3          	fadd.s	fa5,fa4,fa5
   1025e:	fef42227          	fsw	fa5,-28(s0)
   10262:	fe442787          	flw	fa5,-28(s0)
   10266:	42078753          	fcvt.d.s	fa4,fa5
   1026a:	67c1                	lui	a5,0x10
   1026c:	6c87b787          	fld	fa5,1736(a5) # 106c8 <__errno+0x28>
   10270:	a2f727d3          	feq.d	a5,fa4,fa5
   10274:	e399                	bnez	a5,1027a <main+0xde>
   10276:	0000                	unimp
   10278:	0000                	unimp
   1027a:	67c1                	lui	a5,0x10
   1027c:	6a87a787          	flw	fa5,1704(a5) # 106a8 <__errno+0x8>
   10280:	fef42627          	fsw	fa5,-20(s0)
   10284:	67c1                	lui	a5,0x10
   10286:	6ac7a787          	flw	fa5,1708(a5) # 106ac <__errno+0xc>
   1028a:	fef42427          	fsw	fa5,-24(s0)
   1028e:	fec42707          	flw	fa4,-20(s0)
   10292:	fe842787          	flw	fa5,-24(s0)
   10296:	08f777d3          	fsub.s	fa5,fa4,fa5
   1029a:	fef42227          	fsw	fa5,-28(s0)
   1029e:	fe442707          	flw	fa4,-28(s0)
   102a2:	67c1                	lui	a5,0x10
   102a4:	6d07a787          	flw	fa5,1744(a5) # 106d0 <__errno+0x30>
   102a8:	a0f727d3          	feq.s	a5,fa4,fa5
   102ac:	e399                	bnez	a5,102b2 <main+0x116>
   102ae:	0000                	unimp
   102b0:	0000                	unimp
   102b2:	67c1                	lui	a5,0x10
   102b4:	6b47a787          	flw	fa5,1716(a5) # 106b4 <__errno+0x14>
   102b8:	fef42627          	fsw	fa5,-20(s0)
   102bc:	67c1                	lui	a5,0x10
   102be:	6b87a787          	flw	fa5,1720(a5) # 106b8 <__errno+0x18>
   102c2:	fef42627          	fsw	fa5,-20(s0)
   102c6:	67c1                	lui	a5,0x10
   102c8:	6d47a787          	flw	fa5,1748(a5) # 106d4 <__errno+0x34>
   102cc:	fef42427          	fsw	fa5,-24(s0)
   102d0:	fec42707          	flw	fa4,-20(s0)
   102d4:	fe842787          	flw	fa5,-24(s0)
   102d8:	08f777d3          	fsub.s	fa5,fa4,fa5
   102dc:	fef42227          	fsw	fa5,-28(s0)
   102e0:	fe442707          	flw	fa4,-28(s0)
   102e4:	67c1                	lui	a5,0x10
   102e6:	6c07a787          	flw	fa5,1728(a5) # 106c0 <__errno+0x20>
   102ea:	a0f727d3          	feq.s	a5,fa4,fa5
   102ee:	e399                	bnez	a5,102f4 <main+0x158>
   102f0:	0000                	unimp
   102f2:	0000                	unimp
   102f4:	67c1                	lui	a5,0x10
   102f6:	6b47a787          	flw	fa5,1716(a5) # 106b4 <__errno+0x14>
   102fa:	fef42627          	fsw	fa5,-20(s0)
   102fe:	67c1                	lui	a5,0x10
   10300:	6c47a787          	flw	fa5,1732(a5) # 106c4 <__errno+0x24>
   10304:	fef42427          	fsw	fa5,-24(s0)
   10308:	fec42707          	flw	fa4,-20(s0)
   1030c:	fe842787          	flw	fa5,-24(s0)
   10310:	00f777d3          	fadd.s	fa5,fa4,fa5
   10314:	fef42227          	fsw	fa5,-28(s0)
   10318:	fe442787          	flw	fa5,-28(s0)
   1031c:	42078753          	fcvt.d.s	fa4,fa5
   10320:	67c1                	lui	a5,0x10
   10322:	6c87b787          	fld	fa5,1736(a5) # 106c8 <__errno+0x28>
   10326:	a2f727d3          	feq.d	a5,fa4,fa5
   1032a:	e399                	bnez	a5,10330 <main+0x194>
   1032c:	0000                	unimp
   1032e:	0000                	unimp
   10330:	67c1                	lui	a5,0x10
   10332:	6a87a787          	flw	fa5,1704(a5) # 106a8 <__errno+0x8>
   10336:	fef42627          	fsw	fa5,-20(s0)
   1033a:	67c1                	lui	a5,0x10
   1033c:	6ac7a787          	flw	fa5,1708(a5) # 106ac <__errno+0xc>
   10340:	fef42427          	fsw	fa5,-24(s0)
   10344:	fec42707          	flw	fa4,-20(s0)
   10348:	fe842787          	flw	fa5,-24(s0)
   1034c:	10f777d3          	fmul.s	fa5,fa4,fa5
   10350:	fef42227          	fsw	fa5,-28(s0)
   10354:	fe442707          	flw	fa4,-28(s0)
   10358:	67c1                	lui	a5,0x10
   1035a:	6a87a787          	flw	fa5,1704(a5) # 106a8 <__errno+0x8>
   1035e:	a0f727d3          	feq.s	a5,fa4,fa5
   10362:	e399                	bnez	a5,10368 <main+0x1cc>
   10364:	0000                	unimp
   10366:	0000                	unimp
   10368:	67c1                	lui	a5,0x10
   1036a:	6b47a787          	flw	fa5,1716(a5) # 106b4 <__errno+0x14>
   1036e:	fef42627          	fsw	fa5,-20(s0)
   10372:	67c1                	lui	a5,0x10
   10374:	6b87a787          	flw	fa5,1720(a5) # 106b8 <__errno+0x18>
   10378:	fef42627          	fsw	fa5,-20(s0)
   1037c:	67c1                	lui	a5,0x10
   1037e:	6d47a787          	flw	fa5,1748(a5) # 106d4 <__errno+0x34>
   10382:	fef42427          	fsw	fa5,-24(s0)
   10386:	fec42707          	flw	fa4,-20(s0)
   1038a:	fe842787          	flw	fa5,-24(s0)
   1038e:	10f777d3          	fmul.s	fa5,fa4,fa5
   10392:	fef42227          	fsw	fa5,-28(s0)
   10396:	fe442787          	flw	fa5,-28(s0)
   1039a:	42078753          	fcvt.d.s	fa4,fa5
   1039e:	67c1                	lui	a5,0x10
   103a0:	6d87b787          	fld	fa5,1752(a5) # 106d8 <__errno+0x38>
   103a4:	a2f727d3          	feq.d	a5,fa4,fa5
   103a8:	e399                	bnez	a5,103ae <main+0x212>
   103aa:	0000                	unimp
   103ac:	0000                	unimp
   103ae:	67c1                	lui	a5,0x10
   103b0:	6b47a787          	flw	fa5,1716(a5) # 106b4 <__errno+0x14>
   103b4:	fef42627          	fsw	fa5,-20(s0)
   103b8:	67c1                	lui	a5,0x10
   103ba:	6c47a787          	flw	fa5,1732(a5) # 106c4 <__errno+0x24>
   103be:	fef42427          	fsw	fa5,-24(s0)
   103c2:	fec42707          	flw	fa4,-20(s0)
   103c6:	fe842787          	flw	fa5,-24(s0)
   103ca:	10f777d3          	fmul.s	fa5,fa4,fa5
   103ce:	fef42227          	fsw	fa5,-28(s0)
   103d2:	fe442787          	flw	fa5,-28(s0)
   103d6:	42078753          	fcvt.d.s	fa4,fa5
   103da:	67c1                	lui	a5,0x10
   103dc:	6e07b787          	fld	fa5,1760(a5) # 106e0 <__errno+0x40>
   103e0:	a2f727d3          	feq.d	a5,fa4,fa5
   103e4:	e399                	bnez	a5,103ea <main+0x24e>
   103e6:	0000                	unimp
   103e8:	0000                	unimp
   103ea:	4781                	li	a5,0
   103ec:	853e                	mv	a0,a5
   103ee:	7422                	ld	s0,40(sp)
   103f0:	6145                	add	sp,sp,48
   103f2:	8082                	ret

00000000000103f4 <__libc_init_array>:
   103f4:	1101                	add	sp,sp,-32
   103f6:	e822                	sd	s0,16(sp)
   103f8:	67c5                	lui	a5,0x11
   103fa:	6445                	lui	s0,0x11
   103fc:	e04a                	sd	s2,0(sp)
   103fe:	6ec78793          	add	a5,a5,1772 # 116ec <__preinit_array_end>
   10402:	6ec40713          	add	a4,s0,1772 # 116ec <__preinit_array_end>
   10406:	ec06                	sd	ra,24(sp)
   10408:	e426                	sd	s1,8(sp)
   1040a:	40e78933          	sub	s2,a5,a4
   1040e:	00e78d63          	beq	a5,a4,10428 <__libc_init_array+0x34>
   10412:	40395913          	sra	s2,s2,0x3
   10416:	6ec40413          	add	s0,s0,1772
   1041a:	4481                	li	s1,0
   1041c:	601c                	ld	a5,0(s0)
   1041e:	0485                	add	s1,s1,1
   10420:	0421                	add	s0,s0,8
   10422:	9782                	jalr	a5
   10424:	ff24ece3          	bltu	s1,s2,1041c <__libc_init_array+0x28>
   10428:	6445                	lui	s0,0x11
   1042a:	67c5                	lui	a5,0x11
   1042c:	70078793          	add	a5,a5,1792 # 11700 <__do_global_dtors_aux_fini_array_entry>
   10430:	6f040713          	add	a4,s0,1776 # 116f0 <__init_array_start>
   10434:	40e78933          	sub	s2,a5,a4
   10438:	40395913          	sra	s2,s2,0x3
   1043c:	00e78b63          	beq	a5,a4,10452 <__libc_init_array+0x5e>
   10440:	6f040413          	add	s0,s0,1776
   10444:	4481                	li	s1,0
   10446:	601c                	ld	a5,0(s0)
   10448:	0485                	add	s1,s1,1
   1044a:	0421                	add	s0,s0,8
   1044c:	9782                	jalr	a5
   1044e:	ff24ece3          	bltu	s1,s2,10446 <__libc_init_array+0x52>
   10452:	60e2                	ld	ra,24(sp)
   10454:	6442                	ld	s0,16(sp)
   10456:	64a2                	ld	s1,8(sp)
   10458:	6902                	ld	s2,0(sp)
   1045a:	6105                	add	sp,sp,32
   1045c:	8082                	ret

000000000001045e <memset>:
   1045e:	433d                	li	t1,15
   10460:	872a                	mv	a4,a0
   10462:	02c37163          	bgeu	t1,a2,10484 <memset+0x26>
   10466:	00f77793          	and	a5,a4,15
   1046a:	e3c1                	bnez	a5,104ea <memset+0x8c>
   1046c:	e1bd                	bnez	a1,104d2 <memset+0x74>
   1046e:	ff067693          	and	a3,a2,-16
   10472:	8a3d                	and	a2,a2,15
   10474:	96ba                	add	a3,a3,a4
   10476:	e30c                	sd	a1,0(a4)
   10478:	e70c                	sd	a1,8(a4)
   1047a:	0741                	add	a4,a4,16
   1047c:	fed76de3          	bltu	a4,a3,10476 <memset+0x18>
   10480:	e211                	bnez	a2,10484 <memset+0x26>
   10482:	8082                	ret
   10484:	40c306b3          	sub	a3,t1,a2
   10488:	068a                	sll	a3,a3,0x2
   1048a:	00000297          	auipc	t0,0x0
   1048e:	9696                	add	a3,a3,t0
   10490:	00a68067          	jr	10(a3)
   10494:	00b70723          	sb	a1,14(a4)
   10498:	00b706a3          	sb	a1,13(a4)
   1049c:	00b70623          	sb	a1,12(a4)
   104a0:	00b705a3          	sb	a1,11(a4)
   104a4:	00b70523          	sb	a1,10(a4)
   104a8:	00b704a3          	sb	a1,9(a4)
   104ac:	00b70423          	sb	a1,8(a4)
   104b0:	00b703a3          	sb	a1,7(a4)
   104b4:	00b70323          	sb	a1,6(a4)
   104b8:	00b702a3          	sb	a1,5(a4)
   104bc:	00b70223          	sb	a1,4(a4)
   104c0:	00b701a3          	sb	a1,3(a4)
   104c4:	00b70123          	sb	a1,2(a4)
   104c8:	00b700a3          	sb	a1,1(a4)
   104cc:	00b70023          	sb	a1,0(a4)
   104d0:	8082                	ret
   104d2:	0ff5f593          	zext.b	a1,a1
   104d6:	00859693          	sll	a3,a1,0x8
   104da:	8dd5                	or	a1,a1,a3
   104dc:	01059693          	sll	a3,a1,0x10
   104e0:	8dd5                	or	a1,a1,a3
   104e2:	02059693          	sll	a3,a1,0x20
   104e6:	8dd5                	or	a1,a1,a3
   104e8:	b759                	j	1046e <memset+0x10>
   104ea:	00279693          	sll	a3,a5,0x2
   104ee:	00000297          	auipc	t0,0x0
   104f2:	9696                	add	a3,a3,t0
   104f4:	8286                	mv	t0,ra
   104f6:	fa2680e7          	jalr	-94(a3)
   104fa:	8096                	mv	ra,t0
   104fc:	17c1                	add	a5,a5,-16
   104fe:	8f1d                	sub	a4,a4,a5
   10500:	963e                	add	a2,a2,a5
   10502:	f8c371e3          	bgeu	t1,a2,10484 <memset+0x26>
   10506:	b79d                	j	1046c <memset+0xe>

0000000000010508 <__call_exitprocs>:
   10508:	715d                	add	sp,sp,-80
   1050a:	f052                	sd	s4,32(sp)
   1050c:	f481ba03          	ld	s4,-184(gp) # 11e50 <_global_impure_ptr>
   10510:	f84a                	sd	s2,48(sp)
   10512:	e486                	sd	ra,72(sp)
   10514:	1f8a3903          	ld	s2,504(s4)
   10518:	e0a2                	sd	s0,64(sp)
   1051a:	fc26                	sd	s1,56(sp)
   1051c:	f44e                	sd	s3,40(sp)
   1051e:	ec56                	sd	s5,24(sp)
   10520:	e85a                	sd	s6,16(sp)
   10522:	e45e                	sd	s7,8(sp)
   10524:	e062                	sd	s8,0(sp)
   10526:	02090863          	beqz	s2,10556 <__call_exitprocs+0x4e>
   1052a:	8b2a                	mv	s6,a0
   1052c:	8bae                	mv	s7,a1
   1052e:	4a85                	li	s5,1
   10530:	59fd                	li	s3,-1
   10532:	00892483          	lw	s1,8(s2)
   10536:	fff4841b          	addw	s0,s1,-1
   1053a:	00044e63          	bltz	s0,10556 <__call_exitprocs+0x4e>
   1053e:	048e                	sll	s1,s1,0x3
   10540:	94ca                	add	s1,s1,s2
   10542:	020b8663          	beqz	s7,1056e <__call_exitprocs+0x66>
   10546:	2084b783          	ld	a5,520(s1)
   1054a:	03778263          	beq	a5,s7,1056e <__call_exitprocs+0x66>
   1054e:	347d                	addw	s0,s0,-1
   10550:	14e1                	add	s1,s1,-8
   10552:	ff3418e3          	bne	s0,s3,10542 <__call_exitprocs+0x3a>
   10556:	60a6                	ld	ra,72(sp)
   10558:	6406                	ld	s0,64(sp)
   1055a:	74e2                	ld	s1,56(sp)
   1055c:	7942                	ld	s2,48(sp)
   1055e:	79a2                	ld	s3,40(sp)
   10560:	7a02                	ld	s4,32(sp)
   10562:	6ae2                	ld	s5,24(sp)
   10564:	6b42                	ld	s6,16(sp)
   10566:	6ba2                	ld	s7,8(sp)
   10568:	6c02                	ld	s8,0(sp)
   1056a:	6161                	add	sp,sp,80
   1056c:	8082                	ret
   1056e:	00892783          	lw	a5,8(s2)
   10572:	6498                	ld	a4,8(s1)
   10574:	37fd                	addw	a5,a5,-1
   10576:	04878463          	beq	a5,s0,105be <__call_exitprocs+0xb6>
   1057a:	0004b423          	sd	zero,8(s1)
   1057e:	db61                	beqz	a4,1054e <__call_exitprocs+0x46>
   10580:	31092783          	lw	a5,784(s2)
   10584:	008a96bb          	sllw	a3,s5,s0
   10588:	00892c03          	lw	s8,8(s2)
   1058c:	8ff5                	and	a5,a5,a3
   1058e:	2781                	sext.w	a5,a5
   10590:	ef89                	bnez	a5,105aa <__call_exitprocs+0xa2>
   10592:	9702                	jalr	a4
   10594:	00892703          	lw	a4,8(s2)
   10598:	1f8a3783          	ld	a5,504(s4)
   1059c:	01871463          	bne	a4,s8,105a4 <__call_exitprocs+0x9c>
   105a0:	fb2787e3          	beq	a5,s2,1054e <__call_exitprocs+0x46>
   105a4:	dbcd                	beqz	a5,10556 <__call_exitprocs+0x4e>
   105a6:	893e                	mv	s2,a5
   105a8:	b769                	j	10532 <__call_exitprocs+0x2a>
   105aa:	31492783          	lw	a5,788(s2)
   105ae:	1084b583          	ld	a1,264(s1)
   105b2:	8ff5                	and	a5,a5,a3
   105b4:	2781                	sext.w	a5,a5
   105b6:	e799                	bnez	a5,105c4 <__call_exitprocs+0xbc>
   105b8:	855a                	mv	a0,s6
   105ba:	9702                	jalr	a4
   105bc:	bfe1                	j	10594 <__call_exitprocs+0x8c>
   105be:	00892423          	sw	s0,8(s2)
   105c2:	bf75                	j	1057e <__call_exitprocs+0x76>
   105c4:	852e                	mv	a0,a1
   105c6:	9702                	jalr	a4
   105c8:	b7f1                	j	10594 <__call_exitprocs+0x8c>

00000000000105ca <__libc_fini_array>:
   105ca:	1101                	add	sp,sp,-32
   105cc:	e822                	sd	s0,16(sp)
   105ce:	67c5                	lui	a5,0x11
   105d0:	6445                	lui	s0,0x11
   105d2:	70078793          	add	a5,a5,1792 # 11700 <__do_global_dtors_aux_fini_array_entry>
   105d6:	70840413          	add	s0,s0,1800 # 11708 <impure_data>
   105da:	8c1d                	sub	s0,s0,a5
   105dc:	e426                	sd	s1,8(sp)
   105de:	ec06                	sd	ra,24(sp)
   105e0:	40345493          	sra	s1,s0,0x3
   105e4:	c881                	beqz	s1,105f4 <__libc_fini_array+0x2a>
   105e6:	1461                	add	s0,s0,-8
   105e8:	943e                	add	s0,s0,a5
   105ea:	601c                	ld	a5,0(s0)
   105ec:	14fd                	add	s1,s1,-1
   105ee:	1461                	add	s0,s0,-8
   105f0:	9782                	jalr	a5
   105f2:	fce5                	bnez	s1,105ea <__libc_fini_array+0x20>
   105f4:	60e2                	ld	ra,24(sp)
   105f6:	6442                	ld	s0,16(sp)
   105f8:	64a2                	ld	s1,8(sp)
   105fa:	6105                	add	sp,sp,32
   105fc:	8082                	ret

00000000000105fe <atexit>:
   105fe:	85aa                	mv	a1,a0
   10600:	4681                	li	a3,0
   10602:	4601                	li	a2,0
   10604:	4501                	li	a0,0
   10606:	a009                	j	10608 <__register_exitproc>

0000000000010608 <__register_exitproc>:
   10608:	f481b703          	ld	a4,-184(gp) # 11e50 <_global_impure_ptr>
   1060c:	1f873783          	ld	a5,504(a4)
   10610:	c3b1                	beqz	a5,10654 <__register_exitproc+0x4c>
   10612:	4798                	lw	a4,8(a5)
   10614:	487d                	li	a6,31
   10616:	06e84263          	blt	a6,a4,1067a <__register_exitproc+0x72>
   1061a:	c505                	beqz	a0,10642 <__register_exitproc+0x3a>
   1061c:	00371813          	sll	a6,a4,0x3
   10620:	983e                	add	a6,a6,a5
   10622:	10c83823          	sd	a2,272(a6)
   10626:	3107a883          	lw	a7,784(a5)
   1062a:	4605                	li	a2,1
   1062c:	00e6163b          	sllw	a2,a2,a4
   10630:	00c8e8b3          	or	a7,a7,a2
   10634:	3117a823          	sw	a7,784(a5)
   10638:	20d83823          	sd	a3,528(a6)
   1063c:	4689                	li	a3,2
   1063e:	02d50063          	beq	a0,a3,1065e <__register_exitproc+0x56>
   10642:	00270693          	add	a3,a4,2
   10646:	068e                	sll	a3,a3,0x3
   10648:	2705                	addw	a4,a4,1
   1064a:	c798                	sw	a4,8(a5)
   1064c:	97b6                	add	a5,a5,a3
   1064e:	e38c                	sd	a1,0(a5)
   10650:	4501                	li	a0,0
   10652:	8082                	ret
   10654:	20070793          	add	a5,a4,512
   10658:	1ef73c23          	sd	a5,504(a4)
   1065c:	bf5d                	j	10612 <__register_exitproc+0xa>
   1065e:	3147a683          	lw	a3,788(a5)
   10662:	4501                	li	a0,0
   10664:	8ed1                	or	a3,a3,a2
   10666:	30d7aa23          	sw	a3,788(a5)
   1066a:	00270693          	add	a3,a4,2
   1066e:	068e                	sll	a3,a3,0x3
   10670:	2705                	addw	a4,a4,1
   10672:	c798                	sw	a4,8(a5)
   10674:	97b6                	add	a5,a5,a3
   10676:	e38c                	sd	a1,0(a5)
   10678:	8082                	ret
   1067a:	557d                	li	a0,-1
   1067c:	8082                	ret

000000000001067e <_exit>:
   1067e:	05d00893          	li	a7,93
   10682:	00000073          	ecall
   10686:	00054363          	bltz	a0,1068c <_exit+0xe>
   1068a:	a001                	j	1068a <_exit+0xc>
   1068c:	1141                	add	sp,sp,-16
   1068e:	e022                	sd	s0,0(sp)
   10690:	842a                	mv	s0,a0
   10692:	e406                	sd	ra,8(sp)
   10694:	4080043b          	negw	s0,s0
   10698:	008000ef          	jal	106a0 <__errno>
   1069c:	c100                	sw	s0,0(a0)
   1069e:	a001                	j	1069e <_exit+0x20>

00000000000106a0 <__errno>:
   106a0:	f581b503          	ld	a0,-168(gp) # 11e60 <_impure_ptr>
   106a4:	8082                	ret

slli.exe:     file format elf64-littleriscv


Disassembly of section .text:

00000000000100e8 <exit>:
   100e8:	1141                	add	sp,sp,-16
   100ea:	4581                	li	a1,0
   100ec:	e022                	sd	s0,0(sp)
   100ee:	e406                	sd	ra,8(sp)
   100f0:	842a                	mv	s0,a0
   100f2:	34a000ef          	jal	1043c <__call_exitprocs>
   100f6:	f481b503          	ld	a0,-184(gp) # 11d40 <_global_impure_ptr>
   100fa:	6d3c                	ld	a5,88(a0)
   100fc:	c391                	beqz	a5,10100 <exit+0x18>
   100fe:	9782                	jalr	a5
   10100:	8522                	mv	a0,s0
   10102:	4b0000ef          	jal	105b2 <_exit>

0000000000010106 <register_fini>:
   10106:	00000793          	li	a5,0
   1010a:	c789                	beqz	a5,10114 <register_fini+0xe>
   1010c:	6541                	lui	a0,0x10
   1010e:	4fe50513          	add	a0,a0,1278 # 104fe <__libc_fini_array>
   10112:	a105                	j	10532 <atexit>
   10114:	8082                	ret

0000000000010116 <_start>:
   10116:	00002197          	auipc	gp,0x2
   1011a:	ce218193          	add	gp,gp,-798 # 11df8 <__global_pointer$>
   1011e:	f6018513          	add	a0,gp,-160 # 11d58 <completed.1>
   10122:	f9818613          	add	a2,gp,-104 # 11d90 <__BSS_END__>
   10126:	8e09                	sub	a2,a2,a0
   10128:	4581                	li	a1,0
   1012a:	268000ef          	jal	10392 <memset>
   1012e:	00000517          	auipc	a0,0x0
   10132:	40450513          	add	a0,a0,1028 # 10532 <atexit>
   10136:	c519                	beqz	a0,10144 <_start+0x2e>
   10138:	00000517          	auipc	a0,0x0
   1013c:	3c650513          	add	a0,a0,966 # 104fe <__libc_fini_array>
   10140:	3f2000ef          	jal	10532 <atexit>
   10144:	1e4000ef          	jal	10328 <__libc_init_array>
   10148:	4502                	lw	a0,0(sp)
   1014a:	002c                	add	a1,sp,8
   1014c:	4601                	li	a2,0
   1014e:	04e000ef          	jal	1019c <main>
   10152:	bf59                	j	100e8 <exit>

0000000000010154 <__do_global_dtors_aux>:
   10154:	1141                	add	sp,sp,-16
   10156:	e022                	sd	s0,0(sp)
   10158:	f601c783          	lbu	a5,-160(gp) # 11d58 <completed.1>
   1015c:	e406                	sd	ra,8(sp)
   1015e:	ef91                	bnez	a5,1017a <__do_global_dtors_aux+0x26>
   10160:	00000793          	li	a5,0
   10164:	cb81                	beqz	a5,10174 <__do_global_dtors_aux+0x20>
   10166:	6545                	lui	a0,0x11
   10168:	5dc50513          	add	a0,a0,1500 # 115dc <__EH_FRAME_BEGIN__>
   1016c:	00000097          	auipc	ra,0x0
   10170:	000000e7          	jalr	zero # 0 <exit-0x100e8>
   10174:	4785                	li	a5,1
   10176:	f6f18023          	sb	a5,-160(gp) # 11d58 <completed.1>
   1017a:	60a2                	ld	ra,8(sp)
   1017c:	6402                	ld	s0,0(sp)
   1017e:	0141                	add	sp,sp,16
   10180:	8082                	ret

0000000000010182 <frame_dummy>:
   10182:	00000793          	li	a5,0
   10186:	cb91                	beqz	a5,1019a <frame_dummy+0x18>
   10188:	6545                	lui	a0,0x11
   1018a:	f6818593          	add	a1,gp,-152 # 11d60 <object.0>
   1018e:	5dc50513          	add	a0,a0,1500 # 115dc <__EH_FRAME_BEGIN__>
   10192:	00000317          	auipc	t1,0x0
   10196:	00000067          	jr	zero # 0 <exit-0x100e8>
   1019a:	8082                	ret

000000000001019c <main>:
   1019c:	1101                	add	sp,sp,-32
   1019e:	ec22                	sd	s0,24(sp)
   101a0:	1000                	add	s0,sp,32
   101a2:	87aa                	mv	a5,a0
   101a4:	feb43023          	sd	a1,-32(s0)
   101a8:	fef42623          	sw	a5,-20(s0)

00000000000101ac <test_2>:
   101ac:	4189                	li	gp,2
   101ae:	4085                	li	ra,1
   101b0:	00009713          	sll	a4,ra,0x0
   101b4:	4385                	li	t2,1
   101b6:	16771163          	bne	a4,t2,10318 <fail>

00000000000101ba <test_3>:
   101ba:	418d                	li	gp,3
   101bc:	4085                	li	ra,1
   101be:	00109713          	sll	a4,ra,0x1
   101c2:	4389                	li	t2,2
   101c4:	14771a63          	bne	a4,t2,10318 <fail>

00000000000101c8 <test_4>:
   101c8:	4191                	li	gp,4
   101ca:	4085                	li	ra,1
   101cc:	00709713          	sll	a4,ra,0x7
   101d0:	08000393          	li	t2,128
   101d4:	14771263          	bne	a4,t2,10318 <fail>

00000000000101d8 <test_5>:
   101d8:	4195                	li	gp,5
   101da:	4085                	li	ra,1
   101dc:	00e09713          	sll	a4,ra,0xe
   101e0:	6391                	lui	t2,0x4
   101e2:	12771b63          	bne	a4,t2,10318 <fail>

00000000000101e6 <test_6>:
   101e6:	4199                	li	gp,6
   101e8:	4085                	li	ra,1
   101ea:	01f09713          	sll	a4,ra,0x1f
   101ee:	0010039b          	addw	t2,zero,1
   101f2:	03fe                	sll	t2,t2,0x1f
   101f4:	12771263          	bne	a4,t2,10318 <fail>

00000000000101f8 <test_7>:
   101f8:	419d                	li	gp,7
   101fa:	50fd                	li	ra,-1
   101fc:	00009713          	sll	a4,ra,0x0
   10200:	53fd                	li	t2,-1
   10202:	10771b63          	bne	a4,t2,10318 <fail>

0000000000010206 <test_8>:
   10206:	41a1                	li	gp,8
   10208:	50fd                	li	ra,-1
   1020a:	00109713          	sll	a4,ra,0x1
   1020e:	53f9                	li	t2,-2
   10210:	10771463          	bne	a4,t2,10318 <fail>

0000000000010214 <test_9>:
   10214:	41a5                	li	gp,9
   10216:	50fd                	li	ra,-1
   10218:	00709713          	sll	a4,ra,0x7
   1021c:	f8000393          	li	t2,-128
   10220:	0e771c63          	bne	a4,t2,10318 <fail>

0000000000010224 <test_10>:
   10224:	41a9                	li	gp,10
   10226:	50fd                	li	ra,-1
   10228:	00e09713          	sll	a4,ra,0xe
   1022c:	73f1                	lui	t2,0xffffc
   1022e:	0e771563          	bne	a4,t2,10318 <fail>

0000000000010232 <test_11>:
   10232:	41ad                	li	gp,11
   10234:	50fd                	li	ra,-1
   10236:	01f09713          	sll	a4,ra,0x1f
   1023a:	800003b7          	lui	t2,0x80000
   1023e:	0c771d63          	bne	a4,t2,10318 <fail>

0000000000010242 <test_12>:
   10242:	41b1                	li	gp,12
   10244:	212120b7          	lui	ra,0x21212
   10248:	1210809b          	addw	ra,ra,289 # 21212121 <__global_pointer$+0x21200329>
   1024c:	00009713          	sll	a4,ra,0x0
   10250:	212123b7          	lui	t2,0x21212
   10254:	1213839b          	addw	t2,t2,289 # 21212121 <__global_pointer$+0x21200329>
   10258:	0c771063          	bne	a4,t2,10318 <fail>

000000000001025c <test_13>:
   1025c:	41b5                	li	gp,13
   1025e:	212120b7          	lui	ra,0x21212
   10262:	1210809b          	addw	ra,ra,289 # 21212121 <__global_pointer$+0x21200329>
   10266:	00109713          	sll	a4,ra,0x1
   1026a:	424243b7          	lui	t2,0x42424
   1026e:	2423839b          	addw	t2,t2,578 # 42424242 <__global_pointer$+0x4241244a>
   10272:	0a771363          	bne	a4,t2,10318 <fail>

0000000000010276 <test_14>:
   10276:	41b9                	li	gp,14
   10278:	212120b7          	lui	ra,0x21212
   1027c:	1210809b          	addw	ra,ra,289 # 21212121 <__global_pointer$+0x21200329>
   10280:	00709713          	sll	a4,ra,0x7
   10284:	010913b7          	lui	t2,0x1091
   10288:	9093839b          	addw	t2,t2,-1783 # 1090909 <__global_pointer$+0x107eb11>
   1028c:	03b2                	sll	t2,t2,0xc
   1028e:	08038393          	add	t2,t2,128
   10292:	08771363          	bne	a4,t2,10318 <fail>

0000000000010296 <test_15>:
   10296:	41bd                	li	gp,15
   10298:	212120b7          	lui	ra,0x21212
   1029c:	1210809b          	addw	ra,ra,289 # 21212121 <__global_pointer$+0x21200329>
   102a0:	00e09713          	sll	a4,ra,0xe
   102a4:	212123b7          	lui	t2,0x21212
   102a8:	1213839b          	addw	t2,t2,289 # 21212121 <__global_pointer$+0x21200329>
   102ac:	03ba                	sll	t2,t2,0xe
   102ae:	06771563          	bne	a4,t2,10318 <fail>

00000000000102b2 <test_16>:
   102b2:	41c1                	li	gp,16
   102b4:	212120b7          	lui	ra,0x21212
   102b8:	1210809b          	addw	ra,ra,289 # 21212121 <__global_pointer$+0x21200329>
   102bc:	01f09713          	sll	a4,ra,0x1f
   102c0:	212123b7          	lui	t2,0x21212
   102c4:	1213839b          	addw	t2,t2,289 # 21212121 <__global_pointer$+0x21200329>
   102c8:	03fe                	sll	t2,t2,0x1f
   102ca:	04771763          	bne	a4,t2,10318 <fail>

00000000000102ce <test_50>:
   102ce:	03200193          	li	gp,50
   102d2:	4085                	li	ra,1
   102d4:	03f09713          	sll	a4,ra,0x3f
   102d8:	fff0039b          	addw	t2,zero,-1
   102dc:	13fe                	sll	t2,t2,0x3f
   102de:	02771d63          	bne	a4,t2,10318 <fail>

00000000000102e2 <test_51>:
   102e2:	03300193          	li	gp,51
   102e6:	50fd                	li	ra,-1
   102e8:	02709713          	sll	a4,ra,0x27
   102ec:	fff0039b          	addw	t2,zero,-1
   102f0:	139e                	sll	t2,t2,0x27
   102f2:	02771363          	bne	a4,t2,10318 <fail>

00000000000102f6 <test_52>:
   102f6:	03400193          	li	gp,52
   102fa:	212120b7          	lui	ra,0x21212
   102fe:	1210809b          	addw	ra,ra,289 # 21212121 <__global_pointer$+0x21200329>
   10302:	02b09713          	sll	a4,ra,0x2b
   10306:	63c9                	lui	t2,0x12
   10308:	1213839b          	addw	t2,t2,289 # 12121 <__global_pointer$+0x329>
   1030c:	13ae                	sll	t2,t2,0x2b
   1030e:	00771563          	bne	a4,t2,10318 <fail>
   10312:	00301263          	bne	zero,gp,10316 <pass>

0000000000010316 <pass>:
   10316:	a019                	j	1031c <continue>

0000000000010318 <fail>:
   10318:	00000000          	.word	0x00000000

000000000001031c <continue>:
   1031c:	4081                	li	ra,0
   1031e:	4781                	li	a5,0
   10320:	853e                	mv	a0,a5
   10322:	6462                	ld	s0,24(sp)
   10324:	6105                	add	sp,sp,32
   10326:	8082                	ret

0000000000010328 <__libc_init_array>:
   10328:	1101                	add	sp,sp,-32
   1032a:	e822                	sd	s0,16(sp)
   1032c:	67c5                	lui	a5,0x11
   1032e:	6445                	lui	s0,0x11
   10330:	e04a                	sd	s2,0(sp)
   10332:	5e078793          	add	a5,a5,1504 # 115e0 <__init_array_start>
   10336:	5e040713          	add	a4,s0,1504 # 115e0 <__init_array_start>
   1033a:	ec06                	sd	ra,24(sp)
   1033c:	e426                	sd	s1,8(sp)
   1033e:	40e78933          	sub	s2,a5,a4
   10342:	00e78d63          	beq	a5,a4,1035c <__libc_init_array+0x34>
   10346:	40395913          	sra	s2,s2,0x3
   1034a:	5e040413          	add	s0,s0,1504
   1034e:	4481                	li	s1,0
   10350:	601c                	ld	a5,0(s0)
   10352:	0485                	add	s1,s1,1
   10354:	0421                	add	s0,s0,8
   10356:	9782                	jalr	a5
   10358:	ff24ece3          	bltu	s1,s2,10350 <__libc_init_array+0x28>
   1035c:	6445                	lui	s0,0x11
   1035e:	67c5                	lui	a5,0x11
   10360:	5f078793          	add	a5,a5,1520 # 115f0 <__do_global_dtors_aux_fini_array_entry>
   10364:	5e040713          	add	a4,s0,1504 # 115e0 <__init_array_start>
   10368:	40e78933          	sub	s2,a5,a4
   1036c:	40395913          	sra	s2,s2,0x3
   10370:	00e78b63          	beq	a5,a4,10386 <__libc_init_array+0x5e>
   10374:	5e040413          	add	s0,s0,1504
   10378:	4481                	li	s1,0
   1037a:	601c                	ld	a5,0(s0)
   1037c:	0485                	add	s1,s1,1
   1037e:	0421                	add	s0,s0,8
   10380:	9782                	jalr	a5
   10382:	ff24ece3          	bltu	s1,s2,1037a <__libc_init_array+0x52>
   10386:	60e2                	ld	ra,24(sp)
   10388:	6442                	ld	s0,16(sp)
   1038a:	64a2                	ld	s1,8(sp)
   1038c:	6902                	ld	s2,0(sp)
   1038e:	6105                	add	sp,sp,32
   10390:	8082                	ret

0000000000010392 <memset>:
   10392:	433d                	li	t1,15
   10394:	872a                	mv	a4,a0
   10396:	02c37163          	bgeu	t1,a2,103b8 <memset+0x26>
   1039a:	00f77793          	and	a5,a4,15
   1039e:	e3c1                	bnez	a5,1041e <memset+0x8c>
   103a0:	e1bd                	bnez	a1,10406 <memset+0x74>
   103a2:	ff067693          	and	a3,a2,-16
   103a6:	8a3d                	and	a2,a2,15
   103a8:	96ba                	add	a3,a3,a4
   103aa:	e30c                	sd	a1,0(a4)
   103ac:	e70c                	sd	a1,8(a4)
   103ae:	0741                	add	a4,a4,16
   103b0:	fed76de3          	bltu	a4,a3,103aa <memset+0x18>
   103b4:	e211                	bnez	a2,103b8 <memset+0x26>
   103b6:	8082                	ret
   103b8:	40c306b3          	sub	a3,t1,a2
   103bc:	068a                	sll	a3,a3,0x2
   103be:	00000297          	auipc	t0,0x0
   103c2:	9696                	add	a3,a3,t0
   103c4:	00a68067          	jr	10(a3)
   103c8:	00b70723          	sb	a1,14(a4)
   103cc:	00b706a3          	sb	a1,13(a4)
   103d0:	00b70623          	sb	a1,12(a4)
   103d4:	00b705a3          	sb	a1,11(a4)
   103d8:	00b70523          	sb	a1,10(a4)
   103dc:	00b704a3          	sb	a1,9(a4)
   103e0:	00b70423          	sb	a1,8(a4)
   103e4:	00b703a3          	sb	a1,7(a4)
   103e8:	00b70323          	sb	a1,6(a4)
   103ec:	00b702a3          	sb	a1,5(a4)
   103f0:	00b70223          	sb	a1,4(a4)
   103f4:	00b701a3          	sb	a1,3(a4)
   103f8:	00b70123          	sb	a1,2(a4)
   103fc:	00b700a3          	sb	a1,1(a4)
   10400:	00b70023          	sb	a1,0(a4)
   10404:	8082                	ret
   10406:	0ff5f593          	zext.b	a1,a1
   1040a:	00859693          	sll	a3,a1,0x8
   1040e:	8dd5                	or	a1,a1,a3
   10410:	01059693          	sll	a3,a1,0x10
   10414:	8dd5                	or	a1,a1,a3
   10416:	02059693          	sll	a3,a1,0x20
   1041a:	8dd5                	or	a1,a1,a3
   1041c:	b759                	j	103a2 <memset+0x10>
   1041e:	00279693          	sll	a3,a5,0x2
   10422:	00000297          	auipc	t0,0x0
   10426:	9696                	add	a3,a3,t0
   10428:	8286                	mv	t0,ra
   1042a:	fa2680e7          	jalr	-94(a3)
   1042e:	8096                	mv	ra,t0
   10430:	17c1                	add	a5,a5,-16
   10432:	8f1d                	sub	a4,a4,a5
   10434:	963e                	add	a2,a2,a5
   10436:	f8c371e3          	bgeu	t1,a2,103b8 <memset+0x26>
   1043a:	b79d                	j	103a0 <memset+0xe>

000000000001043c <__call_exitprocs>:
   1043c:	715d                	add	sp,sp,-80
   1043e:	f052                	sd	s4,32(sp)
   10440:	f481ba03          	ld	s4,-184(gp) # 11d40 <_global_impure_ptr>
   10444:	f84a                	sd	s2,48(sp)
   10446:	e486                	sd	ra,72(sp)
   10448:	1f8a3903          	ld	s2,504(s4)
   1044c:	e0a2                	sd	s0,64(sp)
   1044e:	fc26                	sd	s1,56(sp)
   10450:	f44e                	sd	s3,40(sp)
   10452:	ec56                	sd	s5,24(sp)
   10454:	e85a                	sd	s6,16(sp)
   10456:	e45e                	sd	s7,8(sp)
   10458:	e062                	sd	s8,0(sp)
   1045a:	02090863          	beqz	s2,1048a <__call_exitprocs+0x4e>
   1045e:	8b2a                	mv	s6,a0
   10460:	8bae                	mv	s7,a1
   10462:	4a85                	li	s5,1
   10464:	59fd                	li	s3,-1
   10466:	00892483          	lw	s1,8(s2)
   1046a:	fff4841b          	addw	s0,s1,-1
   1046e:	00044e63          	bltz	s0,1048a <__call_exitprocs+0x4e>
   10472:	048e                	sll	s1,s1,0x3
   10474:	94ca                	add	s1,s1,s2
   10476:	020b8663          	beqz	s7,104a2 <__call_exitprocs+0x66>
   1047a:	2084b783          	ld	a5,520(s1)
   1047e:	03778263          	beq	a5,s7,104a2 <__call_exitprocs+0x66>
   10482:	347d                	addw	s0,s0,-1
   10484:	14e1                	add	s1,s1,-8
   10486:	ff3418e3          	bne	s0,s3,10476 <__call_exitprocs+0x3a>
   1048a:	60a6                	ld	ra,72(sp)
   1048c:	6406                	ld	s0,64(sp)
   1048e:	74e2                	ld	s1,56(sp)
   10490:	7942                	ld	s2,48(sp)
   10492:	79a2                	ld	s3,40(sp)
   10494:	7a02                	ld	s4,32(sp)
   10496:	6ae2                	ld	s5,24(sp)
   10498:	6b42                	ld	s6,16(sp)
   1049a:	6ba2                	ld	s7,8(sp)
   1049c:	6c02                	ld	s8,0(sp)
   1049e:	6161                	add	sp,sp,80
   104a0:	8082                	ret
   104a2:	00892783          	lw	a5,8(s2)
   104a6:	6498                	ld	a4,8(s1)
   104a8:	37fd                	addw	a5,a5,-1
   104aa:	04878463          	beq	a5,s0,104f2 <__call_exitprocs+0xb6>
   104ae:	0004b423          	sd	zero,8(s1)
   104b2:	db61                	beqz	a4,10482 <__call_exitprocs+0x46>
   104b4:	31092783          	lw	a5,784(s2)
   104b8:	008a96bb          	sllw	a3,s5,s0
   104bc:	00892c03          	lw	s8,8(s2)
   104c0:	8ff5                	and	a5,a5,a3
   104c2:	2781                	sext.w	a5,a5
   104c4:	ef89                	bnez	a5,104de <__call_exitprocs+0xa2>
   104c6:	9702                	jalr	a4
   104c8:	00892703          	lw	a4,8(s2)
   104cc:	1f8a3783          	ld	a5,504(s4)
   104d0:	01871463          	bne	a4,s8,104d8 <__call_exitprocs+0x9c>
   104d4:	fb2787e3          	beq	a5,s2,10482 <__call_exitprocs+0x46>
   104d8:	dbcd                	beqz	a5,1048a <__call_exitprocs+0x4e>
   104da:	893e                	mv	s2,a5
   104dc:	b769                	j	10466 <__call_exitprocs+0x2a>
   104de:	31492783          	lw	a5,788(s2)
   104e2:	1084b583          	ld	a1,264(s1)
   104e6:	8ff5                	and	a5,a5,a3
   104e8:	2781                	sext.w	a5,a5
   104ea:	e799                	bnez	a5,104f8 <__call_exitprocs+0xbc>
   104ec:	855a                	mv	a0,s6
   104ee:	9702                	jalr	a4
   104f0:	bfe1                	j	104c8 <__call_exitprocs+0x8c>
   104f2:	00892423          	sw	s0,8(s2)
   104f6:	bf75                	j	104b2 <__call_exitprocs+0x76>
   104f8:	852e                	mv	a0,a1
   104fa:	9702                	jalr	a4
   104fc:	b7f1                	j	104c8 <__call_exitprocs+0x8c>

00000000000104fe <__libc_fini_array>:
   104fe:	1101                	add	sp,sp,-32
   10500:	e822                	sd	s0,16(sp)
   10502:	67c5                	lui	a5,0x11
   10504:	6445                	lui	s0,0x11
   10506:	5f078793          	add	a5,a5,1520 # 115f0 <__do_global_dtors_aux_fini_array_entry>
   1050a:	5f840413          	add	s0,s0,1528 # 115f8 <impure_data>
   1050e:	8c1d                	sub	s0,s0,a5
   10510:	e426                	sd	s1,8(sp)
   10512:	ec06                	sd	ra,24(sp)
   10514:	40345493          	sra	s1,s0,0x3
   10518:	c881                	beqz	s1,10528 <__libc_fini_array+0x2a>
   1051a:	1461                	add	s0,s0,-8
   1051c:	943e                	add	s0,s0,a5
   1051e:	601c                	ld	a5,0(s0)
   10520:	14fd                	add	s1,s1,-1
   10522:	1461                	add	s0,s0,-8
   10524:	9782                	jalr	a5
   10526:	fce5                	bnez	s1,1051e <__libc_fini_array+0x20>
   10528:	60e2                	ld	ra,24(sp)
   1052a:	6442                	ld	s0,16(sp)
   1052c:	64a2                	ld	s1,8(sp)
   1052e:	6105                	add	sp,sp,32
   10530:	8082                	ret

0000000000010532 <atexit>:
   10532:	85aa                	mv	a1,a0
   10534:	4681                	li	a3,0
   10536:	4601                	li	a2,0
   10538:	4501                	li	a0,0
   1053a:	a009                	j	1053c <__register_exitproc>

000000000001053c <__register_exitproc>:
   1053c:	f481b703          	ld	a4,-184(gp) # 11d40 <_global_impure_ptr>
   10540:	1f873783          	ld	a5,504(a4)
   10544:	c3b1                	beqz	a5,10588 <__register_exitproc+0x4c>
   10546:	4798                	lw	a4,8(a5)
   10548:	487d                	li	a6,31
   1054a:	06e84263          	blt	a6,a4,105ae <__register_exitproc+0x72>
   1054e:	c505                	beqz	a0,10576 <__register_exitproc+0x3a>
   10550:	00371813          	sll	a6,a4,0x3
   10554:	983e                	add	a6,a6,a5
   10556:	10c83823          	sd	a2,272(a6)
   1055a:	3107a883          	lw	a7,784(a5)
   1055e:	4605                	li	a2,1
   10560:	00e6163b          	sllw	a2,a2,a4
   10564:	00c8e8b3          	or	a7,a7,a2
   10568:	3117a823          	sw	a7,784(a5)
   1056c:	20d83823          	sd	a3,528(a6)
   10570:	4689                	li	a3,2
   10572:	02d50063          	beq	a0,a3,10592 <__register_exitproc+0x56>
   10576:	00270693          	add	a3,a4,2
   1057a:	068e                	sll	a3,a3,0x3
   1057c:	2705                	addw	a4,a4,1
   1057e:	c798                	sw	a4,8(a5)
   10580:	97b6                	add	a5,a5,a3
   10582:	e38c                	sd	a1,0(a5)
   10584:	4501                	li	a0,0
   10586:	8082                	ret
   10588:	20070793          	add	a5,a4,512
   1058c:	1ef73c23          	sd	a5,504(a4)
   10590:	bf5d                	j	10546 <__register_exitproc+0xa>
   10592:	3147a683          	lw	a3,788(a5)
   10596:	4501                	li	a0,0
   10598:	8ed1                	or	a3,a3,a2
   1059a:	30d7aa23          	sw	a3,788(a5)
   1059e:	00270693          	add	a3,a4,2
   105a2:	068e                	sll	a3,a3,0x3
   105a4:	2705                	addw	a4,a4,1
   105a6:	c798                	sw	a4,8(a5)
   105a8:	97b6                	add	a5,a5,a3
   105aa:	e38c                	sd	a1,0(a5)
   105ac:	8082                	ret
   105ae:	557d                	li	a0,-1
   105b0:	8082                	ret

00000000000105b2 <_exit>:
   105b2:	05d00893          	li	a7,93
   105b6:	00000073          	ecall
   105ba:	00054363          	bltz	a0,105c0 <_exit+0xe>
   105be:	a001                	j	105be <_exit+0xc>
   105c0:	1141                	add	sp,sp,-16
   105c2:	e022                	sd	s0,0(sp)
   105c4:	842a                	mv	s0,a0
   105c6:	e406                	sd	ra,8(sp)
   105c8:	4080043b          	negw	s0,s0
   105cc:	008000ef          	jal	105d4 <__errno>
   105d0:	c100                	sw	s0,0(a0)
   105d2:	a001                	j	105d2 <_exit+0x20>

00000000000105d4 <__errno>:
   105d4:	f581b503          	ld	a0,-168(gp) # 11d50 <_impure_ptr>
   105d8:	8082                	ret

f_ldst.exe:     file format elf64-littleriscv


Disassembly of section .text:

00000000000100e8 <exit>:
   100e8:	1141                	add	sp,sp,-16
   100ea:	4581                	li	a1,0
   100ec:	e022                	sd	s0,0(sp)
   100ee:	e406                	sd	ra,8(sp)
   100f0:	842a                	mv	s0,a0
   100f2:	238000ef          	jal	1032a <__call_exitprocs>
   100f6:	fd81b503          	ld	a0,-40(gp) # 11cc8 <_global_impure_ptr>
   100fa:	6d3c                	ld	a5,88(a0)
   100fc:	c391                	beqz	a5,10100 <exit+0x18>
   100fe:	9782                	jalr	a5
   10100:	8522                	mv	a0,s0
   10102:	39e000ef          	jal	104a0 <_exit>

0000000000010106 <register_fini>:
   10106:	00000793          	li	a5,0
   1010a:	c789                	beqz	a5,10114 <register_fini+0xe>
   1010c:	6541                	lui	a0,0x10
   1010e:	3ec50513          	add	a0,a0,1004 # 103ec <__libc_fini_array>
   10112:	a639                	j	10420 <atexit>
   10114:	8082                	ret

0000000000010116 <_start>:
   10116:	00002197          	auipc	gp,0x2
   1011a:	bda18193          	add	gp,gp,-1062 # 11cf0 <__global_pointer$>
   1011e:	ff018513          	add	a0,gp,-16 # 11ce0 <completed.1>
   10122:	02818613          	add	a2,gp,40 # 11d18 <__BSS_END__>
   10126:	8e09                	sub	a2,a2,a0
   10128:	4581                	li	a1,0
   1012a:	156000ef          	jal	10280 <memset>
   1012e:	00000517          	auipc	a0,0x0
   10132:	2f250513          	add	a0,a0,754 # 10420 <atexit>
   10136:	c519                	beqz	a0,10144 <_start+0x2e>
   10138:	00000517          	auipc	a0,0x0
   1013c:	2b450513          	add	a0,a0,692 # 103ec <__libc_fini_array>
   10140:	2e0000ef          	jal	10420 <atexit>
   10144:	0d2000ef          	jal	10216 <__libc_init_array>
   10148:	4502                	lw	a0,0(sp)
   1014a:	002c                	add	a1,sp,8
   1014c:	4601                	li	a2,0
   1014e:	04e000ef          	jal	1019c <main>
   10152:	bf59                	j	100e8 <exit>

0000000000010154 <__do_global_dtors_aux>:
   10154:	1141                	add	sp,sp,-16
   10156:	e022                	sd	s0,0(sp)
   10158:	ff01c783          	lbu	a5,-16(gp) # 11ce0 <completed.1>
   1015c:	e406                	sd	ra,8(sp)
   1015e:	ef91                	bnez	a5,1017a <__do_global_dtors_aux+0x26>
   10160:	00000793          	li	a5,0
   10164:	cb81                	beqz	a5,10174 <__do_global_dtors_aux+0x20>
   10166:	6545                	lui	a0,0x11
   10168:	4c850513          	add	a0,a0,1224 # 114c8 <__EH_FRAME_BEGIN__>
   1016c:	00000097          	auipc	ra,0x0
   10170:	000000e7          	jalr	zero # 0 <exit-0x100e8>
   10174:	4785                	li	a5,1
   10176:	fef18823          	sb	a5,-16(gp) # 11ce0 <completed.1>
   1017a:	60a2                	ld	ra,8(sp)
   1017c:	6402                	ld	s0,0(sp)
   1017e:	0141                	add	sp,sp,16
   10180:	8082                	ret

0000000000010182 <frame_dummy>:
   10182:	00000793          	li	a5,0
   10186:	cb91                	beqz	a5,1019a <frame_dummy+0x18>
   10188:	6545                	lui	a0,0x11
   1018a:	ff818593          	add	a1,gp,-8 # 11ce8 <object.0>
   1018e:	4c850513          	add	a0,a0,1224 # 114c8 <__EH_FRAME_BEGIN__>
   10192:	00000317          	auipc	t1,0x0
   10196:	00000067          	jr	zero # 0 <exit-0x100e8>
   1019a:	8082                	ret

000000000001019c <main>:
   1019c:	1101                	add	sp,sp,-32
   1019e:	ec22                	sd	s0,24(sp)
   101a0:	1000                	add	s0,sp,32
   101a2:	87aa                	mv	a5,a0
   101a4:	feb43023          	sd	a1,-32(s0)
   101a8:	fef42623          	sw	a5,-20(s0)

00000000000101ac <test_2>:
   101ac:	4189                	li	gp,2
   101ae:	00001597          	auipc	a1,0x1
   101b2:	34258593          	add	a1,a1,834 # 114f0 <__DATA_BEGIN__>
   101b6:	0045a087          	flw	ft1,4(a1)
   101ba:	0015aa27          	fsw	ft1,20(a1)
   101be:	6988                	ld	a0,16(a1)
   101c0:	0010039b          	addw	t2,zero,1
   101c4:	1386                	sll	t2,t2,0x21
   101c6:	039d                	add	t2,t2,7
   101c8:	03be                	sll	t2,t2,0xf
   101ca:	ab738393          	add	t2,t2,-1353
   101ce:	03ba                	sll	t2,t2,0xe
   101d0:	eef38393          	add	t2,t2,-273
   101d4:	02751963          	bne	a0,t2,10206 <fail>

00000000000101d8 <test_3>:
   101d8:	418d                	li	gp,3
   101da:	00001597          	auipc	a1,0x1
   101de:	31658593          	add	a1,a1,790 # 114f0 <__DATA_BEGIN__>
   101e2:	0005a087          	flw	ft1,0(a1)
   101e6:	0015ac27          	fsw	ft1,24(a1)
   101ea:	6d88                	ld	a0,24(a1)
   101ec:	013383b7          	lui	t2,0x1338
   101f0:	d013839b          	addw	t2,t2,-767 # 1337d01 <__BSS_END__+0x1325fe9>
   101f4:	03b6                	sll	t2,t2,0xd
   101f6:	b7f38393          	add	t2,t2,-1153
   101fa:	03de                	sll	t2,t2,0x17
   101fc:	00751563          	bne	a0,t2,10206 <fail>
   10200:	00301263          	bne	zero,gp,10204 <pass>

0000000000010204 <pass>:
   10204:	a019                	j	1020a <continue>

0000000000010206 <fail>:
   10206:	0000                	unimp
	...

000000000001020a <continue>:
   1020a:	4081                	li	ra,0
   1020c:	4781                	li	a5,0
   1020e:	853e                	mv	a0,a5
   10210:	6462                	ld	s0,24(sp)
   10212:	6105                	add	sp,sp,32
   10214:	8082                	ret

0000000000010216 <__libc_init_array>:
   10216:	1101                	add	sp,sp,-32
   10218:	e822                	sd	s0,16(sp)
   1021a:	67c5                	lui	a5,0x11
   1021c:	6445                	lui	s0,0x11
   1021e:	e04a                	sd	s2,0(sp)
   10220:	4cc78793          	add	a5,a5,1228 # 114cc <__preinit_array_end>
   10224:	4cc40713          	add	a4,s0,1228 # 114cc <__preinit_array_end>
   10228:	ec06                	sd	ra,24(sp)
   1022a:	e426                	sd	s1,8(sp)
   1022c:	40e78933          	sub	s2,a5,a4
   10230:	00e78d63          	beq	a5,a4,1024a <__libc_init_array+0x34>
   10234:	40395913          	sra	s2,s2,0x3
   10238:	4cc40413          	add	s0,s0,1228
   1023c:	4481                	li	s1,0
   1023e:	601c                	ld	a5,0(s0)
   10240:	0485                	add	s1,s1,1
   10242:	0421                	add	s0,s0,8
   10244:	9782                	jalr	a5
   10246:	ff24ece3          	bltu	s1,s2,1023e <__libc_init_array+0x28>
   1024a:	6445                	lui	s0,0x11
   1024c:	67c5                	lui	a5,0x11
   1024e:	4e078793          	add	a5,a5,1248 # 114e0 <__do_global_dtors_aux_fini_array_entry>
   10252:	4d040713          	add	a4,s0,1232 # 114d0 <__init_array_start>
   10256:	40e78933          	sub	s2,a5,a4
   1025a:	40395913          	sra	s2,s2,0x3
   1025e:	00e78b63          	beq	a5,a4,10274 <__libc_init_array+0x5e>
   10262:	4d040413          	add	s0,s0,1232
   10266:	4481                	li	s1,0
   10268:	601c                	ld	a5,0(s0)
   1026a:	0485                	add	s1,s1,1
   1026c:	0421                	add	s0,s0,8
   1026e:	9782                	jalr	a5
   10270:	ff24ece3          	bltu	s1,s2,10268 <__libc_init_array+0x52>
   10274:	60e2                	ld	ra,24(sp)
   10276:	6442                	ld	s0,16(sp)
   10278:	64a2                	ld	s1,8(sp)
   1027a:	6902                	ld	s2,0(sp)
   1027c:	6105                	add	sp,sp,32
   1027e:	8082                	ret

0000000000010280 <memset>:
   10280:	433d                	li	t1,15
   10282:	872a                	mv	a4,a0
   10284:	02c37163          	bgeu	t1,a2,102a6 <memset+0x26>
   10288:	00f77793          	and	a5,a4,15
   1028c:	e3c1                	bnez	a5,1030c <memset+0x8c>
   1028e:	e1bd                	bnez	a1,102f4 <memset+0x74>
   10290:	ff067693          	and	a3,a2,-16
   10294:	8a3d                	and	a2,a2,15
   10296:	96ba                	add	a3,a3,a4
   10298:	e30c                	sd	a1,0(a4)
   1029a:	e70c                	sd	a1,8(a4)
   1029c:	0741                	add	a4,a4,16
   1029e:	fed76de3          	bltu	a4,a3,10298 <memset+0x18>
   102a2:	e211                	bnez	a2,102a6 <memset+0x26>
   102a4:	8082                	ret
   102a6:	40c306b3          	sub	a3,t1,a2
   102aa:	068a                	sll	a3,a3,0x2
   102ac:	00000297          	auipc	t0,0x0
   102b0:	9696                	add	a3,a3,t0
   102b2:	00a68067          	jr	10(a3)
   102b6:	00b70723          	sb	a1,14(a4)
   102ba:	00b706a3          	sb	a1,13(a4)
   102be:	00b70623          	sb	a1,12(a4)
   102c2:	00b705a3          	sb	a1,11(a4)
   102c6:	00b70523          	sb	a1,10(a4)
   102ca:	00b704a3          	sb	a1,9(a4)
   102ce:	00b70423          	sb	a1,8(a4)
   102d2:	00b703a3          	sb	a1,7(a4)
   102d6:	00b70323          	sb	a1,6(a4)
   102da:	00b702a3          	sb	a1,5(a4)
   102de:	00b70223          	sb	a1,4(a4)
   102e2:	00b701a3          	sb	a1,3(a4)
   102e6:	00b70123          	sb	a1,2(a4)
   102ea:	00b700a3          	sb	a1,1(a4)
   102ee:	00b70023          	sb	a1,0(a4)
   102f2:	8082                	ret
   102f4:	0ff5f593          	zext.b	a1,a1
   102f8:	00859693          	sll	a3,a1,0x8
   102fc:	8dd5                	or	a1,a1,a3
   102fe:	01059693          	sll	a3,a1,0x10
   10302:	8dd5                	or	a1,a1,a3
   10304:	02059693          	sll	a3,a1,0x20
   10308:	8dd5                	or	a1,a1,a3
   1030a:	b759                	j	10290 <memset+0x10>
   1030c:	00279693          	sll	a3,a5,0x2
   10310:	00000297          	auipc	t0,0x0
   10314:	9696                	add	a3,a3,t0
   10316:	8286                	mv	t0,ra
   10318:	fa2680e7          	jalr	-94(a3)
   1031c:	8096                	mv	ra,t0
   1031e:	17c1                	add	a5,a5,-16
   10320:	8f1d                	sub	a4,a4,a5
   10322:	963e                	add	a2,a2,a5
   10324:	f8c371e3          	bgeu	t1,a2,102a6 <memset+0x26>
   10328:	b79d                	j	1028e <memset+0xe>

000000000001032a <__call_exitprocs>:
   1032a:	715d                	add	sp,sp,-80
   1032c:	f052                	sd	s4,32(sp)
   1032e:	fd81ba03          	ld	s4,-40(gp) # 11cc8 <_global_impure_ptr>
   10332:	f84a                	sd	s2,48(sp)
   10334:	e486                	sd	ra,72(sp)
   10336:	1f8a3903          	ld	s2,504(s4)
   1033a:	e0a2                	sd	s0,64(sp)
   1033c:	fc26                	sd	s1,56(sp)
   1033e:	f44e                	sd	s3,40(sp)
   10340:	ec56                	sd	s5,24(sp)
   10342:	e85a                	sd	s6,16(sp)
   10344:	e45e                	sd	s7,8(sp)
   10346:	e062                	sd	s8,0(sp)
   10348:	02090863          	beqz	s2,10378 <__call_exitprocs+0x4e>
   1034c:	8b2a                	mv	s6,a0
   1034e:	8bae                	mv	s7,a1
   10350:	4a85                	li	s5,1
   10352:	59fd                	li	s3,-1
   10354:	00892483          	lw	s1,8(s2)
   10358:	fff4841b          	addw	s0,s1,-1
   1035c:	00044e63          	bltz	s0,10378 <__call_exitprocs+0x4e>
   10360:	048e                	sll	s1,s1,0x3
   10362:	94ca                	add	s1,s1,s2
   10364:	020b8663          	beqz	s7,10390 <__call_exitprocs+0x66>
   10368:	2084b783          	ld	a5,520(s1)
   1036c:	03778263          	beq	a5,s7,10390 <__call_exitprocs+0x66>
   10370:	347d                	addw	s0,s0,-1
   10372:	14e1                	add	s1,s1,-8
   10374:	ff3418e3          	bne	s0,s3,10364 <__call_exitprocs+0x3a>
   10378:	60a6                	ld	ra,72(sp)
   1037a:	6406                	ld	s0,64(sp)
   1037c:	74e2                	ld	s1,56(sp)
   1037e:	7942                	ld	s2,48(sp)
   10380:	79a2                	ld	s3,40(sp)
   10382:	7a02                	ld	s4,32(sp)
   10384:	6ae2                	ld	s5,24(sp)
   10386:	6b42                	ld	s6,16(sp)
   10388:	6ba2                	ld	s7,8(sp)
   1038a:	6c02                	ld	s8,0(sp)
   1038c:	6161                	add	sp,sp,80
   1038e:	8082                	ret
   10390:	00892783          	lw	a5,8(s2)
   10394:	6498                	ld	a4,8(s1)
   10396:	37fd                	addw	a5,a5,-1
   10398:	04878463          	beq	a5,s0,103e0 <__call_exitprocs+0xb6>
   1039c:	0004b423          	sd	zero,8(s1)
   103a0:	db61                	beqz	a4,10370 <__call_exitprocs+0x46>
   103a2:	31092783          	lw	a5,784(s2)
   103a6:	008a96bb          	sllw	a3,s5,s0
   103aa:	00892c03          	lw	s8,8(s2)
   103ae:	8ff5                	and	a5,a5,a3
   103b0:	2781                	sext.w	a5,a5
   103b2:	ef89                	bnez	a5,103cc <__call_exitprocs+0xa2>
   103b4:	9702                	jalr	a4
   103b6:	00892703          	lw	a4,8(s2)
   103ba:	1f8a3783          	ld	a5,504(s4)
   103be:	01871463          	bne	a4,s8,103c6 <__call_exitprocs+0x9c>
   103c2:	fb2787e3          	beq	a5,s2,10370 <__call_exitprocs+0x46>
   103c6:	dbcd                	beqz	a5,10378 <__call_exitprocs+0x4e>
   103c8:	893e                	mv	s2,a5
   103ca:	b769                	j	10354 <__call_exitprocs+0x2a>
   103cc:	31492783          	lw	a5,788(s2)
   103d0:	1084b583          	ld	a1,264(s1)
   103d4:	8ff5                	and	a5,a5,a3
   103d6:	2781                	sext.w	a5,a5
   103d8:	e799                	bnez	a5,103e6 <__call_exitprocs+0xbc>
   103da:	855a                	mv	a0,s6
   103dc:	9702                	jalr	a4
   103de:	bfe1                	j	103b6 <__call_exitprocs+0x8c>
   103e0:	00892423          	sw	s0,8(s2)
   103e4:	bf75                	j	103a0 <__call_exitprocs+0x76>
   103e6:	852e                	mv	a0,a1
   103e8:	9702                	jalr	a4
   103ea:	b7f1                	j	103b6 <__call_exitprocs+0x8c>

00000000000103ec <__libc_fini_array>:
   103ec:	1101                	add	sp,sp,-32
   103ee:	e822                	sd	s0,16(sp)
   103f0:	67c5                	lui	a5,0x11
   103f2:	6445                	lui	s0,0x11
   103f4:	4e078793          	add	a5,a5,1248 # 114e0 <__do_global_dtors_aux_fini_array_entry>
   103f8:	4e840413          	add	s0,s0,1256 # 114e8 <__fini_array_end>
   103fc:	8c1d                	sub	s0,s0,a5
   103fe:	e426                	sd	s1,8(sp)
   10400:	ec06                	sd	ra,24(sp)
   10402:	40345493          	sra	s1,s0,0x3
   10406:	c881                	beqz	s1,10416 <__libc_fini_array+0x2a>
   10408:	1461                	add	s0,s0,-8
   1040a:	943e                	add	s0,s0,a5
   1040c:	601c                	ld	a5,0(s0)
   1040e:	14fd                	add	s1,s1,-1
   10410:	1461                	add	s0,s0,-8
   10412:	9782                	jalr	a5
   10414:	fce5                	bnez	s1,1040c <__libc_fini_array+0x20>
   10416:	60e2                	ld	ra,24(sp)
   10418:	6442                	ld	s0,16(sp)
   1041a:	64a2                	ld	s1,8(sp)
   1041c:	6105                	add	sp,sp,32
   1041e:	8082                	ret

0000000000010420 <atexit>:
   10420:	85aa                	mv	a1,a0
   10422:	4681                	li	a3,0
   10424:	4601                	li	a2,0
   10426:	4501                	li	a0,0
   10428:	a009                	j	1042a <__register_exitproc>

000000000001042a <__register_exitproc>:
   1042a:	fd81b703          	ld	a4,-40(gp) # 11cc8 <_global_impure_ptr>
   1042e:	1f873783          	ld	a5,504(a4)
   10432:	c3b1                	beqz	a5,10476 <__register_exitproc+0x4c>
   10434:	4798                	lw	a4,8(a5)
   10436:	487d                	li	a6,31
   10438:	06e84263          	blt	a6,a4,1049c <__register_exitproc+0x72>
   1043c:	c505                	beqz	a0,10464 <__register_exitproc+0x3a>
   1043e:	00371813          	sll	a6,a4,0x3
   10442:	983e                	add	a6,a6,a5
   10444:	10c83823          	sd	a2,272(a6)
   10448:	3107a883          	lw	a7,784(a5)
   1044c:	4605                	li	a2,1
   1044e:	00e6163b          	sllw	a2,a2,a4
   10452:	00c8e8b3          	or	a7,a7,a2
   10456:	3117a823          	sw	a7,784(a5)
   1045a:	20d83823          	sd	a3,528(a6)
   1045e:	4689                	li	a3,2
   10460:	02d50063          	beq	a0,a3,10480 <__register_exitproc+0x56>
   10464:	00270693          	add	a3,a4,2
   10468:	068e                	sll	a3,a3,0x3
   1046a:	2705                	addw	a4,a4,1
   1046c:	c798                	sw	a4,8(a5)
   1046e:	97b6                	add	a5,a5,a3
   10470:	e38c                	sd	a1,0(a5)
   10472:	4501                	li	a0,0
   10474:	8082                	ret
   10476:	20070793          	add	a5,a4,512
   1047a:	1ef73c23          	sd	a5,504(a4)
   1047e:	bf5d                	j	10434 <__register_exitproc+0xa>
   10480:	3147a683          	lw	a3,788(a5)
   10484:	4501                	li	a0,0
   10486:	8ed1                	or	a3,a3,a2
   10488:	30d7aa23          	sw	a3,788(a5)
   1048c:	00270693          	add	a3,a4,2
   10490:	068e                	sll	a3,a3,0x3
   10492:	2705                	addw	a4,a4,1
   10494:	c798                	sw	a4,8(a5)
   10496:	97b6                	add	a5,a5,a3
   10498:	e38c                	sd	a1,0(a5)
   1049a:	8082                	ret
   1049c:	557d                	li	a0,-1
   1049e:	8082                	ret

00000000000104a0 <_exit>:
   104a0:	05d00893          	li	a7,93
   104a4:	00000073          	ecall
   104a8:	00054363          	bltz	a0,104ae <_exit+0xe>
   104ac:	a001                	j	104ac <_exit+0xc>
   104ae:	1141                	add	sp,sp,-16
   104b0:	e022                	sd	s0,0(sp)
   104b2:	842a                	mv	s0,a0
   104b4:	e406                	sd	ra,8(sp)
   104b6:	4080043b          	negw	s0,s0
   104ba:	008000ef          	jal	104c2 <__errno>
   104be:	c100                	sw	s0,0(a0)
   104c0:	a001                	j	104c0 <_exit+0x20>

00000000000104c2 <__errno>:
   104c2:	fe81b503          	ld	a0,-24(gp) # 11cd8 <_impure_ptr>
   104c6:	8082                	ret

sllw.exe:     file format elf64-littleriscv


Disassembly of section .text:

00000000000100e8 <exit>:
   100e8:	1141                	add	sp,sp,-16
   100ea:	4581                	li	a1,0
   100ec:	e022                	sd	s0,0(sp)
   100ee:	e406                	sd	ra,8(sp)
   100f0:	842a                	mv	s0,a0
   100f2:	454000ef          	jal	10546 <__call_exitprocs>
   100f6:	f481b503          	ld	a0,-184(gp) # 11e48 <_global_impure_ptr>
   100fa:	6d3c                	ld	a5,88(a0)
   100fc:	c391                	beqz	a5,10100 <exit+0x18>
   100fe:	9782                	jalr	a5
   10100:	8522                	mv	a0,s0
   10102:	5ba000ef          	jal	106bc <_exit>

0000000000010106 <register_fini>:
   10106:	00000793          	li	a5,0
   1010a:	c789                	beqz	a5,10114 <register_fini+0xe>
   1010c:	6541                	lui	a0,0x10
   1010e:	60850513          	add	a0,a0,1544 # 10608 <__libc_fini_array>
   10112:	a32d                	j	1063c <atexit>
   10114:	8082                	ret

0000000000010116 <_start>:
   10116:	00002197          	auipc	gp,0x2
   1011a:	dea18193          	add	gp,gp,-534 # 11f00 <__global_pointer$>
   1011e:	f6018513          	add	a0,gp,-160 # 11e60 <completed.1>
   10122:	f9818613          	add	a2,gp,-104 # 11e98 <__BSS_END__>
   10126:	8e09                	sub	a2,a2,a0
   10128:	4581                	li	a1,0
   1012a:	372000ef          	jal	1049c <memset>
   1012e:	00000517          	auipc	a0,0x0
   10132:	50e50513          	add	a0,a0,1294 # 1063c <atexit>
   10136:	c519                	beqz	a0,10144 <_start+0x2e>
   10138:	00000517          	auipc	a0,0x0
   1013c:	4d050513          	add	a0,a0,1232 # 10608 <__libc_fini_array>
   10140:	4fc000ef          	jal	1063c <atexit>
   10144:	2ee000ef          	jal	10432 <__libc_init_array>
   10148:	4502                	lw	a0,0(sp)
   1014a:	002c                	add	a1,sp,8
   1014c:	4601                	li	a2,0
   1014e:	04e000ef          	jal	1019c <main>
   10152:	bf59                	j	100e8 <exit>

0000000000010154 <__do_global_dtors_aux>:
   10154:	1141                	add	sp,sp,-16
   10156:	e022                	sd	s0,0(sp)
   10158:	f601c783          	lbu	a5,-160(gp) # 11e60 <completed.1>
   1015c:	e406                	sd	ra,8(sp)
   1015e:	ef91                	bnez	a5,1017a <__do_global_dtors_aux+0x26>
   10160:	00000793          	li	a5,0
   10164:	cb81                	beqz	a5,10174 <__do_global_dtors_aux+0x20>
   10166:	6545                	lui	a0,0x11
   10168:	6e450513          	add	a0,a0,1764 # 116e4 <__EH_FRAME_BEGIN__>
   1016c:	00000097          	auipc	ra,0x0
   10170:	000000e7          	jalr	zero # 0 <exit-0x100e8>
   10174:	4785                	li	a5,1
   10176:	f6f18023          	sb	a5,-160(gp) # 11e60 <completed.1>
   1017a:	60a2                	ld	ra,8(sp)
   1017c:	6402                	ld	s0,0(sp)
   1017e:	0141                	add	sp,sp,16
   10180:	8082                	ret

0000000000010182 <frame_dummy>:
   10182:	00000793          	li	a5,0
   10186:	cb91                	beqz	a5,1019a <frame_dummy+0x18>
   10188:	6545                	lui	a0,0x11
   1018a:	f6818593          	add	a1,gp,-152 # 11e68 <object.0>
   1018e:	6e450513          	add	a0,a0,1764 # 116e4 <__EH_FRAME_BEGIN__>
   10192:	00000317          	auipc	t1,0x0
   10196:	00000067          	jr	zero # 0 <exit-0x100e8>
   1019a:	8082                	ret

000000000001019c <main>:
   1019c:	1101                	add	sp,sp,-32
   1019e:	ec22                	sd	s0,24(sp)
   101a0:	1000                	add	s0,sp,32
   101a2:	87aa                	mv	a5,a0
   101a4:	feb43023          	sd	a1,-32(s0)
   101a8:	fef42623          	sw	a5,-20(s0)

00000000000101ac <test_2>:
   101ac:	4189                	li	gp,2
   101ae:	4085                	li	ra,1
   101b0:	4101                	li	sp,0
   101b2:	0020973b          	sllw	a4,ra,sp
   101b6:	4385                	li	t2,1
   101b8:	26771563          	bne	a4,t2,10422 <fail>

00000000000101bc <test_3>:
   101bc:	418d                	li	gp,3
   101be:	4085                	li	ra,1
   101c0:	4105                	li	sp,1
   101c2:	0020973b          	sllw	a4,ra,sp
   101c6:	4389                	li	t2,2
   101c8:	24771d63          	bne	a4,t2,10422 <fail>

00000000000101cc <test_4>:
   101cc:	4191                	li	gp,4
   101ce:	4085                	li	ra,1
   101d0:	411d                	li	sp,7
   101d2:	0020973b          	sllw	a4,ra,sp
   101d6:	08000393          	li	t2,128
   101da:	24771463          	bne	a4,t2,10422 <fail>

00000000000101de <test_5>:
   101de:	4195                	li	gp,5
   101e0:	4085                	li	ra,1
   101e2:	4139                	li	sp,14
   101e4:	0020973b          	sllw	a4,ra,sp
   101e8:	6391                	lui	t2,0x4
   101ea:	22771c63          	bne	a4,t2,10422 <fail>

00000000000101ee <test_6>:
   101ee:	4199                	li	gp,6
   101f0:	4085                	li	ra,1
   101f2:	417d                	li	sp,31
   101f4:	0020973b          	sllw	a4,ra,sp
   101f8:	800003b7          	lui	t2,0x80000
   101fc:	22771363          	bne	a4,t2,10422 <fail>

0000000000010200 <test_7>:
   10200:	419d                	li	gp,7
   10202:	50fd                	li	ra,-1
   10204:	4101                	li	sp,0
   10206:	0020973b          	sllw	a4,ra,sp
   1020a:	53fd                	li	t2,-1
   1020c:	20771b63          	bne	a4,t2,10422 <fail>

0000000000010210 <test_8>:
   10210:	41a1                	li	gp,8
   10212:	50fd                	li	ra,-1
   10214:	4105                	li	sp,1
   10216:	0020973b          	sllw	a4,ra,sp
   1021a:	53f9                	li	t2,-2
   1021c:	20771363          	bne	a4,t2,10422 <fail>

0000000000010220 <test_9>:
   10220:	41a5                	li	gp,9
   10222:	50fd                	li	ra,-1
   10224:	411d                	li	sp,7
   10226:	0020973b          	sllw	a4,ra,sp
   1022a:	f8000393          	li	t2,-128
   1022e:	1e771a63          	bne	a4,t2,10422 <fail>

0000000000010232 <test_10>:
   10232:	41a9                	li	gp,10
   10234:	50fd                	li	ra,-1
   10236:	4139                	li	sp,14
   10238:	0020973b          	sllw	a4,ra,sp
   1023c:	73f1                	lui	t2,0xffffc
   1023e:	1e771263          	bne	a4,t2,10422 <fail>

0000000000010242 <test_11>:
   10242:	41ad                	li	gp,11
   10244:	50fd                	li	ra,-1
   10246:	417d                	li	sp,31
   10248:	0020973b          	sllw	a4,ra,sp
   1024c:	800003b7          	lui	t2,0x80000
   10250:	1c771963          	bne	a4,t2,10422 <fail>

0000000000010254 <test_12>:
   10254:	41b1                	li	gp,12
   10256:	212120b7          	lui	ra,0x21212
   1025a:	1210809b          	addw	ra,ra,289 # 21212121 <__global_pointer$+0x21200221>
   1025e:	4101                	li	sp,0
   10260:	0020973b          	sllw	a4,ra,sp
   10264:	212123b7          	lui	t2,0x21212
   10268:	1213839b          	addw	t2,t2,289 # 21212121 <__global_pointer$+0x21200221>
   1026c:	1a771b63          	bne	a4,t2,10422 <fail>

0000000000010270 <test_13>:
   10270:	41b5                	li	gp,13
   10272:	212120b7          	lui	ra,0x21212
   10276:	1210809b          	addw	ra,ra,289 # 21212121 <__global_pointer$+0x21200221>
   1027a:	4105                	li	sp,1
   1027c:	0020973b          	sllw	a4,ra,sp
   10280:	424243b7          	lui	t2,0x42424
   10284:	2423839b          	addw	t2,t2,578 # 42424242 <__global_pointer$+0x42412342>
   10288:	18771d63          	bne	a4,t2,10422 <fail>

000000000001028c <test_14>:
   1028c:	41b9                	li	gp,14
   1028e:	212120b7          	lui	ra,0x21212
   10292:	1210809b          	addw	ra,ra,289 # 21212121 <__global_pointer$+0x21200221>
   10296:	411d                	li	sp,7
   10298:	0020973b          	sllw	a4,ra,sp
   1029c:	909093b7          	lui	t2,0x90909
   102a0:	0803839b          	addw	t2,t2,128 # ffffffff90909080 <__global_pointer$+0xffffffff908f7180>
   102a4:	16771f63          	bne	a4,t2,10422 <fail>

00000000000102a8 <test_15>:
   102a8:	41bd                	li	gp,15
   102aa:	212120b7          	lui	ra,0x21212
   102ae:	1210809b          	addw	ra,ra,289 # 21212121 <__global_pointer$+0x21200221>
   102b2:	4139                	li	sp,14
   102b4:	0020973b          	sllw	a4,ra,sp
   102b8:	484843b7          	lui	t2,0x48484
   102bc:	16771363          	bne	a4,t2,10422 <fail>

00000000000102c0 <test_16>:
   102c0:	41c1                	li	gp,16
   102c2:	212120b7          	lui	ra,0x21212
   102c6:	1210809b          	addw	ra,ra,289 # 21212121 <__global_pointer$+0x21200221>
   102ca:	417d                	li	sp,31
   102cc:	0020973b          	sllw	a4,ra,sp
   102d0:	800003b7          	lui	t2,0x80000
   102d4:	14771763          	bne	a4,t2,10422 <fail>

00000000000102d8 <test_17>:
   102d8:	41c5                	li	gp,17
   102da:	212120b7          	lui	ra,0x21212
   102de:	1210809b          	addw	ra,ra,289 # 21212121 <__global_pointer$+0x21200221>
   102e2:	5101                	li	sp,-32
   102e4:	0020973b          	sllw	a4,ra,sp
   102e8:	212123b7          	lui	t2,0x21212
   102ec:	1213839b          	addw	t2,t2,289 # 21212121 <__global_pointer$+0x21200221>
   102f0:	12771963          	bne	a4,t2,10422 <fail>

00000000000102f4 <test_18>:
   102f4:	41c9                	li	gp,18
   102f6:	212120b7          	lui	ra,0x21212
   102fa:	1210809b          	addw	ra,ra,289 # 21212121 <__global_pointer$+0x21200221>
   102fe:	5105                	li	sp,-31
   10300:	0020973b          	sllw	a4,ra,sp
   10304:	424243b7          	lui	t2,0x42424
   10308:	2423839b          	addw	t2,t2,578 # 42424242 <__global_pointer$+0x42412342>
   1030c:	10771b63          	bne	a4,t2,10422 <fail>

0000000000010310 <test_19>:
   10310:	41cd                	li	gp,19
   10312:	212120b7          	lui	ra,0x21212
   10316:	1210809b          	addw	ra,ra,289 # 21212121 <__global_pointer$+0x21200221>
   1031a:	511d                	li	sp,-25
   1031c:	0020973b          	sllw	a4,ra,sp
   10320:	909093b7          	lui	t2,0x90909
   10324:	0803839b          	addw	t2,t2,128 # ffffffff90909080 <__global_pointer$+0xffffffff908f7180>
   10328:	0e771d63          	bne	a4,t2,10422 <fail>

000000000001032c <test_20>:
   1032c:	41d1                	li	gp,20
   1032e:	212120b7          	lui	ra,0x21212
   10332:	1210809b          	addw	ra,ra,289 # 21212121 <__global_pointer$+0x21200221>
   10336:	5139                	li	sp,-18
   10338:	0020973b          	sllw	a4,ra,sp
   1033c:	484843b7          	lui	t2,0x48484
   10340:	0e771163          	bne	a4,t2,10422 <fail>

0000000000010344 <test_21>:
   10344:	41d5                	li	gp,21
   10346:	212120b7          	lui	ra,0x21212
   1034a:	1210809b          	addw	ra,ra,289 # 21212121 <__global_pointer$+0x21200221>
   1034e:	517d                	li	sp,-1
   10350:	0020973b          	sllw	a4,ra,sp
   10354:	800003b7          	lui	t2,0x80000
   10358:	0c771563          	bne	a4,t2,10422 <fail>

000000000001035c <test_44>:
   1035c:	02c00193          	li	gp,44
   10360:	fff120b7          	lui	ra,0xfff12
   10364:	3450809b          	addw	ra,ra,837 # fffffffffff12345 <__global_pointer$+0xfffffffffff00445>
   10368:	00b2                	sll	ra,ra,0xc
   1036a:	67808093          	add	ra,ra,1656
   1036e:	4101                	li	sp,0
   10370:	0020973b          	sllw	a4,ra,sp
   10374:	123453b7          	lui	t2,0x12345
   10378:	6783839b          	addw	t2,t2,1656 # 12345678 <__global_pointer$+0x12333778>
   1037c:	0a771363          	bne	a4,t2,10422 <fail>

0000000000010380 <test_45>:
   10380:	02d00193          	li	gp,45
   10384:	fff120b7          	lui	ra,0xfff12
   10388:	3450809b          	addw	ra,ra,837 # fffffffffff12345 <__global_pointer$+0xfffffffffff00445>
   1038c:	00b2                	sll	ra,ra,0xc
   1038e:	67808093          	add	ra,ra,1656
   10392:	4111                	li	sp,4
   10394:	0020973b          	sllw	a4,ra,sp
   10398:	234563b7          	lui	t2,0x23456
   1039c:	7803839b          	addw	t2,t2,1920 # 23456780 <__global_pointer$+0x23444880>
   103a0:	08771163          	bne	a4,t2,10422 <fail>

00000000000103a4 <test_46>:
   103a4:	02e00193          	li	gp,46
   103a8:	000920b7          	lui	ra,0x92
   103ac:	3450809b          	addw	ra,ra,837 # 92345 <__global_pointer$+0x80445>
   103b0:	00b2                	sll	ra,ra,0xc
   103b2:	67808093          	add	ra,ra,1656
   103b6:	4101                	li	sp,0
   103b8:	0020973b          	sllw	a4,ra,sp
   103bc:	923453b7          	lui	t2,0x92345
   103c0:	6783839b          	addw	t2,t2,1656 # ffffffff92345678 <__global_pointer$+0xffffffff92333778>
   103c4:	04771f63          	bne	a4,t2,10422 <fail>

00000000000103c8 <test_47>:
   103c8:	02f00193          	li	gp,47
   103cc:	000990b7          	lui	ra,0x99
   103d0:	3450809b          	addw	ra,ra,837 # 99345 <__global_pointer$+0x87445>
   103d4:	00b2                	sll	ra,ra,0xc
   103d6:	67808093          	add	ra,ra,1656
   103da:	4111                	li	sp,4
   103dc:	0020973b          	sllw	a4,ra,sp
   103e0:	934563b7          	lui	t2,0x93456
   103e4:	7803839b          	addw	t2,t2,1920 # ffffffff93456780 <__global_pointer$+0xffffffff93444880>
   103e8:	02771d63          	bne	a4,t2,10422 <fail>

00000000000103ec <test_22>:
   103ec:	41d9                	li	gp,22
   103ee:	4085                	li	ra,1
   103f0:	411d                	li	sp,7
   103f2:	002090bb          	sllw	ra,ra,sp
   103f6:	08000393          	li	t2,128
   103fa:	02709463          	bne	ra,t2,10422 <fail>

00000000000103fe <test_23>:
   103fe:	41dd                	li	gp,23
   10400:	4085                	li	ra,1
   10402:	4139                	li	sp,14
   10404:	0020913b          	sllw	sp,ra,sp
   10408:	6391                	lui	t2,0x4
   1040a:	00711c63          	bne	sp,t2,10422 <fail>

000000000001040e <test_24>:
   1040e:	41e1                	li	gp,24
   10410:	408d                	li	ra,3
   10412:	001090bb          	sllw	ra,ra,ra
   10416:	43e1                	li	t2,24
   10418:	00709563          	bne	ra,t2,10422 <fail>
   1041c:	00301263          	bne	zero,gp,10420 <pass>

0000000000010420 <pass>:
   10420:	a019                	j	10426 <continue>

0000000000010422 <fail>:
   10422:	00000000          	.word	0x00000000

0000000000010426 <continue>:
   10426:	4081                	li	ra,0
   10428:	4781                	li	a5,0
   1042a:	853e                	mv	a0,a5
   1042c:	6462                	ld	s0,24(sp)
   1042e:	6105                	add	sp,sp,32
   10430:	8082                	ret

0000000000010432 <__libc_init_array>:
   10432:	1101                	add	sp,sp,-32
   10434:	e822                	sd	s0,16(sp)
   10436:	67c5                	lui	a5,0x11
   10438:	6445                	lui	s0,0x11
   1043a:	e04a                	sd	s2,0(sp)
   1043c:	6e878793          	add	a5,a5,1768 # 116e8 <__init_array_start>
   10440:	6e840713          	add	a4,s0,1768 # 116e8 <__init_array_start>
   10444:	ec06                	sd	ra,24(sp)
   10446:	e426                	sd	s1,8(sp)
   10448:	40e78933          	sub	s2,a5,a4
   1044c:	00e78d63          	beq	a5,a4,10466 <__libc_init_array+0x34>
   10450:	40395913          	sra	s2,s2,0x3
   10454:	6e840413          	add	s0,s0,1768
   10458:	4481                	li	s1,0
   1045a:	601c                	ld	a5,0(s0)
   1045c:	0485                	add	s1,s1,1
   1045e:	0421                	add	s0,s0,8
   10460:	9782                	jalr	a5
   10462:	ff24ece3          	bltu	s1,s2,1045a <__libc_init_array+0x28>
   10466:	6445                	lui	s0,0x11
   10468:	67c5                	lui	a5,0x11
   1046a:	6f878793          	add	a5,a5,1784 # 116f8 <__do_global_dtors_aux_fini_array_entry>
   1046e:	6e840713          	add	a4,s0,1768 # 116e8 <__init_array_start>
   10472:	40e78933          	sub	s2,a5,a4
   10476:	40395913          	sra	s2,s2,0x3
   1047a:	00e78b63          	beq	a5,a4,10490 <__libc_init_array+0x5e>
   1047e:	6e840413          	add	s0,s0,1768
   10482:	4481                	li	s1,0
   10484:	601c                	ld	a5,0(s0)
   10486:	0485                	add	s1,s1,1
   10488:	0421                	add	s0,s0,8
   1048a:	9782                	jalr	a5
   1048c:	ff24ece3          	bltu	s1,s2,10484 <__libc_init_array+0x52>
   10490:	60e2                	ld	ra,24(sp)
   10492:	6442                	ld	s0,16(sp)
   10494:	64a2                	ld	s1,8(sp)
   10496:	6902                	ld	s2,0(sp)
   10498:	6105                	add	sp,sp,32
   1049a:	8082                	ret

000000000001049c <memset>:
   1049c:	433d                	li	t1,15
   1049e:	872a                	mv	a4,a0
   104a0:	02c37163          	bgeu	t1,a2,104c2 <memset+0x26>
   104a4:	00f77793          	and	a5,a4,15
   104a8:	e3c1                	bnez	a5,10528 <memset+0x8c>
   104aa:	e1bd                	bnez	a1,10510 <memset+0x74>
   104ac:	ff067693          	and	a3,a2,-16
   104b0:	8a3d                	and	a2,a2,15
   104b2:	96ba                	add	a3,a3,a4
   104b4:	e30c                	sd	a1,0(a4)
   104b6:	e70c                	sd	a1,8(a4)
   104b8:	0741                	add	a4,a4,16
   104ba:	fed76de3          	bltu	a4,a3,104b4 <memset+0x18>
   104be:	e211                	bnez	a2,104c2 <memset+0x26>
   104c0:	8082                	ret
   104c2:	40c306b3          	sub	a3,t1,a2
   104c6:	068a                	sll	a3,a3,0x2
   104c8:	00000297          	auipc	t0,0x0
   104cc:	9696                	add	a3,a3,t0
   104ce:	00a68067          	jr	10(a3)
   104d2:	00b70723          	sb	a1,14(a4)
   104d6:	00b706a3          	sb	a1,13(a4)
   104da:	00b70623          	sb	a1,12(a4)
   104de:	00b705a3          	sb	a1,11(a4)
   104e2:	00b70523          	sb	a1,10(a4)
   104e6:	00b704a3          	sb	a1,9(a4)
   104ea:	00b70423          	sb	a1,8(a4)
   104ee:	00b703a3          	sb	a1,7(a4)
   104f2:	00b70323          	sb	a1,6(a4)
   104f6:	00b702a3          	sb	a1,5(a4)
   104fa:	00b70223          	sb	a1,4(a4)
   104fe:	00b701a3          	sb	a1,3(a4)
   10502:	00b70123          	sb	a1,2(a4)
   10506:	00b700a3          	sb	a1,1(a4)
   1050a:	00b70023          	sb	a1,0(a4)
   1050e:	8082                	ret
   10510:	0ff5f593          	zext.b	a1,a1
   10514:	00859693          	sll	a3,a1,0x8
   10518:	8dd5                	or	a1,a1,a3
   1051a:	01059693          	sll	a3,a1,0x10
   1051e:	8dd5                	or	a1,a1,a3
   10520:	02059693          	sll	a3,a1,0x20
   10524:	8dd5                	or	a1,a1,a3
   10526:	b759                	j	104ac <memset+0x10>
   10528:	00279693          	sll	a3,a5,0x2
   1052c:	00000297          	auipc	t0,0x0
   10530:	9696                	add	a3,a3,t0
   10532:	8286                	mv	t0,ra
   10534:	fa2680e7          	jalr	-94(a3)
   10538:	8096                	mv	ra,t0
   1053a:	17c1                	add	a5,a5,-16
   1053c:	8f1d                	sub	a4,a4,a5
   1053e:	963e                	add	a2,a2,a5
   10540:	f8c371e3          	bgeu	t1,a2,104c2 <memset+0x26>
   10544:	b79d                	j	104aa <memset+0xe>

0000000000010546 <__call_exitprocs>:
   10546:	715d                	add	sp,sp,-80
   10548:	f052                	sd	s4,32(sp)
   1054a:	f481ba03          	ld	s4,-184(gp) # 11e48 <_global_impure_ptr>
   1054e:	f84a                	sd	s2,48(sp)
   10550:	e486                	sd	ra,72(sp)
   10552:	1f8a3903          	ld	s2,504(s4)
   10556:	e0a2                	sd	s0,64(sp)
   10558:	fc26                	sd	s1,56(sp)
   1055a:	f44e                	sd	s3,40(sp)
   1055c:	ec56                	sd	s5,24(sp)
   1055e:	e85a                	sd	s6,16(sp)
   10560:	e45e                	sd	s7,8(sp)
   10562:	e062                	sd	s8,0(sp)
   10564:	02090863          	beqz	s2,10594 <__call_exitprocs+0x4e>
   10568:	8b2a                	mv	s6,a0
   1056a:	8bae                	mv	s7,a1
   1056c:	4a85                	li	s5,1
   1056e:	59fd                	li	s3,-1
   10570:	00892483          	lw	s1,8(s2)
   10574:	fff4841b          	addw	s0,s1,-1
   10578:	00044e63          	bltz	s0,10594 <__call_exitprocs+0x4e>
   1057c:	048e                	sll	s1,s1,0x3
   1057e:	94ca                	add	s1,s1,s2
   10580:	020b8663          	beqz	s7,105ac <__call_exitprocs+0x66>
   10584:	2084b783          	ld	a5,520(s1)
   10588:	03778263          	beq	a5,s7,105ac <__call_exitprocs+0x66>
   1058c:	347d                	addw	s0,s0,-1
   1058e:	14e1                	add	s1,s1,-8
   10590:	ff3418e3          	bne	s0,s3,10580 <__call_exitprocs+0x3a>
   10594:	60a6                	ld	ra,72(sp)
   10596:	6406                	ld	s0,64(sp)
   10598:	74e2                	ld	s1,56(sp)
   1059a:	7942                	ld	s2,48(sp)
   1059c:	79a2                	ld	s3,40(sp)
   1059e:	7a02                	ld	s4,32(sp)
   105a0:	6ae2                	ld	s5,24(sp)
   105a2:	6b42                	ld	s6,16(sp)
   105a4:	6ba2                	ld	s7,8(sp)
   105a6:	6c02                	ld	s8,0(sp)
   105a8:	6161                	add	sp,sp,80
   105aa:	8082                	ret
   105ac:	00892783          	lw	a5,8(s2)
   105b0:	6498                	ld	a4,8(s1)
   105b2:	37fd                	addw	a5,a5,-1
   105b4:	04878463          	beq	a5,s0,105fc <__call_exitprocs+0xb6>
   105b8:	0004b423          	sd	zero,8(s1)
   105bc:	db61                	beqz	a4,1058c <__call_exitprocs+0x46>
   105be:	31092783          	lw	a5,784(s2)
   105c2:	008a96bb          	sllw	a3,s5,s0
   105c6:	00892c03          	lw	s8,8(s2)
   105ca:	8ff5                	and	a5,a5,a3
   105cc:	2781                	sext.w	a5,a5
   105ce:	ef89                	bnez	a5,105e8 <__call_exitprocs+0xa2>
   105d0:	9702                	jalr	a4
   105d2:	00892703          	lw	a4,8(s2)
   105d6:	1f8a3783          	ld	a5,504(s4)
   105da:	01871463          	bne	a4,s8,105e2 <__call_exitprocs+0x9c>
   105de:	fb2787e3          	beq	a5,s2,1058c <__call_exitprocs+0x46>
   105e2:	dbcd                	beqz	a5,10594 <__call_exitprocs+0x4e>
   105e4:	893e                	mv	s2,a5
   105e6:	b769                	j	10570 <__call_exitprocs+0x2a>
   105e8:	31492783          	lw	a5,788(s2)
   105ec:	1084b583          	ld	a1,264(s1)
   105f0:	8ff5                	and	a5,a5,a3
   105f2:	2781                	sext.w	a5,a5
   105f4:	e799                	bnez	a5,10602 <__call_exitprocs+0xbc>
   105f6:	855a                	mv	a0,s6
   105f8:	9702                	jalr	a4
   105fa:	bfe1                	j	105d2 <__call_exitprocs+0x8c>
   105fc:	00892423          	sw	s0,8(s2)
   10600:	bf75                	j	105bc <__call_exitprocs+0x76>
   10602:	852e                	mv	a0,a1
   10604:	9702                	jalr	a4
   10606:	b7f1                	j	105d2 <__call_exitprocs+0x8c>

0000000000010608 <__libc_fini_array>:
   10608:	1101                	add	sp,sp,-32
   1060a:	e822                	sd	s0,16(sp)
   1060c:	67c5                	lui	a5,0x11
   1060e:	6445                	lui	s0,0x11
   10610:	6f878793          	add	a5,a5,1784 # 116f8 <__do_global_dtors_aux_fini_array_entry>
   10614:	70040413          	add	s0,s0,1792 # 11700 <impure_data>
   10618:	8c1d                	sub	s0,s0,a5
   1061a:	e426                	sd	s1,8(sp)
   1061c:	ec06                	sd	ra,24(sp)
   1061e:	40345493          	sra	s1,s0,0x3
   10622:	c881                	beqz	s1,10632 <__libc_fini_array+0x2a>
   10624:	1461                	add	s0,s0,-8
   10626:	943e                	add	s0,s0,a5
   10628:	601c                	ld	a5,0(s0)
   1062a:	14fd                	add	s1,s1,-1
   1062c:	1461                	add	s0,s0,-8
   1062e:	9782                	jalr	a5
   10630:	fce5                	bnez	s1,10628 <__libc_fini_array+0x20>
   10632:	60e2                	ld	ra,24(sp)
   10634:	6442                	ld	s0,16(sp)
   10636:	64a2                	ld	s1,8(sp)
   10638:	6105                	add	sp,sp,32
   1063a:	8082                	ret

000000000001063c <atexit>:
   1063c:	85aa                	mv	a1,a0
   1063e:	4681                	li	a3,0
   10640:	4601                	li	a2,0
   10642:	4501                	li	a0,0
   10644:	a009                	j	10646 <__register_exitproc>

0000000000010646 <__register_exitproc>:
   10646:	f481b703          	ld	a4,-184(gp) # 11e48 <_global_impure_ptr>
   1064a:	1f873783          	ld	a5,504(a4)
   1064e:	c3b1                	beqz	a5,10692 <__register_exitproc+0x4c>
   10650:	4798                	lw	a4,8(a5)
   10652:	487d                	li	a6,31
   10654:	06e84263          	blt	a6,a4,106b8 <__register_exitproc+0x72>
   10658:	c505                	beqz	a0,10680 <__register_exitproc+0x3a>
   1065a:	00371813          	sll	a6,a4,0x3
   1065e:	983e                	add	a6,a6,a5
   10660:	10c83823          	sd	a2,272(a6)
   10664:	3107a883          	lw	a7,784(a5)
   10668:	4605                	li	a2,1
   1066a:	00e6163b          	sllw	a2,a2,a4
   1066e:	00c8e8b3          	or	a7,a7,a2
   10672:	3117a823          	sw	a7,784(a5)
   10676:	20d83823          	sd	a3,528(a6)
   1067a:	4689                	li	a3,2
   1067c:	02d50063          	beq	a0,a3,1069c <__register_exitproc+0x56>
   10680:	00270693          	add	a3,a4,2
   10684:	068e                	sll	a3,a3,0x3
   10686:	2705                	addw	a4,a4,1
   10688:	c798                	sw	a4,8(a5)
   1068a:	97b6                	add	a5,a5,a3
   1068c:	e38c                	sd	a1,0(a5)
   1068e:	4501                	li	a0,0
   10690:	8082                	ret
   10692:	20070793          	add	a5,a4,512
   10696:	1ef73c23          	sd	a5,504(a4)
   1069a:	bf5d                	j	10650 <__register_exitproc+0xa>
   1069c:	3147a683          	lw	a3,788(a5)
   106a0:	4501                	li	a0,0
   106a2:	8ed1                	or	a3,a3,a2
   106a4:	30d7aa23          	sw	a3,788(a5)
   106a8:	00270693          	add	a3,a4,2
   106ac:	068e                	sll	a3,a3,0x3
   106ae:	2705                	addw	a4,a4,1
   106b0:	c798                	sw	a4,8(a5)
   106b2:	97b6                	add	a5,a5,a3
   106b4:	e38c                	sd	a1,0(a5)
   106b6:	8082                	ret
   106b8:	557d                	li	a0,-1
   106ba:	8082                	ret

00000000000106bc <_exit>:
   106bc:	05d00893          	li	a7,93
   106c0:	00000073          	ecall
   106c4:	00054363          	bltz	a0,106ca <_exit+0xe>
   106c8:	a001                	j	106c8 <_exit+0xc>
   106ca:	1141                	add	sp,sp,-16
   106cc:	e022                	sd	s0,0(sp)
   106ce:	842a                	mv	s0,a0
   106d0:	e406                	sd	ra,8(sp)
   106d2:	4080043b          	negw	s0,s0
   106d6:	008000ef          	jal	106de <__errno>
   106da:	c100                	sw	s0,0(a0)
   106dc:	a001                	j	106dc <_exit+0x20>

00000000000106de <__errno>:
   106de:	f581b503          	ld	a0,-168(gp) # 11e58 <_impure_ptr>
   106e2:	8082                	ret

lh.exe:     file format elf64-littleriscv


Disassembly of section .text:

00000000000100e8 <exit>:
   100e8:	1141                	add	sp,sp,-16
   100ea:	4581                	li	a1,0
   100ec:	e022                	sd	s0,0(sp)
   100ee:	e406                	sd	ra,8(sp)
   100f0:	842a                	mv	s0,a0
   100f2:	2e4000ef          	jal	103d6 <__call_exitprocs>
   100f6:	fb81b503          	ld	a0,-72(gp) # 11d48 <_global_impure_ptr>
   100fa:	6d3c                	ld	a5,88(a0)
   100fc:	c391                	beqz	a5,10100 <exit+0x18>
   100fe:	9782                	jalr	a5
   10100:	8522                	mv	a0,s0
   10102:	44a000ef          	jal	1054c <_exit>

0000000000010106 <register_fini>:
   10106:	00000793          	li	a5,0
   1010a:	c789                	beqz	a5,10114 <register_fini+0xe>
   1010c:	6541                	lui	a0,0x10
   1010e:	49850513          	add	a0,a0,1176 # 10498 <__libc_fini_array>
   10112:	ae6d                	j	104cc <atexit>
   10114:	8082                	ret

0000000000010116 <_start>:
   10116:	00002197          	auipc	gp,0x2
   1011a:	c7a18193          	add	gp,gp,-902 # 11d90 <__global_pointer$>
   1011e:	fd018513          	add	a0,gp,-48 # 11d60 <completed.1>
   10122:	00818613          	add	a2,gp,8 # 11d98 <__BSS_END__>
   10126:	8e09                	sub	a2,a2,a0
   10128:	4581                	li	a1,0
   1012a:	202000ef          	jal	1032c <memset>
   1012e:	00000517          	auipc	a0,0x0
   10132:	39e50513          	add	a0,a0,926 # 104cc <atexit>
   10136:	c519                	beqz	a0,10144 <_start+0x2e>
   10138:	00000517          	auipc	a0,0x0
   1013c:	36050513          	add	a0,a0,864 # 10498 <__libc_fini_array>
   10140:	38c000ef          	jal	104cc <atexit>
   10144:	17e000ef          	jal	102c2 <__libc_init_array>
   10148:	4502                	lw	a0,0(sp)
   1014a:	002c                	add	a1,sp,8
   1014c:	4601                	li	a2,0
   1014e:	04e000ef          	jal	1019c <main>
   10152:	bf59                	j	100e8 <exit>

0000000000010154 <__do_global_dtors_aux>:
   10154:	1141                	add	sp,sp,-16
   10156:	e022                	sd	s0,0(sp)
   10158:	fd01c783          	lbu	a5,-48(gp) # 11d60 <completed.1>
   1015c:	e406                	sd	ra,8(sp)
   1015e:	ef91                	bnez	a5,1017a <__do_global_dtors_aux+0x26>
   10160:	00000793          	li	a5,0
   10164:	cb81                	beqz	a5,10174 <__do_global_dtors_aux+0x20>
   10166:	6545                	lui	a0,0x11
   10168:	57450513          	add	a0,a0,1396 # 11574 <__EH_FRAME_BEGIN__>
   1016c:	00000097          	auipc	ra,0x0
   10170:	000000e7          	jalr	zero # 0 <exit-0x100e8>
   10174:	4785                	li	a5,1
   10176:	fcf18823          	sb	a5,-48(gp) # 11d60 <completed.1>
   1017a:	60a2                	ld	ra,8(sp)
   1017c:	6402                	ld	s0,0(sp)
   1017e:	0141                	add	sp,sp,16
   10180:	8082                	ret

0000000000010182 <frame_dummy>:
   10182:	00000793          	li	a5,0
   10186:	cb91                	beqz	a5,1019a <frame_dummy+0x18>
   10188:	6545                	lui	a0,0x11
   1018a:	fd818593          	add	a1,gp,-40 # 11d68 <object.0>
   1018e:	57450513          	add	a0,a0,1396 # 11574 <__EH_FRAME_BEGIN__>
   10192:	00000317          	auipc	t1,0x0
   10196:	00000067          	jr	zero # 0 <exit-0x100e8>
   1019a:	8082                	ret

000000000001019c <main>:
   1019c:	1101                	add	sp,sp,-32
   1019e:	ec22                	sd	s0,24(sp)
   101a0:	1000                	add	s0,sp,32
   101a2:	87aa                	mv	a5,a0
   101a4:	feb43023          	sd	a1,-32(s0)
   101a8:	fef42623          	sw	a5,-20(s0)

00000000000101ac <test_2>:
   101ac:	4189                	li	gp,2
   101ae:	0ff00793          	li	a5,255
   101b2:	00001097          	auipc	ra,0x1
   101b6:	3de08093          	add	ra,ra,990 # 11590 <__DATA_BEGIN__>
   101ba:	00009703          	lh	a4,0(ra)
   101be:	0ff00393          	li	t2,255
   101c2:	0e771863          	bne	a4,t2,102b2 <fail>

00000000000101c6 <test_3>:
   101c6:	418d                	li	gp,3
   101c8:	f0000793          	li	a5,-256
   101cc:	00001097          	auipc	ra,0x1
   101d0:	3c408093          	add	ra,ra,964 # 11590 <__DATA_BEGIN__>
   101d4:	00209703          	lh	a4,2(ra)
   101d8:	f0000393          	li	t2,-256
   101dc:	0c771b63          	bne	a4,t2,102b2 <fail>

00000000000101e0 <test_4>:
   101e0:	4191                	li	gp,4
   101e2:	6785                	lui	a5,0x1
   101e4:	37c1                	addw	a5,a5,-16 # ff0 <exit-0xf0f8>
   101e6:	00001097          	auipc	ra,0x1
   101ea:	3aa08093          	add	ra,ra,938 # 11590 <__DATA_BEGIN__>
   101ee:	00409703          	lh	a4,4(ra)
   101f2:	6385                	lui	t2,0x1
   101f4:	33c1                	addw	t2,t2,-16 # ff0 <exit-0xf0f8>
   101f6:	0a771e63          	bne	a4,t2,102b2 <fail>

00000000000101fa <test_5>:
   101fa:	4195                	li	gp,5
   101fc:	77fd                	lui	a5,0xfffff
   101fe:	27bd                	addw	a5,a5,15 # fffffffffffff00f <__BSS_END__+0xfffffffffffed277>
   10200:	00001097          	auipc	ra,0x1
   10204:	39008093          	add	ra,ra,912 # 11590 <__DATA_BEGIN__>
   10208:	00609703          	lh	a4,6(ra)
   1020c:	73fd                	lui	t2,0xfffff
   1020e:	23bd                	addw	t2,t2,15 # fffffffffffff00f <__BSS_END__+0xfffffffffffed277>
   10210:	0a771163          	bne	a4,t2,102b2 <fail>

0000000000010214 <test_6>:
   10214:	4199                	li	gp,6
   10216:	0ff00793          	li	a5,255
   1021a:	00001097          	auipc	ra,0x1
   1021e:	37c08093          	add	ra,ra,892 # 11596 <tdat4>
   10222:	ffa09703          	lh	a4,-6(ra)
   10226:	0ff00393          	li	t2,255
   1022a:	08771463          	bne	a4,t2,102b2 <fail>

000000000001022e <test_7>:
   1022e:	419d                	li	gp,7
   10230:	f0000793          	li	a5,-256
   10234:	00001097          	auipc	ra,0x1
   10238:	36208093          	add	ra,ra,866 # 11596 <tdat4>
   1023c:	ffc09703          	lh	a4,-4(ra)
   10240:	f0000393          	li	t2,-256
   10244:	06771763          	bne	a4,t2,102b2 <fail>

0000000000010248 <test_8>:
   10248:	41a1                	li	gp,8
   1024a:	6785                	lui	a5,0x1
   1024c:	37c1                	addw	a5,a5,-16 # ff0 <exit-0xf0f8>
   1024e:	00001097          	auipc	ra,0x1
   10252:	34808093          	add	ra,ra,840 # 11596 <tdat4>
   10256:	ffe09703          	lh	a4,-2(ra)
   1025a:	6385                	lui	t2,0x1
   1025c:	33c1                	addw	t2,t2,-16 # ff0 <exit-0xf0f8>
   1025e:	04771a63          	bne	a4,t2,102b2 <fail>

0000000000010262 <test_9>:
   10262:	41a5                	li	gp,9
   10264:	77fd                	lui	a5,0xfffff
   10266:	27bd                	addw	a5,a5,15 # fffffffffffff00f <__BSS_END__+0xfffffffffffed277>
   10268:	00001097          	auipc	ra,0x1
   1026c:	32e08093          	add	ra,ra,814 # 11596 <tdat4>
   10270:	00009703          	lh	a4,0(ra)
   10274:	73fd                	lui	t2,0xfffff
   10276:	23bd                	addw	t2,t2,15 # fffffffffffff00f <__BSS_END__+0xfffffffffffed277>
   10278:	02771d63          	bne	a4,t2,102b2 <fail>

000000000001027c <test_10>:
   1027c:	41a9                	li	gp,10
   1027e:	00001097          	auipc	ra,0x1
   10282:	31208093          	add	ra,ra,786 # 11590 <__DATA_BEGIN__>
   10286:	1081                	add	ra,ra,-32
   10288:	02009283          	lh	t0,32(ra)
   1028c:	0ff00393          	li	t2,255
   10290:	02729163          	bne	t0,t2,102b2 <fail>

0000000000010294 <test_11>:
   10294:	41ad                	li	gp,11
   10296:	00001097          	auipc	ra,0x1
   1029a:	2fa08093          	add	ra,ra,762 # 11590 <__DATA_BEGIN__>
   1029e:	10ed                	add	ra,ra,-5
   102a0:	00709283          	lh	t0,7(ra)
   102a4:	f0000393          	li	t2,-256
   102a8:	00729563          	bne	t0,t2,102b2 <fail>
   102ac:	00301263          	bne	zero,gp,102b0 <pass>

00000000000102b0 <pass>:
   102b0:	a019                	j	102b6 <continue>

00000000000102b2 <fail>:
   102b2:	0000                	unimp
	...

00000000000102b6 <continue>:
   102b6:	4081                	li	ra,0
   102b8:	4781                	li	a5,0
   102ba:	853e                	mv	a0,a5
   102bc:	6462                	ld	s0,24(sp)
   102be:	6105                	add	sp,sp,32
   102c0:	8082                	ret

00000000000102c2 <__libc_init_array>:
   102c2:	1101                	add	sp,sp,-32
   102c4:	e822                	sd	s0,16(sp)
   102c6:	67c5                	lui	a5,0x11
   102c8:	6445                	lui	s0,0x11
   102ca:	e04a                	sd	s2,0(sp)
   102cc:	57878793          	add	a5,a5,1400 # 11578 <__init_array_start>
   102d0:	57840713          	add	a4,s0,1400 # 11578 <__init_array_start>
   102d4:	ec06                	sd	ra,24(sp)
   102d6:	e426                	sd	s1,8(sp)
   102d8:	40e78933          	sub	s2,a5,a4
   102dc:	00e78d63          	beq	a5,a4,102f6 <__libc_init_array+0x34>
   102e0:	40395913          	sra	s2,s2,0x3
   102e4:	57840413          	add	s0,s0,1400
   102e8:	4481                	li	s1,0
   102ea:	601c                	ld	a5,0(s0)
   102ec:	0485                	add	s1,s1,1
   102ee:	0421                	add	s0,s0,8
   102f0:	9782                	jalr	a5
   102f2:	ff24ece3          	bltu	s1,s2,102ea <__libc_init_array+0x28>
   102f6:	6445                	lui	s0,0x11
   102f8:	67c5                	lui	a5,0x11
   102fa:	58878793          	add	a5,a5,1416 # 11588 <__do_global_dtors_aux_fini_array_entry>
   102fe:	57840713          	add	a4,s0,1400 # 11578 <__init_array_start>
   10302:	40e78933          	sub	s2,a5,a4
   10306:	40395913          	sra	s2,s2,0x3
   1030a:	00e78b63          	beq	a5,a4,10320 <__libc_init_array+0x5e>
   1030e:	57840413          	add	s0,s0,1400
   10312:	4481                	li	s1,0
   10314:	601c                	ld	a5,0(s0)
   10316:	0485                	add	s1,s1,1
   10318:	0421                	add	s0,s0,8
   1031a:	9782                	jalr	a5
   1031c:	ff24ece3          	bltu	s1,s2,10314 <__libc_init_array+0x52>
   10320:	60e2                	ld	ra,24(sp)
   10322:	6442                	ld	s0,16(sp)
   10324:	64a2                	ld	s1,8(sp)
   10326:	6902                	ld	s2,0(sp)
   10328:	6105                	add	sp,sp,32
   1032a:	8082                	ret

000000000001032c <memset>:
   1032c:	433d                	li	t1,15
   1032e:	872a                	mv	a4,a0
   10330:	02c37163          	bgeu	t1,a2,10352 <memset+0x26>
   10334:	00f77793          	and	a5,a4,15
   10338:	e3c1                	bnez	a5,103b8 <memset+0x8c>
   1033a:	e1bd                	bnez	a1,103a0 <memset+0x74>
   1033c:	ff067693          	and	a3,a2,-16
   10340:	8a3d                	and	a2,a2,15
   10342:	96ba                	add	a3,a3,a4
   10344:	e30c                	sd	a1,0(a4)
   10346:	e70c                	sd	a1,8(a4)
   10348:	0741                	add	a4,a4,16
   1034a:	fed76de3          	bltu	a4,a3,10344 <memset+0x18>
   1034e:	e211                	bnez	a2,10352 <memset+0x26>
   10350:	8082                	ret
   10352:	40c306b3          	sub	a3,t1,a2
   10356:	068a                	sll	a3,a3,0x2
   10358:	00000297          	auipc	t0,0x0
   1035c:	9696                	add	a3,a3,t0
   1035e:	00a68067          	jr	10(a3)
   10362:	00b70723          	sb	a1,14(a4)
   10366:	00b706a3          	sb	a1,13(a4)
   1036a:	00b70623          	sb	a1,12(a4)
   1036e:	00b705a3          	sb	a1,11(a4)
   10372:	00b70523          	sb	a1,10(a4)
   10376:	00b704a3          	sb	a1,9(a4)
   1037a:	00b70423          	sb	a1,8(a4)
   1037e:	00b703a3          	sb	a1,7(a4)
   10382:	00b70323          	sb	a1,6(a4)
   10386:	00b702a3          	sb	a1,5(a4)
   1038a:	00b70223          	sb	a1,4(a4)
   1038e:	00b701a3          	sb	a1,3(a4)
   10392:	00b70123          	sb	a1,2(a4)
   10396:	00b700a3          	sb	a1,1(a4)
   1039a:	00b70023          	sb	a1,0(a4)
   1039e:	8082                	ret
   103a0:	0ff5f593          	zext.b	a1,a1
   103a4:	00859693          	sll	a3,a1,0x8
   103a8:	8dd5                	or	a1,a1,a3
   103aa:	01059693          	sll	a3,a1,0x10
   103ae:	8dd5                	or	a1,a1,a3
   103b0:	02059693          	sll	a3,a1,0x20
   103b4:	8dd5                	or	a1,a1,a3
   103b6:	b759                	j	1033c <memset+0x10>
   103b8:	00279693          	sll	a3,a5,0x2
   103bc:	00000297          	auipc	t0,0x0
   103c0:	9696                	add	a3,a3,t0
   103c2:	8286                	mv	t0,ra
   103c4:	fa2680e7          	jalr	-94(a3)
   103c8:	8096                	mv	ra,t0
   103ca:	17c1                	add	a5,a5,-16
   103cc:	8f1d                	sub	a4,a4,a5
   103ce:	963e                	add	a2,a2,a5
   103d0:	f8c371e3          	bgeu	t1,a2,10352 <memset+0x26>
   103d4:	b79d                	j	1033a <memset+0xe>

00000000000103d6 <__call_exitprocs>:
   103d6:	715d                	add	sp,sp,-80
   103d8:	f052                	sd	s4,32(sp)
   103da:	fb81ba03          	ld	s4,-72(gp) # 11d48 <_global_impure_ptr>
   103de:	f84a                	sd	s2,48(sp)
   103e0:	e486                	sd	ra,72(sp)
   103e2:	1f8a3903          	ld	s2,504(s4)
   103e6:	e0a2                	sd	s0,64(sp)
   103e8:	fc26                	sd	s1,56(sp)
   103ea:	f44e                	sd	s3,40(sp)
   103ec:	ec56                	sd	s5,24(sp)
   103ee:	e85a                	sd	s6,16(sp)
   103f0:	e45e                	sd	s7,8(sp)
   103f2:	e062                	sd	s8,0(sp)
   103f4:	02090863          	beqz	s2,10424 <__call_exitprocs+0x4e>
   103f8:	8b2a                	mv	s6,a0
   103fa:	8bae                	mv	s7,a1
   103fc:	4a85                	li	s5,1
   103fe:	59fd                	li	s3,-1
   10400:	00892483          	lw	s1,8(s2)
   10404:	fff4841b          	addw	s0,s1,-1
   10408:	00044e63          	bltz	s0,10424 <__call_exitprocs+0x4e>
   1040c:	048e                	sll	s1,s1,0x3
   1040e:	94ca                	add	s1,s1,s2
   10410:	020b8663          	beqz	s7,1043c <__call_exitprocs+0x66>
   10414:	2084b783          	ld	a5,520(s1)
   10418:	03778263          	beq	a5,s7,1043c <__call_exitprocs+0x66>
   1041c:	347d                	addw	s0,s0,-1
   1041e:	14e1                	add	s1,s1,-8
   10420:	ff3418e3          	bne	s0,s3,10410 <__call_exitprocs+0x3a>
   10424:	60a6                	ld	ra,72(sp)
   10426:	6406                	ld	s0,64(sp)
   10428:	74e2                	ld	s1,56(sp)
   1042a:	7942                	ld	s2,48(sp)
   1042c:	79a2                	ld	s3,40(sp)
   1042e:	7a02                	ld	s4,32(sp)
   10430:	6ae2                	ld	s5,24(sp)
   10432:	6b42                	ld	s6,16(sp)
   10434:	6ba2                	ld	s7,8(sp)
   10436:	6c02                	ld	s8,0(sp)
   10438:	6161                	add	sp,sp,80
   1043a:	8082                	ret
   1043c:	00892783          	lw	a5,8(s2)
   10440:	6498                	ld	a4,8(s1)
   10442:	37fd                	addw	a5,a5,-1
   10444:	04878463          	beq	a5,s0,1048c <__call_exitprocs+0xb6>
   10448:	0004b423          	sd	zero,8(s1)
   1044c:	db61                	beqz	a4,1041c <__call_exitprocs+0x46>
   1044e:	31092783          	lw	a5,784(s2)
   10452:	008a96bb          	sllw	a3,s5,s0
   10456:	00892c03          	lw	s8,8(s2)
   1045a:	8ff5                	and	a5,a5,a3
   1045c:	2781                	sext.w	a5,a5
   1045e:	ef89                	bnez	a5,10478 <__call_exitprocs+0xa2>
   10460:	9702                	jalr	a4
   10462:	00892703          	lw	a4,8(s2)
   10466:	1f8a3783          	ld	a5,504(s4)
   1046a:	01871463          	bne	a4,s8,10472 <__call_exitprocs+0x9c>
   1046e:	fb2787e3          	beq	a5,s2,1041c <__call_exitprocs+0x46>
   10472:	dbcd                	beqz	a5,10424 <__call_exitprocs+0x4e>
   10474:	893e                	mv	s2,a5
   10476:	b769                	j	10400 <__call_exitprocs+0x2a>
   10478:	31492783          	lw	a5,788(s2)
   1047c:	1084b583          	ld	a1,264(s1)
   10480:	8ff5                	and	a5,a5,a3
   10482:	2781                	sext.w	a5,a5
   10484:	e799                	bnez	a5,10492 <__call_exitprocs+0xbc>
   10486:	855a                	mv	a0,s6
   10488:	9702                	jalr	a4
   1048a:	bfe1                	j	10462 <__call_exitprocs+0x8c>
   1048c:	00892423          	sw	s0,8(s2)
   10490:	bf75                	j	1044c <__call_exitprocs+0x76>
   10492:	852e                	mv	a0,a1
   10494:	9702                	jalr	a4
   10496:	b7f1                	j	10462 <__call_exitprocs+0x8c>

0000000000010498 <__libc_fini_array>:
   10498:	1101                	add	sp,sp,-32
   1049a:	e822                	sd	s0,16(sp)
   1049c:	67c5                	lui	a5,0x11
   1049e:	6445                	lui	s0,0x11
   104a0:	58878793          	add	a5,a5,1416 # 11588 <__do_global_dtors_aux_fini_array_entry>
   104a4:	59040413          	add	s0,s0,1424 # 11590 <__DATA_BEGIN__>
   104a8:	8c1d                	sub	s0,s0,a5
   104aa:	e426                	sd	s1,8(sp)
   104ac:	ec06                	sd	ra,24(sp)
   104ae:	40345493          	sra	s1,s0,0x3
   104b2:	c881                	beqz	s1,104c2 <__libc_fini_array+0x2a>
   104b4:	1461                	add	s0,s0,-8
   104b6:	943e                	add	s0,s0,a5
   104b8:	601c                	ld	a5,0(s0)
   104ba:	14fd                	add	s1,s1,-1
   104bc:	1461                	add	s0,s0,-8
   104be:	9782                	jalr	a5
   104c0:	fce5                	bnez	s1,104b8 <__libc_fini_array+0x20>
   104c2:	60e2                	ld	ra,24(sp)
   104c4:	6442                	ld	s0,16(sp)
   104c6:	64a2                	ld	s1,8(sp)
   104c8:	6105                	add	sp,sp,32
   104ca:	8082                	ret

00000000000104cc <atexit>:
   104cc:	85aa                	mv	a1,a0
   104ce:	4681                	li	a3,0
   104d0:	4601                	li	a2,0
   104d2:	4501                	li	a0,0
   104d4:	a009                	j	104d6 <__register_exitproc>

00000000000104d6 <__register_exitproc>:
   104d6:	fb81b703          	ld	a4,-72(gp) # 11d48 <_global_impure_ptr>
   104da:	1f873783          	ld	a5,504(a4)
   104de:	c3b1                	beqz	a5,10522 <__register_exitproc+0x4c>
   104e0:	4798                	lw	a4,8(a5)
   104e2:	487d                	li	a6,31
   104e4:	06e84263          	blt	a6,a4,10548 <__register_exitproc+0x72>
   104e8:	c505                	beqz	a0,10510 <__register_exitproc+0x3a>
   104ea:	00371813          	sll	a6,a4,0x3
   104ee:	983e                	add	a6,a6,a5
   104f0:	10c83823          	sd	a2,272(a6)
   104f4:	3107a883          	lw	a7,784(a5)
   104f8:	4605                	li	a2,1
   104fa:	00e6163b          	sllw	a2,a2,a4
   104fe:	00c8e8b3          	or	a7,a7,a2
   10502:	3117a823          	sw	a7,784(a5)
   10506:	20d83823          	sd	a3,528(a6)
   1050a:	4689                	li	a3,2
   1050c:	02d50063          	beq	a0,a3,1052c <__register_exitproc+0x56>
   10510:	00270693          	add	a3,a4,2
   10514:	068e                	sll	a3,a3,0x3
   10516:	2705                	addw	a4,a4,1
   10518:	c798                	sw	a4,8(a5)
   1051a:	97b6                	add	a5,a5,a3
   1051c:	e38c                	sd	a1,0(a5)
   1051e:	4501                	li	a0,0
   10520:	8082                	ret
   10522:	20070793          	add	a5,a4,512
   10526:	1ef73c23          	sd	a5,504(a4)
   1052a:	bf5d                	j	104e0 <__register_exitproc+0xa>
   1052c:	3147a683          	lw	a3,788(a5)
   10530:	4501                	li	a0,0
   10532:	8ed1                	or	a3,a3,a2
   10534:	30d7aa23          	sw	a3,788(a5)
   10538:	00270693          	add	a3,a4,2
   1053c:	068e                	sll	a3,a3,0x3
   1053e:	2705                	addw	a4,a4,1
   10540:	c798                	sw	a4,8(a5)
   10542:	97b6                	add	a5,a5,a3
   10544:	e38c                	sd	a1,0(a5)
   10546:	8082                	ret
   10548:	557d                	li	a0,-1
   1054a:	8082                	ret

000000000001054c <_exit>:
   1054c:	05d00893          	li	a7,93
   10550:	00000073          	ecall
   10554:	00054363          	bltz	a0,1055a <_exit+0xe>
   10558:	a001                	j	10558 <_exit+0xc>
   1055a:	1141                	add	sp,sp,-16
   1055c:	e022                	sd	s0,0(sp)
   1055e:	842a                	mv	s0,a0
   10560:	e406                	sd	ra,8(sp)
   10562:	4080043b          	negw	s0,s0
   10566:	008000ef          	jal	1056e <__errno>
   1056a:	c100                	sw	s0,0(a0)
   1056c:	a001                	j	1056c <_exit+0x20>

000000000001056e <__errno>:
   1056e:	fc81b503          	ld	a0,-56(gp) # 11d58 <_impure_ptr>
   10572:	8082                	ret

lhu.exe:     file format elf64-littleriscv


Disassembly of section .text:

00000000000100e8 <exit>:
   100e8:	1141                	add	sp,sp,-16
   100ea:	4581                	li	a1,0
   100ec:	e022                	sd	s0,0(sp)
   100ee:	e406                	sd	ra,8(sp)
   100f0:	842a                	mv	s0,a0
   100f2:	2ee000ef          	jal	103e0 <__call_exitprocs>
   100f6:	fa81b503          	ld	a0,-88(gp) # 11d48 <_global_impure_ptr>
   100fa:	6d3c                	ld	a5,88(a0)
   100fc:	c391                	beqz	a5,10100 <exit+0x18>
   100fe:	9782                	jalr	a5
   10100:	8522                	mv	a0,s0
   10102:	454000ef          	jal	10556 <_exit>

0000000000010106 <register_fini>:
   10106:	00000793          	li	a5,0
   1010a:	c789                	beqz	a5,10114 <register_fini+0xe>
   1010c:	6541                	lui	a0,0x10
   1010e:	4a250513          	add	a0,a0,1186 # 104a2 <__libc_fini_array>
   10112:	a6d1                	j	104d6 <atexit>
   10114:	8082                	ret

0000000000010116 <_start>:
   10116:	00002197          	auipc	gp,0x2
   1011a:	c8a18193          	add	gp,gp,-886 # 11da0 <__global_pointer$>
   1011e:	fc018513          	add	a0,gp,-64 # 11d60 <completed.1>
   10122:	ff818613          	add	a2,gp,-8 # 11d98 <__BSS_END__>
   10126:	8e09                	sub	a2,a2,a0
   10128:	4581                	li	a1,0
   1012a:	20c000ef          	jal	10336 <memset>
   1012e:	00000517          	auipc	a0,0x0
   10132:	3a850513          	add	a0,a0,936 # 104d6 <atexit>
   10136:	c519                	beqz	a0,10144 <_start+0x2e>
   10138:	00000517          	auipc	a0,0x0
   1013c:	36a50513          	add	a0,a0,874 # 104a2 <__libc_fini_array>
   10140:	396000ef          	jal	104d6 <atexit>
   10144:	188000ef          	jal	102cc <__libc_init_array>
   10148:	4502                	lw	a0,0(sp)
   1014a:	002c                	add	a1,sp,8
   1014c:	4601                	li	a2,0
   1014e:	04e000ef          	jal	1019c <main>
   10152:	bf59                	j	100e8 <exit>

0000000000010154 <__do_global_dtors_aux>:
   10154:	1141                	add	sp,sp,-16
   10156:	e022                	sd	s0,0(sp)
   10158:	fc01c783          	lbu	a5,-64(gp) # 11d60 <completed.1>
   1015c:	e406                	sd	ra,8(sp)
   1015e:	ef91                	bnez	a5,1017a <__do_global_dtors_aux+0x26>
   10160:	00000793          	li	a5,0
   10164:	cb81                	beqz	a5,10174 <__do_global_dtors_aux+0x20>
   10166:	6545                	lui	a0,0x11
   10168:	58050513          	add	a0,a0,1408 # 11580 <__EH_FRAME_BEGIN__>
   1016c:	00000097          	auipc	ra,0x0
   10170:	000000e7          	jalr	zero # 0 <exit-0x100e8>
   10174:	4785                	li	a5,1
   10176:	fcf18023          	sb	a5,-64(gp) # 11d60 <completed.1>
   1017a:	60a2                	ld	ra,8(sp)
   1017c:	6402                	ld	s0,0(sp)
   1017e:	0141                	add	sp,sp,16
   10180:	8082                	ret

0000000000010182 <frame_dummy>:
   10182:	00000793          	li	a5,0
   10186:	cb91                	beqz	a5,1019a <frame_dummy+0x18>
   10188:	6545                	lui	a0,0x11
   1018a:	fc818593          	add	a1,gp,-56 # 11d68 <object.0>
   1018e:	58050513          	add	a0,a0,1408 # 11580 <__EH_FRAME_BEGIN__>
   10192:	00000317          	auipc	t1,0x0
   10196:	00000067          	jr	zero # 0 <exit-0x100e8>
   1019a:	8082                	ret

000000000001019c <main>:
   1019c:	1101                	add	sp,sp,-32
   1019e:	ec22                	sd	s0,24(sp)
   101a0:	1000                	add	s0,sp,32
   101a2:	87aa                	mv	a5,a0
   101a4:	feb43023          	sd	a1,-32(s0)
   101a8:	fef42623          	sw	a5,-20(s0)

00000000000101ac <test_2>:
   101ac:	4189                	li	gp,2
   101ae:	0ff00793          	li	a5,255
   101b2:	00001097          	auipc	ra,0x1
   101b6:	3ee08093          	add	ra,ra,1006 # 115a0 <__DATA_BEGIN__>
   101ba:	0000d703          	lhu	a4,0(ra)
   101be:	0ff00393          	li	t2,255
   101c2:	0e771d63          	bne	a4,t2,102bc <fail>

00000000000101c6 <test_3>:
   101c6:	418d                	li	gp,3
   101c8:	67c1                	lui	a5,0x10
   101ca:	f007879b          	addw	a5,a5,-256 # ff00 <exit-0x1e8>
   101ce:	00001097          	auipc	ra,0x1
   101d2:	3d208093          	add	ra,ra,978 # 115a0 <__DATA_BEGIN__>
   101d6:	0020d703          	lhu	a4,2(ra)
   101da:	63c1                	lui	t2,0x10
   101dc:	f003839b          	addw	t2,t2,-256 # ff00 <exit-0x1e8>
   101e0:	0c771e63          	bne	a4,t2,102bc <fail>

00000000000101e4 <test_4>:
   101e4:	4191                	li	gp,4
   101e6:	6785                	lui	a5,0x1
   101e8:	37c1                	addw	a5,a5,-16 # ff0 <exit-0xf0f8>
   101ea:	00001097          	auipc	ra,0x1
   101ee:	3b608093          	add	ra,ra,950 # 115a0 <__DATA_BEGIN__>
   101f2:	0040d703          	lhu	a4,4(ra)
   101f6:	6385                	lui	t2,0x1
   101f8:	33c1                	addw	t2,t2,-16 # ff0 <exit-0xf0f8>
   101fa:	0c771163          	bne	a4,t2,102bc <fail>

00000000000101fe <test_5>:
   101fe:	4195                	li	gp,5
   10200:	67bd                	lui	a5,0xf
   10202:	27bd                	addw	a5,a5,15 # f00f <exit-0x10d9>
   10204:	00001097          	auipc	ra,0x1
   10208:	39c08093          	add	ra,ra,924 # 115a0 <__DATA_BEGIN__>
   1020c:	0060d703          	lhu	a4,6(ra)
   10210:	63bd                	lui	t2,0xf
   10212:	23bd                	addw	t2,t2,15 # f00f <exit-0x10d9>
   10214:	0a771463          	bne	a4,t2,102bc <fail>

0000000000010218 <test_6>:
   10218:	4199                	li	gp,6
   1021a:	0ff00793          	li	a5,255
   1021e:	00001097          	auipc	ra,0x1
   10222:	38808093          	add	ra,ra,904 # 115a6 <tdat4>
   10226:	ffa0d703          	lhu	a4,-6(ra)
   1022a:	0ff00393          	li	t2,255
   1022e:	08771763          	bne	a4,t2,102bc <fail>

0000000000010232 <test_7>:
   10232:	419d                	li	gp,7
   10234:	67c1                	lui	a5,0x10
   10236:	f007879b          	addw	a5,a5,-256 # ff00 <exit-0x1e8>
   1023a:	00001097          	auipc	ra,0x1
   1023e:	36c08093          	add	ra,ra,876 # 115a6 <tdat4>
   10242:	ffc0d703          	lhu	a4,-4(ra)
   10246:	63c1                	lui	t2,0x10
   10248:	f003839b          	addw	t2,t2,-256 # ff00 <exit-0x1e8>
   1024c:	06771863          	bne	a4,t2,102bc <fail>

0000000000010250 <test_8>:
   10250:	41a1                	li	gp,8
   10252:	6785                	lui	a5,0x1
   10254:	37c1                	addw	a5,a5,-16 # ff0 <exit-0xf0f8>
   10256:	00001097          	auipc	ra,0x1
   1025a:	35008093          	add	ra,ra,848 # 115a6 <tdat4>
   1025e:	ffe0d703          	lhu	a4,-2(ra)
   10262:	6385                	lui	t2,0x1
   10264:	33c1                	addw	t2,t2,-16 # ff0 <exit-0xf0f8>
   10266:	04771b63          	bne	a4,t2,102bc <fail>

000000000001026a <test_9>:
   1026a:	41a5                	li	gp,9
   1026c:	67bd                	lui	a5,0xf
   1026e:	27bd                	addw	a5,a5,15 # f00f <exit-0x10d9>
   10270:	00001097          	auipc	ra,0x1
   10274:	33608093          	add	ra,ra,822 # 115a6 <tdat4>
   10278:	0000d703          	lhu	a4,0(ra)
   1027c:	63bd                	lui	t2,0xf
   1027e:	23bd                	addw	t2,t2,15 # f00f <exit-0x10d9>
   10280:	02771e63          	bne	a4,t2,102bc <fail>

0000000000010284 <test_10>:
   10284:	41a9                	li	gp,10
   10286:	00001097          	auipc	ra,0x1
   1028a:	31a08093          	add	ra,ra,794 # 115a0 <__DATA_BEGIN__>
   1028e:	1081                	add	ra,ra,-32
   10290:	0200d283          	lhu	t0,32(ra)
   10294:	0ff00393          	li	t2,255
   10298:	02729263          	bne	t0,t2,102bc <fail>

000000000001029c <test_11>:
   1029c:	41ad                	li	gp,11
   1029e:	00001097          	auipc	ra,0x1
   102a2:	30208093          	add	ra,ra,770 # 115a0 <__DATA_BEGIN__>
   102a6:	10ed                	add	ra,ra,-5
   102a8:	0070d283          	lhu	t0,7(ra)
   102ac:	63c1                	lui	t2,0x10
   102ae:	f003839b          	addw	t2,t2,-256 # ff00 <exit-0x1e8>
   102b2:	00729563          	bne	t0,t2,102bc <fail>
   102b6:	00301263          	bne	zero,gp,102ba <pass>

00000000000102ba <pass>:
   102ba:	a019                	j	102c0 <continue>

00000000000102bc <fail>:
   102bc:	00000000          	.word	0x00000000

00000000000102c0 <continue>:
   102c0:	4081                	li	ra,0
   102c2:	4781                	li	a5,0
   102c4:	853e                	mv	a0,a5
   102c6:	6462                	ld	s0,24(sp)
   102c8:	6105                	add	sp,sp,32
   102ca:	8082                	ret

00000000000102cc <__libc_init_array>:
   102cc:	1101                	add	sp,sp,-32
   102ce:	e822                	sd	s0,16(sp)
   102d0:	67c5                	lui	a5,0x11
   102d2:	6445                	lui	s0,0x11
   102d4:	e04a                	sd	s2,0(sp)
   102d6:	58478793          	add	a5,a5,1412 # 11584 <__preinit_array_end>
   102da:	58440713          	add	a4,s0,1412 # 11584 <__preinit_array_end>
   102de:	ec06                	sd	ra,24(sp)
   102e0:	e426                	sd	s1,8(sp)
   102e2:	40e78933          	sub	s2,a5,a4
   102e6:	00e78d63          	beq	a5,a4,10300 <__libc_init_array+0x34>
   102ea:	40395913          	sra	s2,s2,0x3
   102ee:	58440413          	add	s0,s0,1412
   102f2:	4481                	li	s1,0
   102f4:	601c                	ld	a5,0(s0)
   102f6:	0485                	add	s1,s1,1
   102f8:	0421                	add	s0,s0,8
   102fa:	9782                	jalr	a5
   102fc:	ff24ece3          	bltu	s1,s2,102f4 <__libc_init_array+0x28>
   10300:	6445                	lui	s0,0x11
   10302:	67c5                	lui	a5,0x11
   10304:	59878793          	add	a5,a5,1432 # 11598 <__do_global_dtors_aux_fini_array_entry>
   10308:	58840713          	add	a4,s0,1416 # 11588 <__init_array_start>
   1030c:	40e78933          	sub	s2,a5,a4
   10310:	40395913          	sra	s2,s2,0x3
   10314:	00e78b63          	beq	a5,a4,1032a <__libc_init_array+0x5e>
   10318:	58840413          	add	s0,s0,1416
   1031c:	4481                	li	s1,0
   1031e:	601c                	ld	a5,0(s0)
   10320:	0485                	add	s1,s1,1
   10322:	0421                	add	s0,s0,8
   10324:	9782                	jalr	a5
   10326:	ff24ece3          	bltu	s1,s2,1031e <__libc_init_array+0x52>
   1032a:	60e2                	ld	ra,24(sp)
   1032c:	6442                	ld	s0,16(sp)
   1032e:	64a2                	ld	s1,8(sp)
   10330:	6902                	ld	s2,0(sp)
   10332:	6105                	add	sp,sp,32
   10334:	8082                	ret

0000000000010336 <memset>:
   10336:	433d                	li	t1,15
   10338:	872a                	mv	a4,a0
   1033a:	02c37163          	bgeu	t1,a2,1035c <memset+0x26>
   1033e:	00f77793          	and	a5,a4,15
   10342:	e3c1                	bnez	a5,103c2 <memset+0x8c>
   10344:	e1bd                	bnez	a1,103aa <memset+0x74>
   10346:	ff067693          	and	a3,a2,-16
   1034a:	8a3d                	and	a2,a2,15
   1034c:	96ba                	add	a3,a3,a4
   1034e:	e30c                	sd	a1,0(a4)
   10350:	e70c                	sd	a1,8(a4)
   10352:	0741                	add	a4,a4,16
   10354:	fed76de3          	bltu	a4,a3,1034e <memset+0x18>
   10358:	e211                	bnez	a2,1035c <memset+0x26>
   1035a:	8082                	ret
   1035c:	40c306b3          	sub	a3,t1,a2
   10360:	068a                	sll	a3,a3,0x2
   10362:	00000297          	auipc	t0,0x0
   10366:	9696                	add	a3,a3,t0
   10368:	00a68067          	jr	10(a3)
   1036c:	00b70723          	sb	a1,14(a4)
   10370:	00b706a3          	sb	a1,13(a4)
   10374:	00b70623          	sb	a1,12(a4)
   10378:	00b705a3          	sb	a1,11(a4)
   1037c:	00b70523          	sb	a1,10(a4)
   10380:	00b704a3          	sb	a1,9(a4)
   10384:	00b70423          	sb	a1,8(a4)
   10388:	00b703a3          	sb	a1,7(a4)
   1038c:	00b70323          	sb	a1,6(a4)
   10390:	00b702a3          	sb	a1,5(a4)
   10394:	00b70223          	sb	a1,4(a4)
   10398:	00b701a3          	sb	a1,3(a4)
   1039c:	00b70123          	sb	a1,2(a4)
   103a0:	00b700a3          	sb	a1,1(a4)
   103a4:	00b70023          	sb	a1,0(a4)
   103a8:	8082                	ret
   103aa:	0ff5f593          	zext.b	a1,a1
   103ae:	00859693          	sll	a3,a1,0x8
   103b2:	8dd5                	or	a1,a1,a3
   103b4:	01059693          	sll	a3,a1,0x10
   103b8:	8dd5                	or	a1,a1,a3
   103ba:	02059693          	sll	a3,a1,0x20
   103be:	8dd5                	or	a1,a1,a3
   103c0:	b759                	j	10346 <memset+0x10>
   103c2:	00279693          	sll	a3,a5,0x2
   103c6:	00000297          	auipc	t0,0x0
   103ca:	9696                	add	a3,a3,t0
   103cc:	8286                	mv	t0,ra
   103ce:	fa2680e7          	jalr	-94(a3)
   103d2:	8096                	mv	ra,t0
   103d4:	17c1                	add	a5,a5,-16
   103d6:	8f1d                	sub	a4,a4,a5
   103d8:	963e                	add	a2,a2,a5
   103da:	f8c371e3          	bgeu	t1,a2,1035c <memset+0x26>
   103de:	b79d                	j	10344 <memset+0xe>

00000000000103e0 <__call_exitprocs>:
   103e0:	715d                	add	sp,sp,-80
   103e2:	f052                	sd	s4,32(sp)
   103e4:	fa81ba03          	ld	s4,-88(gp) # 11d48 <_global_impure_ptr>
   103e8:	f84a                	sd	s2,48(sp)
   103ea:	e486                	sd	ra,72(sp)
   103ec:	1f8a3903          	ld	s2,504(s4)
   103f0:	e0a2                	sd	s0,64(sp)
   103f2:	fc26                	sd	s1,56(sp)
   103f4:	f44e                	sd	s3,40(sp)
   103f6:	ec56                	sd	s5,24(sp)
   103f8:	e85a                	sd	s6,16(sp)
   103fa:	e45e                	sd	s7,8(sp)
   103fc:	e062                	sd	s8,0(sp)
   103fe:	02090863          	beqz	s2,1042e <__call_exitprocs+0x4e>
   10402:	8b2a                	mv	s6,a0
   10404:	8bae                	mv	s7,a1
   10406:	4a85                	li	s5,1
   10408:	59fd                	li	s3,-1
   1040a:	00892483          	lw	s1,8(s2)
   1040e:	fff4841b          	addw	s0,s1,-1
   10412:	00044e63          	bltz	s0,1042e <__call_exitprocs+0x4e>
   10416:	048e                	sll	s1,s1,0x3
   10418:	94ca                	add	s1,s1,s2
   1041a:	020b8663          	beqz	s7,10446 <__call_exitprocs+0x66>
   1041e:	2084b783          	ld	a5,520(s1)
   10422:	03778263          	beq	a5,s7,10446 <__call_exitprocs+0x66>
   10426:	347d                	addw	s0,s0,-1
   10428:	14e1                	add	s1,s1,-8
   1042a:	ff3418e3          	bne	s0,s3,1041a <__call_exitprocs+0x3a>
   1042e:	60a6                	ld	ra,72(sp)
   10430:	6406                	ld	s0,64(sp)
   10432:	74e2                	ld	s1,56(sp)
   10434:	7942                	ld	s2,48(sp)
   10436:	79a2                	ld	s3,40(sp)
   10438:	7a02                	ld	s4,32(sp)
   1043a:	6ae2                	ld	s5,24(sp)
   1043c:	6b42                	ld	s6,16(sp)
   1043e:	6ba2                	ld	s7,8(sp)
   10440:	6c02                	ld	s8,0(sp)
   10442:	6161                	add	sp,sp,80
   10444:	8082                	ret
   10446:	00892783          	lw	a5,8(s2)
   1044a:	6498                	ld	a4,8(s1)
   1044c:	37fd                	addw	a5,a5,-1
   1044e:	04878463          	beq	a5,s0,10496 <__call_exitprocs+0xb6>
   10452:	0004b423          	sd	zero,8(s1)
   10456:	db61                	beqz	a4,10426 <__call_exitprocs+0x46>
   10458:	31092783          	lw	a5,784(s2)
   1045c:	008a96bb          	sllw	a3,s5,s0
   10460:	00892c03          	lw	s8,8(s2)
   10464:	8ff5                	and	a5,a5,a3
   10466:	2781                	sext.w	a5,a5
   10468:	ef89                	bnez	a5,10482 <__call_exitprocs+0xa2>
   1046a:	9702                	jalr	a4
   1046c:	00892703          	lw	a4,8(s2)
   10470:	1f8a3783          	ld	a5,504(s4)
   10474:	01871463          	bne	a4,s8,1047c <__call_exitprocs+0x9c>
   10478:	fb2787e3          	beq	a5,s2,10426 <__call_exitprocs+0x46>
   1047c:	dbcd                	beqz	a5,1042e <__call_exitprocs+0x4e>
   1047e:	893e                	mv	s2,a5
   10480:	b769                	j	1040a <__call_exitprocs+0x2a>
   10482:	31492783          	lw	a5,788(s2)
   10486:	1084b583          	ld	a1,264(s1)
   1048a:	8ff5                	and	a5,a5,a3
   1048c:	2781                	sext.w	a5,a5
   1048e:	e799                	bnez	a5,1049c <__call_exitprocs+0xbc>
   10490:	855a                	mv	a0,s6
   10492:	9702                	jalr	a4
   10494:	bfe1                	j	1046c <__call_exitprocs+0x8c>
   10496:	00892423          	sw	s0,8(s2)
   1049a:	bf75                	j	10456 <__call_exitprocs+0x76>
   1049c:	852e                	mv	a0,a1
   1049e:	9702                	jalr	a4
   104a0:	b7f1                	j	1046c <__call_exitprocs+0x8c>

00000000000104a2 <__libc_fini_array>:
   104a2:	1101                	add	sp,sp,-32
   104a4:	e822                	sd	s0,16(sp)
   104a6:	67c5                	lui	a5,0x11
   104a8:	6445                	lui	s0,0x11
   104aa:	59878793          	add	a5,a5,1432 # 11598 <__do_global_dtors_aux_fini_array_entry>
   104ae:	5a040413          	add	s0,s0,1440 # 115a0 <__DATA_BEGIN__>
   104b2:	8c1d                	sub	s0,s0,a5
   104b4:	e426                	sd	s1,8(sp)
   104b6:	ec06                	sd	ra,24(sp)
   104b8:	40345493          	sra	s1,s0,0x3
   104bc:	c881                	beqz	s1,104cc <__libc_fini_array+0x2a>
   104be:	1461                	add	s0,s0,-8
   104c0:	943e                	add	s0,s0,a5
   104c2:	601c                	ld	a5,0(s0)
   104c4:	14fd                	add	s1,s1,-1
   104c6:	1461                	add	s0,s0,-8
   104c8:	9782                	jalr	a5
   104ca:	fce5                	bnez	s1,104c2 <__libc_fini_array+0x20>
   104cc:	60e2                	ld	ra,24(sp)
   104ce:	6442                	ld	s0,16(sp)
   104d0:	64a2                	ld	s1,8(sp)
   104d2:	6105                	add	sp,sp,32
   104d4:	8082                	ret

00000000000104d6 <atexit>:
   104d6:	85aa                	mv	a1,a0
   104d8:	4681                	li	a3,0
   104da:	4601                	li	a2,0
   104dc:	4501                	li	a0,0
   104de:	a009                	j	104e0 <__register_exitproc>

00000000000104e0 <__register_exitproc>:
   104e0:	fa81b703          	ld	a4,-88(gp) # 11d48 <_global_impure_ptr>
   104e4:	1f873783          	ld	a5,504(a4)
   104e8:	c3b1                	beqz	a5,1052c <__register_exitproc+0x4c>
   104ea:	4798                	lw	a4,8(a5)
   104ec:	487d                	li	a6,31
   104ee:	06e84263          	blt	a6,a4,10552 <__register_exitproc+0x72>
   104f2:	c505                	beqz	a0,1051a <__register_exitproc+0x3a>
   104f4:	00371813          	sll	a6,a4,0x3
   104f8:	983e                	add	a6,a6,a5
   104fa:	10c83823          	sd	a2,272(a6)
   104fe:	3107a883          	lw	a7,784(a5)
   10502:	4605                	li	a2,1
   10504:	00e6163b          	sllw	a2,a2,a4
   10508:	00c8e8b3          	or	a7,a7,a2
   1050c:	3117a823          	sw	a7,784(a5)
   10510:	20d83823          	sd	a3,528(a6)
   10514:	4689                	li	a3,2
   10516:	02d50063          	beq	a0,a3,10536 <__register_exitproc+0x56>
   1051a:	00270693          	add	a3,a4,2
   1051e:	068e                	sll	a3,a3,0x3
   10520:	2705                	addw	a4,a4,1
   10522:	c798                	sw	a4,8(a5)
   10524:	97b6                	add	a5,a5,a3
   10526:	e38c                	sd	a1,0(a5)
   10528:	4501                	li	a0,0
   1052a:	8082                	ret
   1052c:	20070793          	add	a5,a4,512
   10530:	1ef73c23          	sd	a5,504(a4)
   10534:	bf5d                	j	104ea <__register_exitproc+0xa>
   10536:	3147a683          	lw	a3,788(a5)
   1053a:	4501                	li	a0,0
   1053c:	8ed1                	or	a3,a3,a2
   1053e:	30d7aa23          	sw	a3,788(a5)
   10542:	00270693          	add	a3,a4,2
   10546:	068e                	sll	a3,a3,0x3
   10548:	2705                	addw	a4,a4,1
   1054a:	c798                	sw	a4,8(a5)
   1054c:	97b6                	add	a5,a5,a3
   1054e:	e38c                	sd	a1,0(a5)
   10550:	8082                	ret
   10552:	557d                	li	a0,-1
   10554:	8082                	ret

0000000000010556 <_exit>:
   10556:	05d00893          	li	a7,93
   1055a:	00000073          	ecall
   1055e:	00054363          	bltz	a0,10564 <_exit+0xe>
   10562:	a001                	j	10562 <_exit+0xc>
   10564:	1141                	add	sp,sp,-16
   10566:	e022                	sd	s0,0(sp)
   10568:	842a                	mv	s0,a0
   1056a:	e406                	sd	ra,8(sp)
   1056c:	4080043b          	negw	s0,s0
   10570:	008000ef          	jal	10578 <__errno>
   10574:	c100                	sw	s0,0(a0)
   10576:	a001                	j	10576 <_exit+0x20>

0000000000010578 <__errno>:
   10578:	fb81b503          	ld	a0,-72(gp) # 11d58 <_impure_ptr>
   1057c:	8082                	ret

addi.exe:     file format elf64-littleriscv


Disassembly of section .text:

00000000000100e8 <exit>:
   100e8:	1141                	add	sp,sp,-16
   100ea:	4581                	li	a1,0
   100ec:	e022                	sd	s0,0(sp)
   100ee:	e406                	sd	ra,8(sp)
   100f0:	842a                	mv	s0,a0
   100f2:	2f0000ef          	jal	103e2 <__call_exitprocs>
   100f6:	f481b503          	ld	a0,-184(gp) # 11ce8 <_global_impure_ptr>
   100fa:	6d3c                	ld	a5,88(a0)
   100fc:	c391                	beqz	a5,10100 <exit+0x18>
   100fe:	9782                	jalr	a5
   10100:	8522                	mv	a0,s0
   10102:	456000ef          	jal	10558 <_exit>

0000000000010106 <register_fini>:
   10106:	00000793          	li	a5,0
   1010a:	c789                	beqz	a5,10114 <register_fini+0xe>
   1010c:	6541                	lui	a0,0x10
   1010e:	4a450513          	add	a0,a0,1188 # 104a4 <__libc_fini_array>
   10112:	a6d9                	j	104d8 <atexit>
   10114:	8082                	ret

0000000000010116 <_start>:
   10116:	00002197          	auipc	gp,0x2
   1011a:	c8a18193          	add	gp,gp,-886 # 11da0 <__global_pointer$>
   1011e:	f6018513          	add	a0,gp,-160 # 11d00 <completed.1>
   10122:	f9818613          	add	a2,gp,-104 # 11d38 <__BSS_END__>
   10126:	8e09                	sub	a2,a2,a0
   10128:	4581                	li	a1,0
   1012a:	20e000ef          	jal	10338 <memset>
   1012e:	00000517          	auipc	a0,0x0
   10132:	3aa50513          	add	a0,a0,938 # 104d8 <atexit>
   10136:	c519                	beqz	a0,10144 <_start+0x2e>
   10138:	00000517          	auipc	a0,0x0
   1013c:	36c50513          	add	a0,a0,876 # 104a4 <__libc_fini_array>
   10140:	398000ef          	jal	104d8 <atexit>
   10144:	18a000ef          	jal	102ce <__libc_init_array>
   10148:	4502                	lw	a0,0(sp)
   1014a:	002c                	add	a1,sp,8
   1014c:	4601                	li	a2,0
   1014e:	04e000ef          	jal	1019c <main>
   10152:	bf59                	j	100e8 <exit>

0000000000010154 <__do_global_dtors_aux>:
   10154:	1141                	add	sp,sp,-16
   10156:	e022                	sd	s0,0(sp)
   10158:	f601c783          	lbu	a5,-160(gp) # 11d00 <completed.1>
   1015c:	e406                	sd	ra,8(sp)
   1015e:	ef91                	bnez	a5,1017a <__do_global_dtors_aux+0x26>
   10160:	00000793          	li	a5,0
   10164:	cb81                	beqz	a5,10174 <__do_global_dtors_aux+0x20>
   10166:	6545                	lui	a0,0x11
   10168:	58050513          	add	a0,a0,1408 # 11580 <__EH_FRAME_BEGIN__>
   1016c:	00000097          	auipc	ra,0x0
   10170:	000000e7          	jalr	zero # 0 <exit-0x100e8>
   10174:	4785                	li	a5,1
   10176:	f6f18023          	sb	a5,-160(gp) # 11d00 <completed.1>
   1017a:	60a2                	ld	ra,8(sp)
   1017c:	6402                	ld	s0,0(sp)
   1017e:	0141                	add	sp,sp,16
   10180:	8082                	ret

0000000000010182 <frame_dummy>:
   10182:	00000793          	li	a5,0
   10186:	cb91                	beqz	a5,1019a <frame_dummy+0x18>
   10188:	6545                	lui	a0,0x11
   1018a:	f6818593          	add	a1,gp,-152 # 11d08 <object.0>
   1018e:	58050513          	add	a0,a0,1408 # 11580 <__EH_FRAME_BEGIN__>
   10192:	00000317          	auipc	t1,0x0
   10196:	00000067          	jr	zero # 0 <exit-0x100e8>
   1019a:	8082                	ret

000000000001019c <main>:
   1019c:	1101                	add	sp,sp,-32
   1019e:	ec22                	sd	s0,24(sp)
   101a0:	1000                	add	s0,sp,32
   101a2:	87aa                	mv	a5,a0
   101a4:	feb43023          	sd	a1,-32(s0)
   101a8:	fef42623          	sw	a5,-20(s0)

00000000000101ac <test_2>:
   101ac:	4189                	li	gp,2
   101ae:	4081                	li	ra,0
   101b0:	8706                	mv	a4,ra
   101b2:	4381                	li	t2,0
   101b4:	10771563          	bne	a4,t2,102be <fail>

00000000000101b8 <test_3>:
   101b8:	418d                	li	gp,3
   101ba:	4085                	li	ra,1
   101bc:	00108713          	add	a4,ra,1 # 1016d <__do_global_dtors_aux+0x19>
   101c0:	4389                	li	t2,2
   101c2:	0e771e63          	bne	a4,t2,102be <fail>

00000000000101c6 <test_4>:
   101c6:	4191                	li	gp,4
   101c8:	408d                	li	ra,3
   101ca:	00708713          	add	a4,ra,7
   101ce:	43a9                	li	t2,10
   101d0:	0e771763          	bne	a4,t2,102be <fail>

00000000000101d4 <test_5>:
   101d4:	4195                	li	gp,5
   101d6:	4081                	li	ra,0
   101d8:	80008713          	add	a4,ra,-2048
   101dc:	80000393          	li	t2,-2048
   101e0:	0c771f63          	bne	a4,t2,102be <fail>

00000000000101e4 <test_6>:
   101e4:	4199                	li	gp,6
   101e6:	800000b7          	lui	ra,0x80000
   101ea:	8706                	mv	a4,ra
   101ec:	800003b7          	lui	t2,0x80000
   101f0:	0c771763          	bne	a4,t2,102be <fail>

00000000000101f4 <test_7>:
   101f4:	419d                	li	gp,7
   101f6:	800000b7          	lui	ra,0x80000
   101fa:	80008713          	add	a4,ra,-2048 # ffffffff7ffff800 <__global_pointer$+0xffffffff7ffeda60>
   101fe:	fff0039b          	addw	t2,zero,-1
   10202:	03fe                	sll	t2,t2,0x1f
   10204:	80038393          	add	t2,t2,-2048 # ffffffff7ffff800 <__global_pointer$+0xffffffff7ffeda60>
   10208:	0a771b63          	bne	a4,t2,102be <fail>

000000000001020c <test_8>:
   1020c:	41a1                	li	gp,8
   1020e:	4081                	li	ra,0
   10210:	7ff08713          	add	a4,ra,2047
   10214:	7ff00393          	li	t2,2047
   10218:	0a771363          	bne	a4,t2,102be <fail>

000000000001021c <test_9>:
   1021c:	41a5                	li	gp,9
   1021e:	800000b7          	lui	ra,0x80000
   10222:	30fd                	addw	ra,ra,-1 # 7fffffff <__global_pointer$+0x7ffee25f>
   10224:	8706                	mv	a4,ra
   10226:	800003b7          	lui	t2,0x80000
   1022a:	33fd                	addw	t2,t2,-1 # 7fffffff <__global_pointer$+0x7ffee25f>
   1022c:	08771963          	bne	a4,t2,102be <fail>

0000000000010230 <test_10>:
   10230:	41a9                	li	gp,10
   10232:	800000b7          	lui	ra,0x80000
   10236:	30fd                	addw	ra,ra,-1 # 7fffffff <__global_pointer$+0x7ffee25f>
   10238:	7ff08713          	add	a4,ra,2047
   1023c:	0010039b          	addw	t2,zero,1
   10240:	03fe                	sll	t2,t2,0x1f
   10242:	7fe38393          	add	t2,t2,2046
   10246:	06771c63          	bne	a4,t2,102be <fail>

000000000001024a <test_11>:
   1024a:	41ad                	li	gp,11
   1024c:	800000b7          	lui	ra,0x80000
   10250:	7ff08713          	add	a4,ra,2047 # ffffffff800007ff <__global_pointer$+0xffffffff7ffeea5f>
   10254:	800003b7          	lui	t2,0x80000
   10258:	7ff3839b          	addw	t2,t2,2047 # ffffffff800007ff <__global_pointer$+0xffffffff7ffeea5f>
   1025c:	06771163          	bne	a4,t2,102be <fail>

0000000000010260 <test_12>:
   10260:	41b1                	li	gp,12
   10262:	800000b7          	lui	ra,0x80000
   10266:	30fd                	addw	ra,ra,-1 # 7fffffff <__global_pointer$+0x7ffee25f>
   10268:	80008713          	add	a4,ra,-2048
   1026c:	7ffff3b7          	lui	t2,0x7ffff
   10270:	7ff3839b          	addw	t2,t2,2047 # 7ffff7ff <__global_pointer$+0x7ffeda5f>
   10274:	04771563          	bne	a4,t2,102be <fail>

0000000000010278 <test_13>:
   10278:	41b5                	li	gp,13
   1027a:	4081                	li	ra,0
   1027c:	fff08713          	add	a4,ra,-1
   10280:	53fd                	li	t2,-1
   10282:	02771e63          	bne	a4,t2,102be <fail>

0000000000010286 <test_14>:
   10286:	41b9                	li	gp,14
   10288:	50fd                	li	ra,-1
   1028a:	00108713          	add	a4,ra,1
   1028e:	4381                	li	t2,0
   10290:	02771763          	bne	a4,t2,102be <fail>

0000000000010294 <test_15>:
   10294:	41bd                	li	gp,15
   10296:	50fd                	li	ra,-1
   10298:	fff08713          	add	a4,ra,-1
   1029c:	53f9                	li	t2,-2
   1029e:	02771063          	bne	a4,t2,102be <fail>

00000000000102a2 <test_16>:
   102a2:	41c1                	li	gp,16
   102a4:	800000b7          	lui	ra,0x80000
   102a8:	30fd                	addw	ra,ra,-1 # 7fffffff <__global_pointer$+0x7ffee25f>
   102aa:	00108713          	add	a4,ra,1
   102ae:	0010039b          	addw	t2,zero,1
   102b2:	03fe                	sll	t2,t2,0x1f
   102b4:	00771563          	bne	a4,t2,102be <fail>
   102b8:	00301263          	bne	zero,gp,102bc <pass>

00000000000102bc <pass>:
   102bc:	a019                	j	102c2 <continue>

00000000000102be <fail>:
   102be:	0000                	unimp
	...

00000000000102c2 <continue>:
   102c2:	4081                	li	ra,0
   102c4:	4781                	li	a5,0
   102c6:	853e                	mv	a0,a5
   102c8:	6462                	ld	s0,24(sp)
   102ca:	6105                	add	sp,sp,32
   102cc:	8082                	ret

00000000000102ce <__libc_init_array>:
   102ce:	1101                	add	sp,sp,-32
   102d0:	e822                	sd	s0,16(sp)
   102d2:	67c5                	lui	a5,0x11
   102d4:	6445                	lui	s0,0x11
   102d6:	e04a                	sd	s2,0(sp)
   102d8:	58478793          	add	a5,a5,1412 # 11584 <__preinit_array_end>
   102dc:	58440713          	add	a4,s0,1412 # 11584 <__preinit_array_end>
   102e0:	ec06                	sd	ra,24(sp)
   102e2:	e426                	sd	s1,8(sp)
   102e4:	40e78933          	sub	s2,a5,a4
   102e8:	00e78d63          	beq	a5,a4,10302 <__libc_init_array+0x34>
   102ec:	40395913          	sra	s2,s2,0x3
   102f0:	58440413          	add	s0,s0,1412
   102f4:	4481                	li	s1,0
   102f6:	601c                	ld	a5,0(s0)
   102f8:	0485                	add	s1,s1,1
   102fa:	0421                	add	s0,s0,8
   102fc:	9782                	jalr	a5
   102fe:	ff24ece3          	bltu	s1,s2,102f6 <__libc_init_array+0x28>
   10302:	6445                	lui	s0,0x11
   10304:	67c5                	lui	a5,0x11
   10306:	59878793          	add	a5,a5,1432 # 11598 <__do_global_dtors_aux_fini_array_entry>
   1030a:	58840713          	add	a4,s0,1416 # 11588 <__init_array_start>
   1030e:	40e78933          	sub	s2,a5,a4
   10312:	40395913          	sra	s2,s2,0x3
   10316:	00e78b63          	beq	a5,a4,1032c <__libc_init_array+0x5e>
   1031a:	58840413          	add	s0,s0,1416
   1031e:	4481                	li	s1,0
   10320:	601c                	ld	a5,0(s0)
   10322:	0485                	add	s1,s1,1
   10324:	0421                	add	s0,s0,8
   10326:	9782                	jalr	a5
   10328:	ff24ece3          	bltu	s1,s2,10320 <__libc_init_array+0x52>
   1032c:	60e2                	ld	ra,24(sp)
   1032e:	6442                	ld	s0,16(sp)
   10330:	64a2                	ld	s1,8(sp)
   10332:	6902                	ld	s2,0(sp)
   10334:	6105                	add	sp,sp,32
   10336:	8082                	ret

0000000000010338 <memset>:
   10338:	433d                	li	t1,15
   1033a:	872a                	mv	a4,a0
   1033c:	02c37163          	bgeu	t1,a2,1035e <memset+0x26>
   10340:	00f77793          	and	a5,a4,15
   10344:	e3c1                	bnez	a5,103c4 <memset+0x8c>
   10346:	e1bd                	bnez	a1,103ac <memset+0x74>
   10348:	ff067693          	and	a3,a2,-16
   1034c:	8a3d                	and	a2,a2,15
   1034e:	96ba                	add	a3,a3,a4
   10350:	e30c                	sd	a1,0(a4)
   10352:	e70c                	sd	a1,8(a4)
   10354:	0741                	add	a4,a4,16
   10356:	fed76de3          	bltu	a4,a3,10350 <memset+0x18>
   1035a:	e211                	bnez	a2,1035e <memset+0x26>
   1035c:	8082                	ret
   1035e:	40c306b3          	sub	a3,t1,a2
   10362:	068a                	sll	a3,a3,0x2
   10364:	00000297          	auipc	t0,0x0
   10368:	9696                	add	a3,a3,t0
   1036a:	00a68067          	jr	10(a3)
   1036e:	00b70723          	sb	a1,14(a4)
   10372:	00b706a3          	sb	a1,13(a4)
   10376:	00b70623          	sb	a1,12(a4)
   1037a:	00b705a3          	sb	a1,11(a4)
   1037e:	00b70523          	sb	a1,10(a4)
   10382:	00b704a3          	sb	a1,9(a4)
   10386:	00b70423          	sb	a1,8(a4)
   1038a:	00b703a3          	sb	a1,7(a4)
   1038e:	00b70323          	sb	a1,6(a4)
   10392:	00b702a3          	sb	a1,5(a4)
   10396:	00b70223          	sb	a1,4(a4)
   1039a:	00b701a3          	sb	a1,3(a4)
   1039e:	00b70123          	sb	a1,2(a4)
   103a2:	00b700a3          	sb	a1,1(a4)
   103a6:	00b70023          	sb	a1,0(a4)
   103aa:	8082                	ret
   103ac:	0ff5f593          	zext.b	a1,a1
   103b0:	00859693          	sll	a3,a1,0x8
   103b4:	8dd5                	or	a1,a1,a3
   103b6:	01059693          	sll	a3,a1,0x10
   103ba:	8dd5                	or	a1,a1,a3
   103bc:	02059693          	sll	a3,a1,0x20
   103c0:	8dd5                	or	a1,a1,a3
   103c2:	b759                	j	10348 <memset+0x10>
   103c4:	00279693          	sll	a3,a5,0x2
   103c8:	00000297          	auipc	t0,0x0
   103cc:	9696                	add	a3,a3,t0
   103ce:	8286                	mv	t0,ra
   103d0:	fa2680e7          	jalr	-94(a3)
   103d4:	8096                	mv	ra,t0
   103d6:	17c1                	add	a5,a5,-16
   103d8:	8f1d                	sub	a4,a4,a5
   103da:	963e                	add	a2,a2,a5
   103dc:	f8c371e3          	bgeu	t1,a2,1035e <memset+0x26>
   103e0:	b79d                	j	10346 <memset+0xe>

00000000000103e2 <__call_exitprocs>:
   103e2:	715d                	add	sp,sp,-80
   103e4:	f052                	sd	s4,32(sp)
   103e6:	f481ba03          	ld	s4,-184(gp) # 11ce8 <_global_impure_ptr>
   103ea:	f84a                	sd	s2,48(sp)
   103ec:	e486                	sd	ra,72(sp)
   103ee:	1f8a3903          	ld	s2,504(s4)
   103f2:	e0a2                	sd	s0,64(sp)
   103f4:	fc26                	sd	s1,56(sp)
   103f6:	f44e                	sd	s3,40(sp)
   103f8:	ec56                	sd	s5,24(sp)
   103fa:	e85a                	sd	s6,16(sp)
   103fc:	e45e                	sd	s7,8(sp)
   103fe:	e062                	sd	s8,0(sp)
   10400:	02090863          	beqz	s2,10430 <__call_exitprocs+0x4e>
   10404:	8b2a                	mv	s6,a0
   10406:	8bae                	mv	s7,a1
   10408:	4a85                	li	s5,1
   1040a:	59fd                	li	s3,-1
   1040c:	00892483          	lw	s1,8(s2)
   10410:	fff4841b          	addw	s0,s1,-1
   10414:	00044e63          	bltz	s0,10430 <__call_exitprocs+0x4e>
   10418:	048e                	sll	s1,s1,0x3
   1041a:	94ca                	add	s1,s1,s2
   1041c:	020b8663          	beqz	s7,10448 <__call_exitprocs+0x66>
   10420:	2084b783          	ld	a5,520(s1)
   10424:	03778263          	beq	a5,s7,10448 <__call_exitprocs+0x66>
   10428:	347d                	addw	s0,s0,-1
   1042a:	14e1                	add	s1,s1,-8
   1042c:	ff3418e3          	bne	s0,s3,1041c <__call_exitprocs+0x3a>
   10430:	60a6                	ld	ra,72(sp)
   10432:	6406                	ld	s0,64(sp)
   10434:	74e2                	ld	s1,56(sp)
   10436:	7942                	ld	s2,48(sp)
   10438:	79a2                	ld	s3,40(sp)
   1043a:	7a02                	ld	s4,32(sp)
   1043c:	6ae2                	ld	s5,24(sp)
   1043e:	6b42                	ld	s6,16(sp)
   10440:	6ba2                	ld	s7,8(sp)
   10442:	6c02                	ld	s8,0(sp)
   10444:	6161                	add	sp,sp,80
   10446:	8082                	ret
   10448:	00892783          	lw	a5,8(s2)
   1044c:	6498                	ld	a4,8(s1)
   1044e:	37fd                	addw	a5,a5,-1
   10450:	04878463          	beq	a5,s0,10498 <__call_exitprocs+0xb6>
   10454:	0004b423          	sd	zero,8(s1)
   10458:	db61                	beqz	a4,10428 <__call_exitprocs+0x46>
   1045a:	31092783          	lw	a5,784(s2)
   1045e:	008a96bb          	sllw	a3,s5,s0
   10462:	00892c03          	lw	s8,8(s2)
   10466:	8ff5                	and	a5,a5,a3
   10468:	2781                	sext.w	a5,a5
   1046a:	ef89                	bnez	a5,10484 <__call_exitprocs+0xa2>
   1046c:	9702                	jalr	a4
   1046e:	00892703          	lw	a4,8(s2)
   10472:	1f8a3783          	ld	a5,504(s4)
   10476:	01871463          	bne	a4,s8,1047e <__call_exitprocs+0x9c>
   1047a:	fb2787e3          	beq	a5,s2,10428 <__call_exitprocs+0x46>
   1047e:	dbcd                	beqz	a5,10430 <__call_exitprocs+0x4e>
   10480:	893e                	mv	s2,a5
   10482:	b769                	j	1040c <__call_exitprocs+0x2a>
   10484:	31492783          	lw	a5,788(s2)
   10488:	1084b583          	ld	a1,264(s1)
   1048c:	8ff5                	and	a5,a5,a3
   1048e:	2781                	sext.w	a5,a5
   10490:	e799                	bnez	a5,1049e <__call_exitprocs+0xbc>
   10492:	855a                	mv	a0,s6
   10494:	9702                	jalr	a4
   10496:	bfe1                	j	1046e <__call_exitprocs+0x8c>
   10498:	00892423          	sw	s0,8(s2)
   1049c:	bf75                	j	10458 <__call_exitprocs+0x76>
   1049e:	852e                	mv	a0,a1
   104a0:	9702                	jalr	a4
   104a2:	b7f1                	j	1046e <__call_exitprocs+0x8c>

00000000000104a4 <__libc_fini_array>:
   104a4:	1101                	add	sp,sp,-32
   104a6:	e822                	sd	s0,16(sp)
   104a8:	67c5                	lui	a5,0x11
   104aa:	6445                	lui	s0,0x11
   104ac:	59878793          	add	a5,a5,1432 # 11598 <__do_global_dtors_aux_fini_array_entry>
   104b0:	5a040413          	add	s0,s0,1440 # 115a0 <impure_data>
   104b4:	8c1d                	sub	s0,s0,a5
   104b6:	e426                	sd	s1,8(sp)
   104b8:	ec06                	sd	ra,24(sp)
   104ba:	40345493          	sra	s1,s0,0x3
   104be:	c881                	beqz	s1,104ce <__libc_fini_array+0x2a>
   104c0:	1461                	add	s0,s0,-8
   104c2:	943e                	add	s0,s0,a5
   104c4:	601c                	ld	a5,0(s0)
   104c6:	14fd                	add	s1,s1,-1
   104c8:	1461                	add	s0,s0,-8
   104ca:	9782                	jalr	a5
   104cc:	fce5                	bnez	s1,104c4 <__libc_fini_array+0x20>
   104ce:	60e2                	ld	ra,24(sp)
   104d0:	6442                	ld	s0,16(sp)
   104d2:	64a2                	ld	s1,8(sp)
   104d4:	6105                	add	sp,sp,32
   104d6:	8082                	ret

00000000000104d8 <atexit>:
   104d8:	85aa                	mv	a1,a0
   104da:	4681                	li	a3,0
   104dc:	4601                	li	a2,0
   104de:	4501                	li	a0,0
   104e0:	a009                	j	104e2 <__register_exitproc>

00000000000104e2 <__register_exitproc>:
   104e2:	f481b703          	ld	a4,-184(gp) # 11ce8 <_global_impure_ptr>
   104e6:	1f873783          	ld	a5,504(a4)
   104ea:	c3b1                	beqz	a5,1052e <__register_exitproc+0x4c>
   104ec:	4798                	lw	a4,8(a5)
   104ee:	487d                	li	a6,31
   104f0:	06e84263          	blt	a6,a4,10554 <__register_exitproc+0x72>
   104f4:	c505                	beqz	a0,1051c <__register_exitproc+0x3a>
   104f6:	00371813          	sll	a6,a4,0x3
   104fa:	983e                	add	a6,a6,a5
   104fc:	10c83823          	sd	a2,272(a6)
   10500:	3107a883          	lw	a7,784(a5)
   10504:	4605                	li	a2,1
   10506:	00e6163b          	sllw	a2,a2,a4
   1050a:	00c8e8b3          	or	a7,a7,a2
   1050e:	3117a823          	sw	a7,784(a5)
   10512:	20d83823          	sd	a3,528(a6)
   10516:	4689                	li	a3,2
   10518:	02d50063          	beq	a0,a3,10538 <__register_exitproc+0x56>
   1051c:	00270693          	add	a3,a4,2
   10520:	068e                	sll	a3,a3,0x3
   10522:	2705                	addw	a4,a4,1
   10524:	c798                	sw	a4,8(a5)
   10526:	97b6                	add	a5,a5,a3
   10528:	e38c                	sd	a1,0(a5)
   1052a:	4501                	li	a0,0
   1052c:	8082                	ret
   1052e:	20070793          	add	a5,a4,512
   10532:	1ef73c23          	sd	a5,504(a4)
   10536:	bf5d                	j	104ec <__register_exitproc+0xa>
   10538:	3147a683          	lw	a3,788(a5)
   1053c:	4501                	li	a0,0
   1053e:	8ed1                	or	a3,a3,a2
   10540:	30d7aa23          	sw	a3,788(a5)
   10544:	00270693          	add	a3,a4,2
   10548:	068e                	sll	a3,a3,0x3
   1054a:	2705                	addw	a4,a4,1
   1054c:	c798                	sw	a4,8(a5)
   1054e:	97b6                	add	a5,a5,a3
   10550:	e38c                	sd	a1,0(a5)
   10552:	8082                	ret
   10554:	557d                	li	a0,-1
   10556:	8082                	ret

0000000000010558 <_exit>:
   10558:	05d00893          	li	a7,93
   1055c:	00000073          	ecall
   10560:	00054363          	bltz	a0,10566 <_exit+0xe>
   10564:	a001                	j	10564 <_exit+0xc>
   10566:	1141                	add	sp,sp,-16
   10568:	e022                	sd	s0,0(sp)
   1056a:	842a                	mv	s0,a0
   1056c:	e406                	sd	ra,8(sp)
   1056e:	4080043b          	negw	s0,s0
   10572:	008000ef          	jal	1057a <__errno>
   10576:	c100                	sw	s0,0(a0)
   10578:	a001                	j	10578 <_exit+0x20>

000000000001057a <__errno>:
   1057a:	f581b503          	ld	a0,-168(gp) # 11cf8 <_impure_ptr>
   1057e:	8082                	ret

srliw.exe:     file format elf64-littleriscv


Disassembly of section .text:

00000000000100e8 <exit>:
   100e8:	1141                	add	sp,sp,-16
   100ea:	4581                	li	a1,0
   100ec:	e022                	sd	s0,0(sp)
   100ee:	e406                	sd	ra,8(sp)
   100f0:	842a                	mv	s0,a0
   100f2:	392000ef          	jal	10484 <__call_exitprocs>
   100f6:	f481b503          	ld	a0,-184(gp) # 11d88 <_global_impure_ptr>
   100fa:	6d3c                	ld	a5,88(a0)
   100fc:	c391                	beqz	a5,10100 <exit+0x18>
   100fe:	9782                	jalr	a5
   10100:	8522                	mv	a0,s0
   10102:	4f8000ef          	jal	105fa <_exit>

0000000000010106 <register_fini>:
   10106:	00000793          	li	a5,0
   1010a:	c789                	beqz	a5,10114 <register_fini+0xe>
   1010c:	6541                	lui	a0,0x10
   1010e:	54650513          	add	a0,a0,1350 # 10546 <__libc_fini_array>
   10112:	a1a5                	j	1057a <atexit>
   10114:	8082                	ret

0000000000010116 <_start>:
   10116:	00002197          	auipc	gp,0x2
   1011a:	d2a18193          	add	gp,gp,-726 # 11e40 <__global_pointer$>
   1011e:	f6018513          	add	a0,gp,-160 # 11da0 <completed.1>
   10122:	f9818613          	add	a2,gp,-104 # 11dd8 <__BSS_END__>
   10126:	8e09                	sub	a2,a2,a0
   10128:	4581                	li	a1,0
   1012a:	2b0000ef          	jal	103da <memset>
   1012e:	00000517          	auipc	a0,0x0
   10132:	44c50513          	add	a0,a0,1100 # 1057a <atexit>
   10136:	c519                	beqz	a0,10144 <_start+0x2e>
   10138:	00000517          	auipc	a0,0x0
   1013c:	40e50513          	add	a0,a0,1038 # 10546 <__libc_fini_array>
   10140:	43a000ef          	jal	1057a <atexit>
   10144:	22c000ef          	jal	10370 <__libc_init_array>
   10148:	4502                	lw	a0,0(sp)
   1014a:	002c                	add	a1,sp,8
   1014c:	4601                	li	a2,0
   1014e:	04e000ef          	jal	1019c <main>
   10152:	bf59                	j	100e8 <exit>

0000000000010154 <__do_global_dtors_aux>:
   10154:	1141                	add	sp,sp,-16
   10156:	e022                	sd	s0,0(sp)
   10158:	f601c783          	lbu	a5,-160(gp) # 11da0 <completed.1>
   1015c:	e406                	sd	ra,8(sp)
   1015e:	ef91                	bnez	a5,1017a <__do_global_dtors_aux+0x26>
   10160:	00000793          	li	a5,0
   10164:	cb81                	beqz	a5,10174 <__do_global_dtors_aux+0x20>
   10166:	6545                	lui	a0,0x11
   10168:	62450513          	add	a0,a0,1572 # 11624 <__EH_FRAME_BEGIN__>
   1016c:	00000097          	auipc	ra,0x0
   10170:	000000e7          	jalr	zero # 0 <exit-0x100e8>
   10174:	4785                	li	a5,1
   10176:	f6f18023          	sb	a5,-160(gp) # 11da0 <completed.1>
   1017a:	60a2                	ld	ra,8(sp)
   1017c:	6402                	ld	s0,0(sp)
   1017e:	0141                	add	sp,sp,16
   10180:	8082                	ret

0000000000010182 <frame_dummy>:
   10182:	00000793          	li	a5,0
   10186:	cb91                	beqz	a5,1019a <frame_dummy+0x18>
   10188:	6545                	lui	a0,0x11
   1018a:	f6818593          	add	a1,gp,-152 # 11da8 <object.0>
   1018e:	62450513          	add	a0,a0,1572 # 11624 <__EH_FRAME_BEGIN__>
   10192:	00000317          	auipc	t1,0x0
   10196:	00000067          	jr	zero # 0 <exit-0x100e8>
   1019a:	8082                	ret

000000000001019c <main>:
   1019c:	1101                	add	sp,sp,-32
   1019e:	ec22                	sd	s0,24(sp)
   101a0:	1000                	add	s0,sp,32
   101a2:	87aa                	mv	a5,a0
   101a4:	feb43023          	sd	a1,-32(s0)
   101a8:	fef42623          	sw	a5,-20(s0)

00000000000101ac <test_2>:
   101ac:	4189                	li	gp,2
   101ae:	800000b7          	lui	ra,0x80000
   101b2:	0000d71b          	srlw	a4,ra,0x0
   101b6:	800003b7          	lui	t2,0x80000
   101ba:	1a771363          	bne	a4,t2,10360 <fail>

00000000000101be <test_3>:
   101be:	418d                	li	gp,3
   101c0:	800000b7          	lui	ra,0x80000
   101c4:	0010d71b          	srlw	a4,ra,0x1
   101c8:	400003b7          	lui	t2,0x40000
   101cc:	18771a63          	bne	a4,t2,10360 <fail>

00000000000101d0 <test_4>:
   101d0:	4191                	li	gp,4
   101d2:	800000b7          	lui	ra,0x80000
   101d6:	0070d71b          	srlw	a4,ra,0x7
   101da:	010003b7          	lui	t2,0x1000
   101de:	18771163          	bne	a4,t2,10360 <fail>

00000000000101e2 <test_5>:
   101e2:	4195                	li	gp,5
   101e4:	800000b7          	lui	ra,0x80000
   101e8:	00e0d71b          	srlw	a4,ra,0xe
   101ec:	000203b7          	lui	t2,0x20
   101f0:	16771863          	bne	a4,t2,10360 <fail>

00000000000101f4 <test_6>:
   101f4:	4199                	li	gp,6
   101f6:	800000b7          	lui	ra,0x80000
   101fa:	2085                	addw	ra,ra,1 # ffffffff80000001 <__global_pointer$+0xffffffff7ffee1c1>
   101fc:	01f0d71b          	srlw	a4,ra,0x1f
   10200:	4385                	li	t2,1
   10202:	14771f63          	bne	a4,t2,10360 <fail>

0000000000010206 <test_7>:
   10206:	419d                	li	gp,7
   10208:	50fd                	li	ra,-1
   1020a:	0000d71b          	srlw	a4,ra,0x0
   1020e:	53fd                	li	t2,-1
   10210:	14771863          	bne	a4,t2,10360 <fail>

0000000000010214 <test_8>:
   10214:	41a1                	li	gp,8
   10216:	50fd                	li	ra,-1
   10218:	0010d71b          	srlw	a4,ra,0x1
   1021c:	800003b7          	lui	t2,0x80000
   10220:	33fd                	addw	t2,t2,-1 # 7fffffff <__global_pointer$+0x7ffee1bf>
   10222:	12771f63          	bne	a4,t2,10360 <fail>

0000000000010226 <test_9>:
   10226:	41a5                	li	gp,9
   10228:	50fd                	li	ra,-1
   1022a:	0070d71b          	srlw	a4,ra,0x7
   1022e:	020003b7          	lui	t2,0x2000
   10232:	33fd                	addw	t2,t2,-1 # 1ffffff <__global_pointer$+0x1fee1bf>
   10234:	12771663          	bne	a4,t2,10360 <fail>

0000000000010238 <test_10>:
   10238:	41a9                	li	gp,10
   1023a:	50fd                	li	ra,-1
   1023c:	00e0d71b          	srlw	a4,ra,0xe
   10240:	000403b7          	lui	t2,0x40
   10244:	33fd                	addw	t2,t2,-1 # 3ffff <__global_pointer$+0x2e1bf>
   10246:	10771d63          	bne	a4,t2,10360 <fail>

000000000001024a <test_11>:
   1024a:	41ad                	li	gp,11
   1024c:	50fd                	li	ra,-1
   1024e:	01f0d71b          	srlw	a4,ra,0x1f
   10252:	4385                	li	t2,1
   10254:	10771663          	bne	a4,t2,10360 <fail>

0000000000010258 <test_12>:
   10258:	41b1                	li	gp,12
   1025a:	212120b7          	lui	ra,0x21212
   1025e:	1210809b          	addw	ra,ra,289 # 21212121 <__global_pointer$+0x212002e1>
   10262:	0000d71b          	srlw	a4,ra,0x0
   10266:	212123b7          	lui	t2,0x21212
   1026a:	1213839b          	addw	t2,t2,289 # 21212121 <__global_pointer$+0x212002e1>
   1026e:	0e771963          	bne	a4,t2,10360 <fail>

0000000000010272 <test_13>:
   10272:	41b5                	li	gp,13
   10274:	212120b7          	lui	ra,0x21212
   10278:	1210809b          	addw	ra,ra,289 # 21212121 <__global_pointer$+0x212002e1>
   1027c:	0010d71b          	srlw	a4,ra,0x1
   10280:	109093b7          	lui	t2,0x10909
   10284:	0903839b          	addw	t2,t2,144 # 10909090 <__global_pointer$+0x108f7250>
   10288:	0c771c63          	bne	a4,t2,10360 <fail>

000000000001028c <test_14>:
   1028c:	41b9                	li	gp,14
   1028e:	212120b7          	lui	ra,0x21212
   10292:	1210809b          	addw	ra,ra,289 # 21212121 <__global_pointer$+0x212002e1>
   10296:	0070d71b          	srlw	a4,ra,0x7
   1029a:	004243b7          	lui	t2,0x424
   1029e:	2423839b          	addw	t2,t2,578 # 424242 <__global_pointer$+0x412402>
   102a2:	0a771f63          	bne	a4,t2,10360 <fail>

00000000000102a6 <test_15>:
   102a6:	41bd                	li	gp,15
   102a8:	212120b7          	lui	ra,0x21212
   102ac:	1210809b          	addw	ra,ra,289 # 21212121 <__global_pointer$+0x212002e1>
   102b0:	00e0d71b          	srlw	a4,ra,0xe
   102b4:	63a1                	lui	t2,0x8
   102b6:	4843839b          	addw	t2,t2,1156 # 8484 <exit-0x7c64>
   102ba:	0a771363          	bne	a4,t2,10360 <fail>

00000000000102be <test_16>:
   102be:	41c1                	li	gp,16
   102c0:	212120b7          	lui	ra,0x21212
   102c4:	1210809b          	addw	ra,ra,289 # 21212121 <__global_pointer$+0x212002e1>
   102c8:	01f0d71b          	srlw	a4,ra,0x1f
   102cc:	4381                	li	t2,0
   102ce:	08771963          	bne	a4,t2,10360 <fail>

00000000000102d2 <test_44>:
   102d2:	02c00193          	li	gp,44
   102d6:	fff120b7          	lui	ra,0xfff12
   102da:	3450809b          	addw	ra,ra,837 # fffffffffff12345 <__global_pointer$+0xfffffffffff00505>
   102de:	00b2                	sll	ra,ra,0xc
   102e0:	67808093          	add	ra,ra,1656
   102e4:	0000d71b          	srlw	a4,ra,0x0
   102e8:	123453b7          	lui	t2,0x12345
   102ec:	6783839b          	addw	t2,t2,1656 # 12345678 <__global_pointer$+0x12333838>
   102f0:	06771863          	bne	a4,t2,10360 <fail>

00000000000102f4 <test_45>:
   102f4:	02d00193          	li	gp,45
   102f8:	fff120b7          	lui	ra,0xfff12
   102fc:	3450809b          	addw	ra,ra,837 # fffffffffff12345 <__global_pointer$+0xfffffffffff00505>
   10300:	00b2                	sll	ra,ra,0xc
   10302:	67808093          	add	ra,ra,1656
   10306:	0040d71b          	srlw	a4,ra,0x4
   1030a:	012343b7          	lui	t2,0x1234
   1030e:	5673839b          	addw	t2,t2,1383 # 1234567 <__global_pointer$+0x1222727>
   10312:	04771763          	bne	a4,t2,10360 <fail>

0000000000010316 <test_46>:
   10316:	02e00193          	li	gp,46
   1031a:	000920b7          	lui	ra,0x92
   1031e:	3450809b          	addw	ra,ra,837 # 92345 <__global_pointer$+0x80505>
   10322:	00b2                	sll	ra,ra,0xc
   10324:	67808093          	add	ra,ra,1656
   10328:	0000d71b          	srlw	a4,ra,0x0
   1032c:	923453b7          	lui	t2,0x92345
   10330:	6783839b          	addw	t2,t2,1656 # ffffffff92345678 <__global_pointer$+0xffffffff92333838>
   10334:	02771663          	bne	a4,t2,10360 <fail>

0000000000010338 <test_47>:
   10338:	02f00193          	li	gp,47
   1033c:	000920b7          	lui	ra,0x92
   10340:	3450809b          	addw	ra,ra,837 # 92345 <__global_pointer$+0x80505>
   10344:	00b2                	sll	ra,ra,0xc
   10346:	67808093          	add	ra,ra,1656
   1034a:	0040d71b          	srlw	a4,ra,0x4
   1034e:	092343b7          	lui	t2,0x9234
   10352:	5673839b          	addw	t2,t2,1383 # 9234567 <__global_pointer$+0x9222727>
   10356:	00771563          	bne	a4,t2,10360 <fail>
   1035a:	00301263          	bne	zero,gp,1035e <pass>

000000000001035e <pass>:
   1035e:	a019                	j	10364 <continue>

0000000000010360 <fail>:
   10360:	0000                	unimp
	...

0000000000010364 <continue>:
   10364:	4081                	li	ra,0
   10366:	4781                	li	a5,0
   10368:	853e                	mv	a0,a5
   1036a:	6462                	ld	s0,24(sp)
   1036c:	6105                	add	sp,sp,32
   1036e:	8082                	ret

0000000000010370 <__libc_init_array>:
   10370:	1101                	add	sp,sp,-32
   10372:	e822                	sd	s0,16(sp)
   10374:	67c5                	lui	a5,0x11
   10376:	6445                	lui	s0,0x11
   10378:	e04a                	sd	s2,0(sp)
   1037a:	62878793          	add	a5,a5,1576 # 11628 <__init_array_start>
   1037e:	62840713          	add	a4,s0,1576 # 11628 <__init_array_start>
   10382:	ec06                	sd	ra,24(sp)
   10384:	e426                	sd	s1,8(sp)
   10386:	40e78933          	sub	s2,a5,a4
   1038a:	00e78d63          	beq	a5,a4,103a4 <__libc_init_array+0x34>
   1038e:	40395913          	sra	s2,s2,0x3
   10392:	62840413          	add	s0,s0,1576
   10396:	4481                	li	s1,0
   10398:	601c                	ld	a5,0(s0)
   1039a:	0485                	add	s1,s1,1
   1039c:	0421                	add	s0,s0,8
   1039e:	9782                	jalr	a5
   103a0:	ff24ece3          	bltu	s1,s2,10398 <__libc_init_array+0x28>
   103a4:	6445                	lui	s0,0x11
   103a6:	67c5                	lui	a5,0x11
   103a8:	63878793          	add	a5,a5,1592 # 11638 <__do_global_dtors_aux_fini_array_entry>
   103ac:	62840713          	add	a4,s0,1576 # 11628 <__init_array_start>
   103b0:	40e78933          	sub	s2,a5,a4
   103b4:	40395913          	sra	s2,s2,0x3
   103b8:	00e78b63          	beq	a5,a4,103ce <__libc_init_array+0x5e>
   103bc:	62840413          	add	s0,s0,1576
   103c0:	4481                	li	s1,0
   103c2:	601c                	ld	a5,0(s0)
   103c4:	0485                	add	s1,s1,1
   103c6:	0421                	add	s0,s0,8
   103c8:	9782                	jalr	a5
   103ca:	ff24ece3          	bltu	s1,s2,103c2 <__libc_init_array+0x52>
   103ce:	60e2                	ld	ra,24(sp)
   103d0:	6442                	ld	s0,16(sp)
   103d2:	64a2                	ld	s1,8(sp)
   103d4:	6902                	ld	s2,0(sp)
   103d6:	6105                	add	sp,sp,32
   103d8:	8082                	ret

00000000000103da <memset>:
   103da:	433d                	li	t1,15
   103dc:	872a                	mv	a4,a0
   103de:	02c37163          	bgeu	t1,a2,10400 <memset+0x26>
   103e2:	00f77793          	and	a5,a4,15
   103e6:	e3c1                	bnez	a5,10466 <memset+0x8c>
   103e8:	e1bd                	bnez	a1,1044e <memset+0x74>
   103ea:	ff067693          	and	a3,a2,-16
   103ee:	8a3d                	and	a2,a2,15
   103f0:	96ba                	add	a3,a3,a4
   103f2:	e30c                	sd	a1,0(a4)
   103f4:	e70c                	sd	a1,8(a4)
   103f6:	0741                	add	a4,a4,16
   103f8:	fed76de3          	bltu	a4,a3,103f2 <memset+0x18>
   103fc:	e211                	bnez	a2,10400 <memset+0x26>
   103fe:	8082                	ret
   10400:	40c306b3          	sub	a3,t1,a2
   10404:	068a                	sll	a3,a3,0x2
   10406:	00000297          	auipc	t0,0x0
   1040a:	9696                	add	a3,a3,t0
   1040c:	00a68067          	jr	10(a3)
   10410:	00b70723          	sb	a1,14(a4)
   10414:	00b706a3          	sb	a1,13(a4)
   10418:	00b70623          	sb	a1,12(a4)
   1041c:	00b705a3          	sb	a1,11(a4)
   10420:	00b70523          	sb	a1,10(a4)
   10424:	00b704a3          	sb	a1,9(a4)
   10428:	00b70423          	sb	a1,8(a4)
   1042c:	00b703a3          	sb	a1,7(a4)
   10430:	00b70323          	sb	a1,6(a4)
   10434:	00b702a3          	sb	a1,5(a4)
   10438:	00b70223          	sb	a1,4(a4)
   1043c:	00b701a3          	sb	a1,3(a4)
   10440:	00b70123          	sb	a1,2(a4)
   10444:	00b700a3          	sb	a1,1(a4)
   10448:	00b70023          	sb	a1,0(a4)
   1044c:	8082                	ret
   1044e:	0ff5f593          	zext.b	a1,a1
   10452:	00859693          	sll	a3,a1,0x8
   10456:	8dd5                	or	a1,a1,a3
   10458:	01059693          	sll	a3,a1,0x10
   1045c:	8dd5                	or	a1,a1,a3
   1045e:	02059693          	sll	a3,a1,0x20
   10462:	8dd5                	or	a1,a1,a3
   10464:	b759                	j	103ea <memset+0x10>
   10466:	00279693          	sll	a3,a5,0x2
   1046a:	00000297          	auipc	t0,0x0
   1046e:	9696                	add	a3,a3,t0
   10470:	8286                	mv	t0,ra
   10472:	fa2680e7          	jalr	-94(a3)
   10476:	8096                	mv	ra,t0
   10478:	17c1                	add	a5,a5,-16
   1047a:	8f1d                	sub	a4,a4,a5
   1047c:	963e                	add	a2,a2,a5
   1047e:	f8c371e3          	bgeu	t1,a2,10400 <memset+0x26>
   10482:	b79d                	j	103e8 <memset+0xe>

0000000000010484 <__call_exitprocs>:
   10484:	715d                	add	sp,sp,-80
   10486:	f052                	sd	s4,32(sp)
   10488:	f481ba03          	ld	s4,-184(gp) # 11d88 <_global_impure_ptr>
   1048c:	f84a                	sd	s2,48(sp)
   1048e:	e486                	sd	ra,72(sp)
   10490:	1f8a3903          	ld	s2,504(s4)
   10494:	e0a2                	sd	s0,64(sp)
   10496:	fc26                	sd	s1,56(sp)
   10498:	f44e                	sd	s3,40(sp)
   1049a:	ec56                	sd	s5,24(sp)
   1049c:	e85a                	sd	s6,16(sp)
   1049e:	e45e                	sd	s7,8(sp)
   104a0:	e062                	sd	s8,0(sp)
   104a2:	02090863          	beqz	s2,104d2 <__call_exitprocs+0x4e>
   104a6:	8b2a                	mv	s6,a0
   104a8:	8bae                	mv	s7,a1
   104aa:	4a85                	li	s5,1
   104ac:	59fd                	li	s3,-1
   104ae:	00892483          	lw	s1,8(s2)
   104b2:	fff4841b          	addw	s0,s1,-1
   104b6:	00044e63          	bltz	s0,104d2 <__call_exitprocs+0x4e>
   104ba:	048e                	sll	s1,s1,0x3
   104bc:	94ca                	add	s1,s1,s2
   104be:	020b8663          	beqz	s7,104ea <__call_exitprocs+0x66>
   104c2:	2084b783          	ld	a5,520(s1)
   104c6:	03778263          	beq	a5,s7,104ea <__call_exitprocs+0x66>
   104ca:	347d                	addw	s0,s0,-1
   104cc:	14e1                	add	s1,s1,-8
   104ce:	ff3418e3          	bne	s0,s3,104be <__call_exitprocs+0x3a>
   104d2:	60a6                	ld	ra,72(sp)
   104d4:	6406                	ld	s0,64(sp)
   104d6:	74e2                	ld	s1,56(sp)
   104d8:	7942                	ld	s2,48(sp)
   104da:	79a2                	ld	s3,40(sp)
   104dc:	7a02                	ld	s4,32(sp)
   104de:	6ae2                	ld	s5,24(sp)
   104e0:	6b42                	ld	s6,16(sp)
   104e2:	6ba2                	ld	s7,8(sp)
   104e4:	6c02                	ld	s8,0(sp)
   104e6:	6161                	add	sp,sp,80
   104e8:	8082                	ret
   104ea:	00892783          	lw	a5,8(s2)
   104ee:	6498                	ld	a4,8(s1)
   104f0:	37fd                	addw	a5,a5,-1
   104f2:	04878463          	beq	a5,s0,1053a <__call_exitprocs+0xb6>
   104f6:	0004b423          	sd	zero,8(s1)
   104fa:	db61                	beqz	a4,104ca <__call_exitprocs+0x46>
   104fc:	31092783          	lw	a5,784(s2)
   10500:	008a96bb          	sllw	a3,s5,s0
   10504:	00892c03          	lw	s8,8(s2)
   10508:	8ff5                	and	a5,a5,a3
   1050a:	2781                	sext.w	a5,a5
   1050c:	ef89                	bnez	a5,10526 <__call_exitprocs+0xa2>
   1050e:	9702                	jalr	a4
   10510:	00892703          	lw	a4,8(s2)
   10514:	1f8a3783          	ld	a5,504(s4)
   10518:	01871463          	bne	a4,s8,10520 <__call_exitprocs+0x9c>
   1051c:	fb2787e3          	beq	a5,s2,104ca <__call_exitprocs+0x46>
   10520:	dbcd                	beqz	a5,104d2 <__call_exitprocs+0x4e>
   10522:	893e                	mv	s2,a5
   10524:	b769                	j	104ae <__call_exitprocs+0x2a>
   10526:	31492783          	lw	a5,788(s2)
   1052a:	1084b583          	ld	a1,264(s1)
   1052e:	8ff5                	and	a5,a5,a3
   10530:	2781                	sext.w	a5,a5
   10532:	e799                	bnez	a5,10540 <__call_exitprocs+0xbc>
   10534:	855a                	mv	a0,s6
   10536:	9702                	jalr	a4
   10538:	bfe1                	j	10510 <__call_exitprocs+0x8c>
   1053a:	00892423          	sw	s0,8(s2)
   1053e:	bf75                	j	104fa <__call_exitprocs+0x76>
   10540:	852e                	mv	a0,a1
   10542:	9702                	jalr	a4
   10544:	b7f1                	j	10510 <__call_exitprocs+0x8c>

0000000000010546 <__libc_fini_array>:
   10546:	1101                	add	sp,sp,-32
   10548:	e822                	sd	s0,16(sp)
   1054a:	67c5                	lui	a5,0x11
   1054c:	6445                	lui	s0,0x11
   1054e:	63878793          	add	a5,a5,1592 # 11638 <__do_global_dtors_aux_fini_array_entry>
   10552:	64040413          	add	s0,s0,1600 # 11640 <impure_data>
   10556:	8c1d                	sub	s0,s0,a5
   10558:	e426                	sd	s1,8(sp)
   1055a:	ec06                	sd	ra,24(sp)
   1055c:	40345493          	sra	s1,s0,0x3
   10560:	c881                	beqz	s1,10570 <__libc_fini_array+0x2a>
   10562:	1461                	add	s0,s0,-8
   10564:	943e                	add	s0,s0,a5
   10566:	601c                	ld	a5,0(s0)
   10568:	14fd                	add	s1,s1,-1
   1056a:	1461                	add	s0,s0,-8
   1056c:	9782                	jalr	a5
   1056e:	fce5                	bnez	s1,10566 <__libc_fini_array+0x20>
   10570:	60e2                	ld	ra,24(sp)
   10572:	6442                	ld	s0,16(sp)
   10574:	64a2                	ld	s1,8(sp)
   10576:	6105                	add	sp,sp,32
   10578:	8082                	ret

000000000001057a <atexit>:
   1057a:	85aa                	mv	a1,a0
   1057c:	4681                	li	a3,0
   1057e:	4601                	li	a2,0
   10580:	4501                	li	a0,0
   10582:	a009                	j	10584 <__register_exitproc>

0000000000010584 <__register_exitproc>:
   10584:	f481b703          	ld	a4,-184(gp) # 11d88 <_global_impure_ptr>
   10588:	1f873783          	ld	a5,504(a4)
   1058c:	c3b1                	beqz	a5,105d0 <__register_exitproc+0x4c>
   1058e:	4798                	lw	a4,8(a5)
   10590:	487d                	li	a6,31
   10592:	06e84263          	blt	a6,a4,105f6 <__register_exitproc+0x72>
   10596:	c505                	beqz	a0,105be <__register_exitproc+0x3a>
   10598:	00371813          	sll	a6,a4,0x3
   1059c:	983e                	add	a6,a6,a5
   1059e:	10c83823          	sd	a2,272(a6)
   105a2:	3107a883          	lw	a7,784(a5)
   105a6:	4605                	li	a2,1
   105a8:	00e6163b          	sllw	a2,a2,a4
   105ac:	00c8e8b3          	or	a7,a7,a2
   105b0:	3117a823          	sw	a7,784(a5)
   105b4:	20d83823          	sd	a3,528(a6)
   105b8:	4689                	li	a3,2
   105ba:	02d50063          	beq	a0,a3,105da <__register_exitproc+0x56>
   105be:	00270693          	add	a3,a4,2
   105c2:	068e                	sll	a3,a3,0x3
   105c4:	2705                	addw	a4,a4,1
   105c6:	c798                	sw	a4,8(a5)
   105c8:	97b6                	add	a5,a5,a3
   105ca:	e38c                	sd	a1,0(a5)
   105cc:	4501                	li	a0,0
   105ce:	8082                	ret
   105d0:	20070793          	add	a5,a4,512
   105d4:	1ef73c23          	sd	a5,504(a4)
   105d8:	bf5d                	j	1058e <__register_exitproc+0xa>
   105da:	3147a683          	lw	a3,788(a5)
   105de:	4501                	li	a0,0
   105e0:	8ed1                	or	a3,a3,a2
   105e2:	30d7aa23          	sw	a3,788(a5)
   105e6:	00270693          	add	a3,a4,2
   105ea:	068e                	sll	a3,a3,0x3
   105ec:	2705                	addw	a4,a4,1
   105ee:	c798                	sw	a4,8(a5)
   105f0:	97b6                	add	a5,a5,a3
   105f2:	e38c                	sd	a1,0(a5)
   105f4:	8082                	ret
   105f6:	557d                	li	a0,-1
   105f8:	8082                	ret

00000000000105fa <_exit>:
   105fa:	05d00893          	li	a7,93
   105fe:	00000073          	ecall
   10602:	00054363          	bltz	a0,10608 <_exit+0xe>
   10606:	a001                	j	10606 <_exit+0xc>
   10608:	1141                	add	sp,sp,-16
   1060a:	e022                	sd	s0,0(sp)
   1060c:	842a                	mv	s0,a0
   1060e:	e406                	sd	ra,8(sp)
   10610:	4080043b          	negw	s0,s0
   10614:	008000ef          	jal	1061c <__errno>
   10618:	c100                	sw	s0,0(a0)
   1061a:	a001                	j	1061a <_exit+0x20>

000000000001061c <__errno>:
   1061c:	f581b503          	ld	a0,-168(gp) # 11d98 <_impure_ptr>
   10620:	8082                	ret

sraw.exe:     file format elf64-littleriscv


Disassembly of section .text:

00000000000100e8 <exit>:
   100e8:	1141                	add	sp,sp,-16
   100ea:	4581                	li	a1,0
   100ec:	e022                	sd	s0,0(sp)
   100ee:	e406                	sd	ra,8(sp)
   100f0:	842a                	mv	s0,a0
   100f2:	452000ef          	jal	10544 <__call_exitprocs>
   100f6:	f481b503          	ld	a0,-184(gp) # 11e48 <_global_impure_ptr>
   100fa:	6d3c                	ld	a5,88(a0)
   100fc:	c391                	beqz	a5,10100 <exit+0x18>
   100fe:	9782                	jalr	a5
   10100:	8522                	mv	a0,s0
   10102:	5b8000ef          	jal	106ba <_exit>

0000000000010106 <register_fini>:
   10106:	00000793          	li	a5,0
   1010a:	c789                	beqz	a5,10114 <register_fini+0xe>
   1010c:	6541                	lui	a0,0x10
   1010e:	60650513          	add	a0,a0,1542 # 10606 <__libc_fini_array>
   10112:	a325                	j	1063a <atexit>
   10114:	8082                	ret

0000000000010116 <_start>:
   10116:	00002197          	auipc	gp,0x2
   1011a:	dea18193          	add	gp,gp,-534 # 11f00 <__global_pointer$>
   1011e:	f6018513          	add	a0,gp,-160 # 11e60 <completed.1>
   10122:	f9818613          	add	a2,gp,-104 # 11e98 <__BSS_END__>
   10126:	8e09                	sub	a2,a2,a0
   10128:	4581                	li	a1,0
   1012a:	370000ef          	jal	1049a <memset>
   1012e:	00000517          	auipc	a0,0x0
   10132:	50c50513          	add	a0,a0,1292 # 1063a <atexit>
   10136:	c519                	beqz	a0,10144 <_start+0x2e>
   10138:	00000517          	auipc	a0,0x0
   1013c:	4ce50513          	add	a0,a0,1230 # 10606 <__libc_fini_array>
   10140:	4fa000ef          	jal	1063a <atexit>
   10144:	2ec000ef          	jal	10430 <__libc_init_array>
   10148:	4502                	lw	a0,0(sp)
   1014a:	002c                	add	a1,sp,8
   1014c:	4601                	li	a2,0
   1014e:	04e000ef          	jal	1019c <main>
   10152:	bf59                	j	100e8 <exit>

0000000000010154 <__do_global_dtors_aux>:
   10154:	1141                	add	sp,sp,-16
   10156:	e022                	sd	s0,0(sp)
   10158:	f601c783          	lbu	a5,-160(gp) # 11e60 <completed.1>
   1015c:	e406                	sd	ra,8(sp)
   1015e:	ef91                	bnez	a5,1017a <__do_global_dtors_aux+0x26>
   10160:	00000793          	li	a5,0
   10164:	cb81                	beqz	a5,10174 <__do_global_dtors_aux+0x20>
   10166:	6545                	lui	a0,0x11
   10168:	6e450513          	add	a0,a0,1764 # 116e4 <__EH_FRAME_BEGIN__>
   1016c:	00000097          	auipc	ra,0x0
   10170:	000000e7          	jalr	zero # 0 <exit-0x100e8>
   10174:	4785                	li	a5,1
   10176:	f6f18023          	sb	a5,-160(gp) # 11e60 <completed.1>
   1017a:	60a2                	ld	ra,8(sp)
   1017c:	6402                	ld	s0,0(sp)
   1017e:	0141                	add	sp,sp,16
   10180:	8082                	ret

0000000000010182 <frame_dummy>:
   10182:	00000793          	li	a5,0
   10186:	cb91                	beqz	a5,1019a <frame_dummy+0x18>
   10188:	6545                	lui	a0,0x11
   1018a:	f6818593          	add	a1,gp,-152 # 11e68 <object.0>
   1018e:	6e450513          	add	a0,a0,1764 # 116e4 <__EH_FRAME_BEGIN__>
   10192:	00000317          	auipc	t1,0x0
   10196:	00000067          	jr	zero # 0 <exit-0x100e8>
   1019a:	8082                	ret

000000000001019c <main>:
   1019c:	1101                	add	sp,sp,-32
   1019e:	ec22                	sd	s0,24(sp)
   101a0:	1000                	add	s0,sp,32
   101a2:	87aa                	mv	a5,a0
   101a4:	feb43023          	sd	a1,-32(s0)
   101a8:	fef42623          	sw	a5,-20(s0)

00000000000101ac <test_2>:
   101ac:	4189                	li	gp,2
   101ae:	800000b7          	lui	ra,0x80000
   101b2:	4101                	li	sp,0
   101b4:	4020d73b          	sraw	a4,ra,sp
   101b8:	800003b7          	lui	t2,0x80000
   101bc:	26771263          	bne	a4,t2,10420 <fail>

00000000000101c0 <test_3>:
   101c0:	418d                	li	gp,3
   101c2:	800000b7          	lui	ra,0x80000
   101c6:	4105                	li	sp,1
   101c8:	4020d73b          	sraw	a4,ra,sp
   101cc:	c00003b7          	lui	t2,0xc0000
   101d0:	24771863          	bne	a4,t2,10420 <fail>

00000000000101d4 <test_4>:
   101d4:	4191                	li	gp,4
   101d6:	800000b7          	lui	ra,0x80000
   101da:	411d                	li	sp,7
   101dc:	4020d73b          	sraw	a4,ra,sp
   101e0:	ff0003b7          	lui	t2,0xff000
   101e4:	22771e63          	bne	a4,t2,10420 <fail>

00000000000101e8 <test_5>:
   101e8:	4195                	li	gp,5
   101ea:	800000b7          	lui	ra,0x80000
   101ee:	4139                	li	sp,14
   101f0:	4020d73b          	sraw	a4,ra,sp
   101f4:	7381                	lui	t2,0xfffe0
   101f6:	22771563          	bne	a4,t2,10420 <fail>

00000000000101fa <test_6>:
   101fa:	4199                	li	gp,6
   101fc:	800000b7          	lui	ra,0x80000
   10200:	2085                	addw	ra,ra,1 # ffffffff80000001 <__global_pointer$+0xffffffff7ffee101>
   10202:	417d                	li	sp,31
   10204:	4020d73b          	sraw	a4,ra,sp
   10208:	53fd                	li	t2,-1
   1020a:	20771b63          	bne	a4,t2,10420 <fail>

000000000001020e <test_7>:
   1020e:	419d                	li	gp,7
   10210:	800000b7          	lui	ra,0x80000
   10214:	30fd                	addw	ra,ra,-1 # 7fffffff <__global_pointer$+0x7ffee0ff>
   10216:	4101                	li	sp,0
   10218:	4020d73b          	sraw	a4,ra,sp
   1021c:	800003b7          	lui	t2,0x80000
   10220:	33fd                	addw	t2,t2,-1 # 7fffffff <__global_pointer$+0x7ffee0ff>
   10222:	1e771f63          	bne	a4,t2,10420 <fail>

0000000000010226 <test_8>:
   10226:	41a1                	li	gp,8
   10228:	800000b7          	lui	ra,0x80000
   1022c:	30fd                	addw	ra,ra,-1 # 7fffffff <__global_pointer$+0x7ffee0ff>
   1022e:	4105                	li	sp,1
   10230:	4020d73b          	sraw	a4,ra,sp
   10234:	400003b7          	lui	t2,0x40000
   10238:	33fd                	addw	t2,t2,-1 # 3fffffff <__global_pointer$+0x3ffee0ff>
   1023a:	1e771363          	bne	a4,t2,10420 <fail>

000000000001023e <test_9>:
   1023e:	41a5                	li	gp,9
   10240:	800000b7          	lui	ra,0x80000
   10244:	30fd                	addw	ra,ra,-1 # 7fffffff <__global_pointer$+0x7ffee0ff>
   10246:	411d                	li	sp,7
   10248:	4020d73b          	sraw	a4,ra,sp
   1024c:	010003b7          	lui	t2,0x1000
   10250:	33fd                	addw	t2,t2,-1 # ffffff <__global_pointer$+0xfee0ff>
   10252:	1c771763          	bne	a4,t2,10420 <fail>

0000000000010256 <test_10>:
   10256:	41a9                	li	gp,10
   10258:	800000b7          	lui	ra,0x80000
   1025c:	30fd                	addw	ra,ra,-1 # 7fffffff <__global_pointer$+0x7ffee0ff>
   1025e:	4139                	li	sp,14
   10260:	4020d73b          	sraw	a4,ra,sp
   10264:	000203b7          	lui	t2,0x20
   10268:	33fd                	addw	t2,t2,-1 # 1ffff <__global_pointer$+0xe0ff>
   1026a:	1a771b63          	bne	a4,t2,10420 <fail>

000000000001026e <test_11>:
   1026e:	41ad                	li	gp,11
   10270:	800000b7          	lui	ra,0x80000
   10274:	30fd                	addw	ra,ra,-1 # 7fffffff <__global_pointer$+0x7ffee0ff>
   10276:	417d                	li	sp,31
   10278:	4020d73b          	sraw	a4,ra,sp
   1027c:	4381                	li	t2,0
   1027e:	1a771163          	bne	a4,t2,10420 <fail>

0000000000010282 <test_12>:
   10282:	41b1                	li	gp,12
   10284:	818180b7          	lui	ra,0x81818
   10288:	1810809b          	addw	ra,ra,385 # ffffffff81818181 <__global_pointer$+0xffffffff81806281>
   1028c:	4101                	li	sp,0
   1028e:	4020d73b          	sraw	a4,ra,sp
   10292:	818183b7          	lui	t2,0x81818
   10296:	1813839b          	addw	t2,t2,385 # ffffffff81818181 <__global_pointer$+0xffffffff81806281>
   1029a:	18771363          	bne	a4,t2,10420 <fail>

000000000001029e <test_13>:
   1029e:	41b5                	li	gp,13
   102a0:	818180b7          	lui	ra,0x81818
   102a4:	1810809b          	addw	ra,ra,385 # ffffffff81818181 <__global_pointer$+0xffffffff81806281>
   102a8:	4105                	li	sp,1
   102aa:	4020d73b          	sraw	a4,ra,sp
   102ae:	c0c0c3b7          	lui	t2,0xc0c0c
   102b2:	0c03839b          	addw	t2,t2,192 # ffffffffc0c0c0c0 <__global_pointer$+0xffffffffc0bfa1c0>
   102b6:	16771563          	bne	a4,t2,10420 <fail>

00000000000102ba <test_14>:
   102ba:	41b9                	li	gp,14
   102bc:	818180b7          	lui	ra,0x81818
   102c0:	1810809b          	addw	ra,ra,385 # ffffffff81818181 <__global_pointer$+0xffffffff81806281>
   102c4:	411d                	li	sp,7
   102c6:	4020d73b          	sraw	a4,ra,sp
   102ca:	ff0303b7          	lui	t2,0xff030
   102ce:	3033839b          	addw	t2,t2,771 # ffffffffff030303 <__global_pointer$+0xffffffffff01e403>
   102d2:	14771763          	bne	a4,t2,10420 <fail>

00000000000102d6 <test_15>:
   102d6:	41bd                	li	gp,15
   102d8:	818180b7          	lui	ra,0x81818
   102dc:	1810809b          	addw	ra,ra,385 # ffffffff81818181 <__global_pointer$+0xffffffff81806281>
   102e0:	4139                	li	sp,14
   102e2:	4020d73b          	sraw	a4,ra,sp
   102e6:	7381                	lui	t2,0xfffe0
   102e8:	6063839b          	addw	t2,t2,1542 # fffffffffffe0606 <__global_pointer$+0xfffffffffffce706>
   102ec:	12771a63          	bne	a4,t2,10420 <fail>

00000000000102f0 <test_16>:
   102f0:	41c1                	li	gp,16
   102f2:	818180b7          	lui	ra,0x81818
   102f6:	1810809b          	addw	ra,ra,385 # ffffffff81818181 <__global_pointer$+0xffffffff81806281>
   102fa:	417d                	li	sp,31
   102fc:	4020d73b          	sraw	a4,ra,sp
   10300:	53fd                	li	t2,-1
   10302:	10771f63          	bne	a4,t2,10420 <fail>

0000000000010306 <test_17>:
   10306:	41c5                	li	gp,17
   10308:	818180b7          	lui	ra,0x81818
   1030c:	1810809b          	addw	ra,ra,385 # ffffffff81818181 <__global_pointer$+0xffffffff81806281>
   10310:	5101                	li	sp,-32
   10312:	4020d73b          	sraw	a4,ra,sp
   10316:	818183b7          	lui	t2,0x81818
   1031a:	1813839b          	addw	t2,t2,385 # ffffffff81818181 <__global_pointer$+0xffffffff81806281>
   1031e:	10771163          	bne	a4,t2,10420 <fail>

0000000000010322 <test_18>:
   10322:	41c9                	li	gp,18
   10324:	818180b7          	lui	ra,0x81818
   10328:	1810809b          	addw	ra,ra,385 # ffffffff81818181 <__global_pointer$+0xffffffff81806281>
   1032c:	5105                	li	sp,-31
   1032e:	4020d73b          	sraw	a4,ra,sp
   10332:	c0c0c3b7          	lui	t2,0xc0c0c
   10336:	0c03839b          	addw	t2,t2,192 # ffffffffc0c0c0c0 <__global_pointer$+0xffffffffc0bfa1c0>
   1033a:	0e771363          	bne	a4,t2,10420 <fail>

000000000001033e <test_19>:
   1033e:	41cd                	li	gp,19
   10340:	818180b7          	lui	ra,0x81818
   10344:	1810809b          	addw	ra,ra,385 # ffffffff81818181 <__global_pointer$+0xffffffff81806281>
   10348:	511d                	li	sp,-25
   1034a:	4020d73b          	sraw	a4,ra,sp
   1034e:	ff0303b7          	lui	t2,0xff030
   10352:	3033839b          	addw	t2,t2,771 # ffffffffff030303 <__global_pointer$+0xffffffffff01e403>
   10356:	0c771563          	bne	a4,t2,10420 <fail>

000000000001035a <test_20>:
   1035a:	41d1                	li	gp,20
   1035c:	818180b7          	lui	ra,0x81818
   10360:	1810809b          	addw	ra,ra,385 # ffffffff81818181 <__global_pointer$+0xffffffff81806281>
   10364:	5139                	li	sp,-18
   10366:	4020d73b          	sraw	a4,ra,sp
   1036a:	7381                	lui	t2,0xfffe0
   1036c:	6063839b          	addw	t2,t2,1542 # fffffffffffe0606 <__global_pointer$+0xfffffffffffce706>
   10370:	0a771863          	bne	a4,t2,10420 <fail>

0000000000010374 <test_21>:
   10374:	41d5                	li	gp,21
   10376:	818180b7          	lui	ra,0x81818
   1037a:	1810809b          	addw	ra,ra,385 # ffffffff81818181 <__global_pointer$+0xffffffff81806281>
   1037e:	517d                	li	sp,-1
   10380:	4020d73b          	sraw	a4,ra,sp
   10384:	53fd                	li	t2,-1
   10386:	08771d63          	bne	a4,t2,10420 <fail>

000000000001038a <test_44>:
   1038a:	02c00193          	li	gp,44
   1038e:	fff120b7          	lui	ra,0xfff12
   10392:	3450809b          	addw	ra,ra,837 # fffffffffff12345 <__global_pointer$+0xfffffffffff00445>
   10396:	00b2                	sll	ra,ra,0xc
   10398:	67808093          	add	ra,ra,1656
   1039c:	4101                	li	sp,0
   1039e:	4020d73b          	sraw	a4,ra,sp
   103a2:	123453b7          	lui	t2,0x12345
   103a6:	6783839b          	addw	t2,t2,1656 # 12345678 <__global_pointer$+0x12333778>
   103aa:	06771b63          	bne	a4,t2,10420 <fail>

00000000000103ae <test_45>:
   103ae:	02d00193          	li	gp,45
   103b2:	fff120b7          	lui	ra,0xfff12
   103b6:	3450809b          	addw	ra,ra,837 # fffffffffff12345 <__global_pointer$+0xfffffffffff00445>
   103ba:	00b2                	sll	ra,ra,0xc
   103bc:	67808093          	add	ra,ra,1656
   103c0:	4111                	li	sp,4
   103c2:	4020d73b          	sraw	a4,ra,sp
   103c6:	012343b7          	lui	t2,0x1234
   103ca:	5673839b          	addw	t2,t2,1383 # 1234567 <__global_pointer$+0x1222667>
   103ce:	04771963          	bne	a4,t2,10420 <fail>

00000000000103d2 <test_46>:
   103d2:	02e00193          	li	gp,46
   103d6:	000920b7          	lui	ra,0x92
   103da:	3450809b          	addw	ra,ra,837 # 92345 <__global_pointer$+0x80445>
   103de:	00b2                	sll	ra,ra,0xc
   103e0:	67808093          	add	ra,ra,1656
   103e4:	4101                	li	sp,0
   103e6:	4020d73b          	sraw	a4,ra,sp
