
eld.exe:     file format elf64-littleriscv


Disassembly of section .text:

0000000000010120 <exit>:
   10120:	1141                	add	sp,sp,-16
   10122:	4581                	li	a1,0
   10124:	e022                	sd	s0,0(sp)
   10126:	e406                	sd	ra,8(sp)
   10128:	842a                	mv	s0,a0
   1012a:	050040ef          	jal	1417a <__call_exitprocs>
   1012e:	f501b503          	ld	a0,-176(gp) # 15c68 <_global_impure_ptr>
   10132:	6d3c                	ld	a5,88(a0)
   10134:	c391                	beqz	a5,10138 <exit+0x18>
   10136:	9782                	jalr	a5
   10138:	8522                	mv	a0,s0
   1013a:	1b6040ef          	jal	142f0 <_exit>

000000000001013e <register_fini>:
   1013e:	00000793          	li	a5,0
   10142:	c791                	beqz	a5,1014e <register_fini+0x10>
   10144:	6551                	lui	a0,0x14
   10146:	23c50513          	add	a0,a0,572 # 1423c <__libc_fini_array>
   1014a:	1260406f          	j	14270 <atexit>
   1014e:	8082                	ret

0000000000010150 <_start>:
   10150:	00006197          	auipc	gp,0x6
   10154:	bc818193          	add	gp,gp,-1080 # 15d18 <__global_pointer$>
   10158:	f6818513          	add	a0,gp,-152 # 15c80 <completed.1>
   1015c:	fc018613          	add	a2,gp,-64 # 15cd8 <__BSS_END__>
   10160:	8e09                	sub	a2,a2,a0
   10162:	4581                	li	a1,0
   10164:	6b7030ef          	jal	1401a <memset>
   10168:	00004517          	auipc	a0,0x4
   1016c:	10850513          	add	a0,a0,264 # 14270 <atexit>
   10170:	c519                	beqz	a0,1017e <_start+0x2e>
   10172:	00004517          	auipc	a0,0x4
   10176:	0ca50513          	add	a0,a0,202 # 1423c <__libc_fini_array>
   1017a:	0f6040ef          	jal	14270 <atexit>
   1017e:	633030ef          	jal	13fb0 <__libc_init_array>
   10182:	4502                	lw	a0,0(sp)
   10184:	002c                	add	a1,sp,8
   10186:	4601                	li	a2,0
   10188:	4f3030ef          	jal	13e7a <main>
   1018c:	bf51                	j	10120 <exit>

000000000001018e <__do_global_dtors_aux>:
   1018e:	1141                	add	sp,sp,-16
   10190:	e022                	sd	s0,0(sp)
   10192:	f681c783          	lbu	a5,-152(gp) # 15c80 <completed.1>
   10196:	e406                	sd	ra,8(sp)
   10198:	ef91                	bnez	a5,101b4 <__do_global_dtors_aux+0x26>
   1019a:	00000793          	li	a5,0
   1019e:	cb81                	beqz	a5,101ae <__do_global_dtors_aux+0x20>
   101a0:	6555                	lui	a0,0x15
   101a2:	4d050513          	add	a0,a0,1232 # 154d0 <__EH_FRAME_BEGIN__>
   101a6:	00000097          	auipc	ra,0x0
   101aa:	000000e7          	jalr	zero # 0 <buf.2>
   101ae:	4785                	li	a5,1
   101b0:	f6f18423          	sb	a5,-152(gp) # 15c80 <completed.1>
   101b4:	60a2                	ld	ra,8(sp)
   101b6:	6402                	ld	s0,0(sp)
   101b8:	0141                	add	sp,sp,16
   101ba:	8082                	ret

00000000000101bc <frame_dummy>:
   101bc:	00000793          	li	a5,0
   101c0:	cb91                	beqz	a5,101d4 <frame_dummy+0x18>
   101c2:	6555                	lui	a0,0x15
   101c4:	f7018593          	add	a1,gp,-144 # 15c88 <object.0>
   101c8:	4d050513          	add	a0,a0,1232 # 154d0 <__EH_FRAME_BEGIN__>
   101cc:	00000317          	auipc	t1,0x0
   101d0:	00000067          	jr	zero # 0 <buf.2>
   101d4:	8082                	ret

00000000000101d6 <rev_io_setup>:
   101d6:	7179                	add	sp,sp,-48
   101d8:	f422                	sd	s0,40(sp)
   101da:	1800                	add	s0,sp,48
   101dc:	87aa                	mv	a5,a0
   101de:	fcb43823          	sd	a1,-48(s0)
   101e2:	fcf42e23          	sw	a5,-36(s0)
   101e6:	4881                	li	a7,0
   101e8:	00000073          	ecall
   101ec:	87aa                	mv	a5,a0
   101ee:	fef42623          	sw	a5,-20(s0)
   101f2:	fec42783          	lw	a5,-20(s0)
   101f6:	853e                	mv	a0,a5
   101f8:	7422                	ld	s0,40(sp)
   101fa:	6145                	add	sp,sp,48
   101fc:	8082                	ret

00000000000101fe <rev_io_destroy>:
   101fe:	7179                	add	sp,sp,-48
   10200:	f422                	sd	s0,40(sp)
   10202:	1800                	add	s0,sp,48
   10204:	fca43c23          	sd	a0,-40(s0)
   10208:	4885                	li	a7,1
   1020a:	00000073          	ecall
   1020e:	87aa                	mv	a5,a0
   10210:	fef42623          	sw	a5,-20(s0)
   10214:	fec42783          	lw	a5,-20(s0)
   10218:	853e                	mv	a0,a5
   1021a:	7422                	ld	s0,40(sp)
   1021c:	6145                	add	sp,sp,48
   1021e:	8082                	ret

0000000000010220 <rev_io_submit>:
   10220:	7139                	add	sp,sp,-64
   10222:	fc22                	sd	s0,56(sp)
   10224:	0080                	add	s0,sp,64
   10226:	fca43c23          	sd	a0,-40(s0)
   1022a:	fcb43823          	sd	a1,-48(s0)
   1022e:	fcc43423          	sd	a2,-56(s0)
   10232:	4889                	li	a7,2
   10234:	00000073          	ecall
   10238:	87aa                	mv	a5,a0
   1023a:	fef42623          	sw	a5,-20(s0)
   1023e:	fec42783          	lw	a5,-20(s0)
   10242:	853e                	mv	a0,a5
   10244:	7462                	ld	s0,56(sp)
   10246:	6121                	add	sp,sp,64
   10248:	8082                	ret

000000000001024a <rev_io_cancel>:
   1024a:	7139                	add	sp,sp,-64
   1024c:	fc22                	sd	s0,56(sp)
   1024e:	0080                	add	s0,sp,64
   10250:	fca43c23          	sd	a0,-40(s0)
   10254:	fcb43823          	sd	a1,-48(s0)
   10258:	fcc43423          	sd	a2,-56(s0)
   1025c:	488d                	li	a7,3
   1025e:	00000073          	ecall
   10262:	87aa                	mv	a5,a0
   10264:	fef42623          	sw	a5,-20(s0)
   10268:	fec42783          	lw	a5,-20(s0)
   1026c:	853e                	mv	a0,a5
   1026e:	7462                	ld	s0,56(sp)
   10270:	6121                	add	sp,sp,64
   10272:	8082                	ret

0000000000010274 <rev_io_getevents>:
   10274:	715d                	add	sp,sp,-80
   10276:	e4a2                	sd	s0,72(sp)
   10278:	0880                	add	s0,sp,80
   1027a:	fca43c23          	sd	a0,-40(s0)
   1027e:	fcb43823          	sd	a1,-48(s0)
   10282:	fcc43423          	sd	a2,-56(s0)
   10286:	fcd43023          	sd	a3,-64(s0)
   1028a:	fae43c23          	sd	a4,-72(s0)
   1028e:	4891                	li	a7,4
   10290:	00000073          	ecall
   10294:	87aa                	mv	a5,a0
   10296:	fef42623          	sw	a5,-20(s0)
   1029a:	fec42783          	lw	a5,-20(s0)
   1029e:	853e                	mv	a0,a5
   102a0:	6426                	ld	s0,72(sp)
   102a2:	6161                	add	sp,sp,80
   102a4:	8082                	ret

00000000000102a6 <rev_setxattr>:
   102a6:	715d                	add	sp,sp,-80
   102a8:	e4a2                	sd	s0,72(sp)
   102aa:	0880                	add	s0,sp,80
   102ac:	fca43c23          	sd	a0,-40(s0)
   102b0:	fcb43823          	sd	a1,-48(s0)
   102b4:	fcc43423          	sd	a2,-56(s0)
   102b8:	fcd43023          	sd	a3,-64(s0)
   102bc:	87ba                	mv	a5,a4
   102be:	faf42e23          	sw	a5,-68(s0)
   102c2:	4895                	li	a7,5
   102c4:	00000073          	ecall
   102c8:	87aa                	mv	a5,a0
   102ca:	fef42623          	sw	a5,-20(s0)
   102ce:	fec42783          	lw	a5,-20(s0)
   102d2:	853e                	mv	a0,a5
   102d4:	6426                	ld	s0,72(sp)
   102d6:	6161                	add	sp,sp,80
   102d8:	8082                	ret

00000000000102da <rev_lsetxattr>:
   102da:	715d                	add	sp,sp,-80
   102dc:	e4a2                	sd	s0,72(sp)
   102de:	0880                	add	s0,sp,80
   102e0:	fca43c23          	sd	a0,-40(s0)
   102e4:	fcb43823          	sd	a1,-48(s0)
   102e8:	fcc43423          	sd	a2,-56(s0)
   102ec:	fcd43023          	sd	a3,-64(s0)
   102f0:	87ba                	mv	a5,a4
   102f2:	faf42e23          	sw	a5,-68(s0)
   102f6:	4899                	li	a7,6
   102f8:	00000073          	ecall
   102fc:	87aa                	mv	a5,a0
   102fe:	fef42623          	sw	a5,-20(s0)
   10302:	fec42783          	lw	a5,-20(s0)
   10306:	853e                	mv	a0,a5
   10308:	6426                	ld	s0,72(sp)
   1030a:	6161                	add	sp,sp,80
   1030c:	8082                	ret

000000000001030e <rev_fsetxattr>:
   1030e:	7139                	add	sp,sp,-64
   10310:	fc22                	sd	s0,56(sp)
   10312:	0080                	add	s0,sp,64
   10314:	87aa                	mv	a5,a0
   10316:	fcb43823          	sd	a1,-48(s0)
   1031a:	fcc43423          	sd	a2,-56(s0)
   1031e:	fcd43023          	sd	a3,-64(s0)
   10322:	fcf42e23          	sw	a5,-36(s0)
   10326:	87ba                	mv	a5,a4
   10328:	fcf42c23          	sw	a5,-40(s0)
   1032c:	489d                	li	a7,7
   1032e:	00000073          	ecall
   10332:	87aa                	mv	a5,a0
   10334:	fef42623          	sw	a5,-20(s0)
   10338:	fec42783          	lw	a5,-20(s0)
   1033c:	853e                	mv	a0,a5
   1033e:	7462                	ld	s0,56(sp)
   10340:	6121                	add	sp,sp,64
   10342:	8082                	ret

0000000000010344 <rev_getxattr>:
   10344:	7139                	add	sp,sp,-64
   10346:	fc22                	sd	s0,56(sp)
   10348:	0080                	add	s0,sp,64
   1034a:	fca43c23          	sd	a0,-40(s0)
   1034e:	fcb43823          	sd	a1,-48(s0)
   10352:	fcc43423          	sd	a2,-56(s0)
   10356:	fcd43023          	sd	a3,-64(s0)
   1035a:	48a1                	li	a7,8
   1035c:	00000073          	ecall
   10360:	87aa                	mv	a5,a0
   10362:	fef42623          	sw	a5,-20(s0)
   10366:	fec42783          	lw	a5,-20(s0)
   1036a:	853e                	mv	a0,a5
   1036c:	7462                	ld	s0,56(sp)
   1036e:	6121                	add	sp,sp,64
   10370:	8082                	ret

0000000000010372 <rev_lgetxattr>:
   10372:	7139                	add	sp,sp,-64
   10374:	fc22                	sd	s0,56(sp)
   10376:	0080                	add	s0,sp,64
   10378:	fca43c23          	sd	a0,-40(s0)
   1037c:	fcb43823          	sd	a1,-48(s0)
   10380:	fcc43423          	sd	a2,-56(s0)
   10384:	fcd43023          	sd	a3,-64(s0)
   10388:	48a5                	li	a7,9
   1038a:	00000073          	ecall
   1038e:	87aa                	mv	a5,a0
   10390:	fef42623          	sw	a5,-20(s0)
   10394:	fec42783          	lw	a5,-20(s0)
   10398:	853e                	mv	a0,a5
   1039a:	7462                	ld	s0,56(sp)
   1039c:	6121                	add	sp,sp,64
   1039e:	8082                	ret

00000000000103a0 <rev_fgetxattr>:
   103a0:	7139                	add	sp,sp,-64
   103a2:	fc22                	sd	s0,56(sp)
   103a4:	0080                	add	s0,sp,64
   103a6:	87aa                	mv	a5,a0
   103a8:	fcb43823          	sd	a1,-48(s0)
   103ac:	fcc43423          	sd	a2,-56(s0)
   103b0:	fcd43023          	sd	a3,-64(s0)
   103b4:	fcf42e23          	sw	a5,-36(s0)
   103b8:	48a9                	li	a7,10
   103ba:	00000073          	ecall
   103be:	87aa                	mv	a5,a0
   103c0:	fef42623          	sw	a5,-20(s0)
   103c4:	fec42783          	lw	a5,-20(s0)
   103c8:	853e                	mv	a0,a5
   103ca:	7462                	ld	s0,56(sp)
   103cc:	6121                	add	sp,sp,64
   103ce:	8082                	ret

00000000000103d0 <rev_listxattr>:
   103d0:	7139                	add	sp,sp,-64
   103d2:	fc22                	sd	s0,56(sp)
   103d4:	0080                	add	s0,sp,64
   103d6:	fca43c23          	sd	a0,-40(s0)
   103da:	fcb43823          	sd	a1,-48(s0)
   103de:	fcc43423          	sd	a2,-56(s0)
   103e2:	48ad                	li	a7,11
   103e4:	00000073          	ecall
   103e8:	87aa                	mv	a5,a0
   103ea:	fef42623          	sw	a5,-20(s0)
   103ee:	fec42783          	lw	a5,-20(s0)
   103f2:	853e                	mv	a0,a5
   103f4:	7462                	ld	s0,56(sp)
   103f6:	6121                	add	sp,sp,64
   103f8:	8082                	ret

00000000000103fa <rev_llistxattr>:
   103fa:	7139                	add	sp,sp,-64
   103fc:	fc22                	sd	s0,56(sp)
   103fe:	0080                	add	s0,sp,64
   10400:	fca43c23          	sd	a0,-40(s0)
   10404:	fcb43823          	sd	a1,-48(s0)
   10408:	fcc43423          	sd	a2,-56(s0)
   1040c:	48b1                	li	a7,12
   1040e:	00000073          	ecall
   10412:	87aa                	mv	a5,a0
   10414:	fef42623          	sw	a5,-20(s0)
   10418:	fec42783          	lw	a5,-20(s0)
   1041c:	853e                	mv	a0,a5
   1041e:	7462                	ld	s0,56(sp)
   10420:	6121                	add	sp,sp,64
   10422:	8082                	ret

0000000000010424 <rev_flistxattr>:
   10424:	7139                	add	sp,sp,-64
   10426:	fc22                	sd	s0,56(sp)
   10428:	0080                	add	s0,sp,64
   1042a:	87aa                	mv	a5,a0
   1042c:	fcb43823          	sd	a1,-48(s0)
   10430:	fcc43423          	sd	a2,-56(s0)
   10434:	fcf42e23          	sw	a5,-36(s0)
   10438:	48b5                	li	a7,13
   1043a:	00000073          	ecall
   1043e:	87aa                	mv	a5,a0
   10440:	fef42623          	sw	a5,-20(s0)
   10444:	fec42783          	lw	a5,-20(s0)
   10448:	853e                	mv	a0,a5
   1044a:	7462                	ld	s0,56(sp)
   1044c:	6121                	add	sp,sp,64
   1044e:	8082                	ret

0000000000010450 <rev_removexattr>:
   10450:	7179                	add	sp,sp,-48
   10452:	f422                	sd	s0,40(sp)
   10454:	1800                	add	s0,sp,48
   10456:	fca43c23          	sd	a0,-40(s0)
   1045a:	fcb43823          	sd	a1,-48(s0)
   1045e:	48b9                	li	a7,14
   10460:	00000073          	ecall
   10464:	87aa                	mv	a5,a0
   10466:	fef42623          	sw	a5,-20(s0)
   1046a:	fec42783          	lw	a5,-20(s0)
   1046e:	853e                	mv	a0,a5
   10470:	7422                	ld	s0,40(sp)
   10472:	6145                	add	sp,sp,48
   10474:	8082                	ret

0000000000010476 <rev_lremovexattr>:
   10476:	7179                	add	sp,sp,-48
   10478:	f422                	sd	s0,40(sp)
   1047a:	1800                	add	s0,sp,48
   1047c:	fca43c23          	sd	a0,-40(s0)
   10480:	fcb43823          	sd	a1,-48(s0)
   10484:	48bd                	li	a7,15
   10486:	00000073          	ecall
   1048a:	87aa                	mv	a5,a0
   1048c:	fef42623          	sw	a5,-20(s0)
   10490:	fec42783          	lw	a5,-20(s0)
   10494:	853e                	mv	a0,a5
   10496:	7422                	ld	s0,40(sp)
   10498:	6145                	add	sp,sp,48
   1049a:	8082                	ret

000000000001049c <rev_fremovexattr>:
   1049c:	7179                	add	sp,sp,-48
   1049e:	f422                	sd	s0,40(sp)
   104a0:	1800                	add	s0,sp,48
   104a2:	87aa                	mv	a5,a0
   104a4:	fcb43823          	sd	a1,-48(s0)
   104a8:	fcf42e23          	sw	a5,-36(s0)
   104ac:	48c1                	li	a7,16
   104ae:	00000073          	ecall
   104b2:	87aa                	mv	a5,a0
   104b4:	fef42623          	sw	a5,-20(s0)
   104b8:	fec42783          	lw	a5,-20(s0)
   104bc:	853e                	mv	a0,a5
   104be:	7422                	ld	s0,40(sp)
   104c0:	6145                	add	sp,sp,48
   104c2:	8082                	ret

00000000000104c4 <rev_getcwd>:
   104c4:	7179                	add	sp,sp,-48
   104c6:	f422                	sd	s0,40(sp)
   104c8:	1800                	add	s0,sp,48
   104ca:	fca43c23          	sd	a0,-40(s0)
   104ce:	fcb43823          	sd	a1,-48(s0)
   104d2:	48c5                	li	a7,17
   104d4:	00000073          	ecall
   104d8:	87aa                	mv	a5,a0
   104da:	fef42623          	sw	a5,-20(s0)
   104de:	fec42783          	lw	a5,-20(s0)
   104e2:	853e                	mv	a0,a5
   104e4:	7422                	ld	s0,40(sp)
   104e6:	6145                	add	sp,sp,48
   104e8:	8082                	ret

00000000000104ea <rev_lookup_dcookie>:
   104ea:	7139                	add	sp,sp,-64
   104ec:	fc22                	sd	s0,56(sp)
   104ee:	0080                	add	s0,sp,64
   104f0:	fca43c23          	sd	a0,-40(s0)
   104f4:	fcb43823          	sd	a1,-48(s0)
   104f8:	fcc43423          	sd	a2,-56(s0)
   104fc:	48c9                	li	a7,18
   104fe:	00000073          	ecall
   10502:	87aa                	mv	a5,a0
   10504:	fef42623          	sw	a5,-20(s0)
   10508:	fec42783          	lw	a5,-20(s0)
   1050c:	853e                	mv	a0,a5
   1050e:	7462                	ld	s0,56(sp)
   10510:	6121                	add	sp,sp,64
   10512:	8082                	ret

0000000000010514 <rev_eventfd2>:
   10514:	7179                	add	sp,sp,-48
   10516:	f422                	sd	s0,40(sp)
   10518:	1800                	add	s0,sp,48
   1051a:	87aa                	mv	a5,a0
   1051c:	872e                	mv	a4,a1
   1051e:	fcf42e23          	sw	a5,-36(s0)
   10522:	87ba                	mv	a5,a4
   10524:	fcf42c23          	sw	a5,-40(s0)
   10528:	48cd                	li	a7,19
   1052a:	00000073          	ecall
   1052e:	87aa                	mv	a5,a0
   10530:	fef42623          	sw	a5,-20(s0)
   10534:	fec42783          	lw	a5,-20(s0)
   10538:	853e                	mv	a0,a5
   1053a:	7422                	ld	s0,40(sp)
   1053c:	6145                	add	sp,sp,48
   1053e:	8082                	ret

0000000000010540 <rev_epoll_create1>:
   10540:	7179                	add	sp,sp,-48
   10542:	f422                	sd	s0,40(sp)
   10544:	1800                	add	s0,sp,48
   10546:	87aa                	mv	a5,a0
   10548:	fcf42e23          	sw	a5,-36(s0)
   1054c:	48d1                	li	a7,20
   1054e:	00000073          	ecall
   10552:	87aa                	mv	a5,a0
   10554:	fef42623          	sw	a5,-20(s0)
   10558:	fec42783          	lw	a5,-20(s0)
   1055c:	853e                	mv	a0,a5
   1055e:	7422                	ld	s0,40(sp)
   10560:	6145                	add	sp,sp,48
   10562:	8082                	ret

0000000000010564 <rev_epoll_ctl>:
   10564:	7139                	add	sp,sp,-64
   10566:	fc22                	sd	s0,56(sp)
   10568:	0080                	add	s0,sp,64
   1056a:	87aa                	mv	a5,a0
   1056c:	8732                	mv	a4,a2
   1056e:	fcd43423          	sd	a3,-56(s0)
   10572:	fcf42e23          	sw	a5,-36(s0)
   10576:	87ae                	mv	a5,a1
   10578:	fcf42c23          	sw	a5,-40(s0)
   1057c:	87ba                	mv	a5,a4
   1057e:	fcf42a23          	sw	a5,-44(s0)
   10582:	48d5                	li	a7,21
   10584:	00000073          	ecall
   10588:	87aa                	mv	a5,a0
   1058a:	fef42623          	sw	a5,-20(s0)
   1058e:	fec42783          	lw	a5,-20(s0)
   10592:	853e                	mv	a0,a5
   10594:	7462                	ld	s0,56(sp)
   10596:	6121                	add	sp,sp,64
   10598:	8082                	ret

000000000001059a <rev_epoll_pwait>:
   1059a:	715d                	add	sp,sp,-80
   1059c:	e4a2                	sd	s0,72(sp)
   1059e:	0880                	add	s0,sp,80
   105a0:	fcb43823          	sd	a1,-48(s0)
   105a4:	fce43023          	sd	a4,-64(s0)
   105a8:	faf43c23          	sd	a5,-72(s0)
   105ac:	87aa                	mv	a5,a0
   105ae:	fcf42e23          	sw	a5,-36(s0)
   105b2:	87b2                	mv	a5,a2
   105b4:	fcf42c23          	sw	a5,-40(s0)
   105b8:	87b6                	mv	a5,a3
   105ba:	fcf42623          	sw	a5,-52(s0)
   105be:	48d9                	li	a7,22
   105c0:	00000073          	ecall
   105c4:	87aa                	mv	a5,a0
   105c6:	fef42623          	sw	a5,-20(s0)
   105ca:	fec42783          	lw	a5,-20(s0)
   105ce:	853e                	mv	a0,a5
   105d0:	6426                	ld	s0,72(sp)
   105d2:	6161                	add	sp,sp,80
   105d4:	8082                	ret

00000000000105d6 <rev_dup>:
   105d6:	7179                	add	sp,sp,-48
   105d8:	f422                	sd	s0,40(sp)
   105da:	1800                	add	s0,sp,48
   105dc:	87aa                	mv	a5,a0
   105de:	fcf42e23          	sw	a5,-36(s0)
   105e2:	48dd                	li	a7,23
   105e4:	00000073          	ecall
   105e8:	87aa                	mv	a5,a0
   105ea:	fef42623          	sw	a5,-20(s0)
   105ee:	fec42783          	lw	a5,-20(s0)
   105f2:	853e                	mv	a0,a5
   105f4:	7422                	ld	s0,40(sp)
   105f6:	6145                	add	sp,sp,48
   105f8:	8082                	ret

00000000000105fa <rev_dup3>:
   105fa:	7179                	add	sp,sp,-48
   105fc:	f422                	sd	s0,40(sp)
   105fe:	1800                	add	s0,sp,48
   10600:	87aa                	mv	a5,a0
   10602:	86ae                	mv	a3,a1
   10604:	8732                	mv	a4,a2
   10606:	fcf42e23          	sw	a5,-36(s0)
   1060a:	87b6                	mv	a5,a3
   1060c:	fcf42c23          	sw	a5,-40(s0)
   10610:	87ba                	mv	a5,a4
   10612:	fcf42a23          	sw	a5,-44(s0)
   10616:	48e1                	li	a7,24
   10618:	00000073          	ecall
   1061c:	87aa                	mv	a5,a0
   1061e:	fef42623          	sw	a5,-20(s0)
   10622:	fec42783          	lw	a5,-20(s0)
   10626:	853e                	mv	a0,a5
   10628:	7422                	ld	s0,40(sp)
   1062a:	6145                	add	sp,sp,48
   1062c:	8082                	ret

000000000001062e <rev_fcntl64>:
   1062e:	7179                	add	sp,sp,-48
   10630:	f422                	sd	s0,40(sp)
   10632:	1800                	add	s0,sp,48
   10634:	87aa                	mv	a5,a0
   10636:	872e                	mv	a4,a1
   10638:	fcc43823          	sd	a2,-48(s0)
   1063c:	fcf42e23          	sw	a5,-36(s0)
   10640:	87ba                	mv	a5,a4
   10642:	fcf42c23          	sw	a5,-40(s0)
   10646:	48e5                	li	a7,25
   10648:	00000073          	ecall
   1064c:	87aa                	mv	a5,a0
   1064e:	fef42623          	sw	a5,-20(s0)
   10652:	fec42783          	lw	a5,-20(s0)
   10656:	853e                	mv	a0,a5
   10658:	7422                	ld	s0,40(sp)
   1065a:	6145                	add	sp,sp,48
   1065c:	8082                	ret

000000000001065e <rev_inotify_init1>:
   1065e:	7179                	add	sp,sp,-48
   10660:	f422                	sd	s0,40(sp)
   10662:	1800                	add	s0,sp,48
   10664:	87aa                	mv	a5,a0
   10666:	fcf42e23          	sw	a5,-36(s0)
   1066a:	48e9                	li	a7,26
   1066c:	00000073          	ecall
   10670:	87aa                	mv	a5,a0
   10672:	fef42623          	sw	a5,-20(s0)
   10676:	fec42783          	lw	a5,-20(s0)
   1067a:	853e                	mv	a0,a5
   1067c:	7422                	ld	s0,40(sp)
   1067e:	6145                	add	sp,sp,48
   10680:	8082                	ret

0000000000010682 <rev_inotify_add_watch>:
   10682:	7179                	add	sp,sp,-48
   10684:	f422                	sd	s0,40(sp)
   10686:	1800                	add	s0,sp,48
   10688:	87aa                	mv	a5,a0
   1068a:	fcb43823          	sd	a1,-48(s0)
   1068e:	8732                	mv	a4,a2
   10690:	fcf42e23          	sw	a5,-36(s0)
   10694:	87ba                	mv	a5,a4
   10696:	fcf42c23          	sw	a5,-40(s0)
   1069a:	48ed                	li	a7,27
   1069c:	00000073          	ecall
   106a0:	87aa                	mv	a5,a0
   106a2:	fef42623          	sw	a5,-20(s0)
   106a6:	fec42783          	lw	a5,-20(s0)
   106aa:	853e                	mv	a0,a5
   106ac:	7422                	ld	s0,40(sp)
   106ae:	6145                	add	sp,sp,48
   106b0:	8082                	ret

00000000000106b2 <rev_inotify_rm_watch>:
   106b2:	7179                	add	sp,sp,-48
   106b4:	f422                	sd	s0,40(sp)
   106b6:	1800                	add	s0,sp,48
   106b8:	87aa                	mv	a5,a0
   106ba:	872e                	mv	a4,a1
   106bc:	fcf42e23          	sw	a5,-36(s0)
   106c0:	87ba                	mv	a5,a4
   106c2:	fcf42c23          	sw	a5,-40(s0)
   106c6:	48f1                	li	a7,28
   106c8:	00000073          	ecall
   106cc:	87aa                	mv	a5,a0
   106ce:	fef42623          	sw	a5,-20(s0)
   106d2:	fec42783          	lw	a5,-20(s0)
   106d6:	853e                	mv	a0,a5
   106d8:	7422                	ld	s0,40(sp)
   106da:	6145                	add	sp,sp,48
   106dc:	8082                	ret

00000000000106de <rev_ioctl>:
   106de:	7179                	add	sp,sp,-48
   106e0:	f422                	sd	s0,40(sp)
   106e2:	1800                	add	s0,sp,48
   106e4:	87aa                	mv	a5,a0
   106e6:	872e                	mv	a4,a1
   106e8:	fcc43823          	sd	a2,-48(s0)
   106ec:	fcf42e23          	sw	a5,-36(s0)
   106f0:	87ba                	mv	a5,a4
   106f2:	fcf42c23          	sw	a5,-40(s0)
   106f6:	48f5                	li	a7,29
   106f8:	00000073          	ecall
   106fc:	87aa                	mv	a5,a0
   106fe:	fef42623          	sw	a5,-20(s0)
   10702:	fec42783          	lw	a5,-20(s0)
   10706:	853e                	mv	a0,a5
   10708:	7422                	ld	s0,40(sp)
   1070a:	6145                	add	sp,sp,48
   1070c:	8082                	ret

000000000001070e <rev_ioprio_set>:
   1070e:	7179                	add	sp,sp,-48
   10710:	f422                	sd	s0,40(sp)
   10712:	1800                	add	s0,sp,48
   10714:	87aa                	mv	a5,a0
   10716:	86ae                	mv	a3,a1
   10718:	8732                	mv	a4,a2
   1071a:	fcf42e23          	sw	a5,-36(s0)
   1071e:	87b6                	mv	a5,a3
   10720:	fcf42c23          	sw	a5,-40(s0)
   10724:	87ba                	mv	a5,a4
   10726:	fcf42a23          	sw	a5,-44(s0)
   1072a:	48f9                	li	a7,30
   1072c:	00000073          	ecall
   10730:	87aa                	mv	a5,a0
   10732:	fef42623          	sw	a5,-20(s0)
   10736:	fec42783          	lw	a5,-20(s0)
   1073a:	853e                	mv	a0,a5
   1073c:	7422                	ld	s0,40(sp)
   1073e:	6145                	add	sp,sp,48
   10740:	8082                	ret

0000000000010742 <rev_ioprio_get>:
   10742:	7179                	add	sp,sp,-48
   10744:	f422                	sd	s0,40(sp)
   10746:	1800                	add	s0,sp,48
   10748:	87aa                	mv	a5,a0
   1074a:	872e                	mv	a4,a1
   1074c:	fcf42e23          	sw	a5,-36(s0)
   10750:	87ba                	mv	a5,a4
   10752:	fcf42c23          	sw	a5,-40(s0)
   10756:	48fd                	li	a7,31
   10758:	00000073          	ecall
   1075c:	87aa                	mv	a5,a0
   1075e:	fef42623          	sw	a5,-20(s0)
   10762:	fec42783          	lw	a5,-20(s0)
   10766:	853e                	mv	a0,a5
   10768:	7422                	ld	s0,40(sp)
   1076a:	6145                	add	sp,sp,48
   1076c:	8082                	ret

000000000001076e <rev_flock>:
   1076e:	7179                	add	sp,sp,-48
   10770:	f422                	sd	s0,40(sp)
   10772:	1800                	add	s0,sp,48
   10774:	87aa                	mv	a5,a0
   10776:	872e                	mv	a4,a1
   10778:	fcf42e23          	sw	a5,-36(s0)
   1077c:	87ba                	mv	a5,a4
   1077e:	fcf42c23          	sw	a5,-40(s0)
   10782:	02000893          	li	a7,32
   10786:	00000073          	ecall
   1078a:	87aa                	mv	a5,a0
   1078c:	fef42623          	sw	a5,-20(s0)
   10790:	fec42783          	lw	a5,-20(s0)
   10794:	853e                	mv	a0,a5
   10796:	7422                	ld	s0,40(sp)
   10798:	6145                	add	sp,sp,48
   1079a:	8082                	ret

000000000001079c <rev_mknodat>:
   1079c:	7139                	add	sp,sp,-64
   1079e:	fc22                	sd	s0,56(sp)
   107a0:	0080                	add	s0,sp,64
   107a2:	87aa                	mv	a5,a0
   107a4:	fcb43823          	sd	a1,-48(s0)
   107a8:	8736                	mv	a4,a3
   107aa:	fcf42e23          	sw	a5,-36(s0)
   107ae:	87b2                	mv	a5,a2
   107b0:	fcf41d23          	sh	a5,-38(s0)
   107b4:	87ba                	mv	a5,a4
   107b6:	fcf42623          	sw	a5,-52(s0)
   107ba:	02100893          	li	a7,33
   107be:	00000073          	ecall
   107c2:	87aa                	mv	a5,a0
   107c4:	fef42623          	sw	a5,-20(s0)
   107c8:	fec42783          	lw	a5,-20(s0)
   107cc:	853e                	mv	a0,a5
   107ce:	7462                	ld	s0,56(sp)
   107d0:	6121                	add	sp,sp,64
   107d2:	8082                	ret

00000000000107d4 <rev_mkdirat>:
   107d4:	7179                	add	sp,sp,-48
   107d6:	f422                	sd	s0,40(sp)
   107d8:	1800                	add	s0,sp,48
   107da:	87aa                	mv	a5,a0
   107dc:	fcb43823          	sd	a1,-48(s0)
   107e0:	8732                	mv	a4,a2
   107e2:	fcf42e23          	sw	a5,-36(s0)
   107e6:	87ba                	mv	a5,a4
   107e8:	fcf41d23          	sh	a5,-38(s0)
   107ec:	02200893          	li	a7,34
   107f0:	00000073          	ecall
   107f4:	87aa                	mv	a5,a0
   107f6:	fef42623          	sw	a5,-20(s0)
   107fa:	fec42783          	lw	a5,-20(s0)
   107fe:	853e                	mv	a0,a5
   10800:	7422                	ld	s0,40(sp)
   10802:	6145                	add	sp,sp,48
   10804:	8082                	ret

0000000000010806 <rev_unlinkat>:
   10806:	7179                	add	sp,sp,-48
   10808:	f422                	sd	s0,40(sp)
   1080a:	1800                	add	s0,sp,48
   1080c:	87aa                	mv	a5,a0
   1080e:	fcb43823          	sd	a1,-48(s0)
   10812:	8732                	mv	a4,a2
   10814:	fcf42e23          	sw	a5,-36(s0)
   10818:	87ba                	mv	a5,a4
   1081a:	fcf42c23          	sw	a5,-40(s0)
   1081e:	02300893          	li	a7,35
   10822:	00000073          	ecall
   10826:	87aa                	mv	a5,a0
   10828:	fef42623          	sw	a5,-20(s0)
   1082c:	fec42783          	lw	a5,-20(s0)
   10830:	853e                	mv	a0,a5
   10832:	7422                	ld	s0,40(sp)
   10834:	6145                	add	sp,sp,48
   10836:	8082                	ret

0000000000010838 <rev_symlinkat>:
   10838:	7139                	add	sp,sp,-64
   1083a:	fc22                	sd	s0,56(sp)
   1083c:	0080                	add	s0,sp,64
   1083e:	fca43c23          	sd	a0,-40(s0)
   10842:	87ae                	mv	a5,a1
   10844:	fcc43423          	sd	a2,-56(s0)
   10848:	fcf42a23          	sw	a5,-44(s0)
   1084c:	02400893          	li	a7,36
   10850:	00000073          	ecall
   10854:	87aa                	mv	a5,a0
   10856:	fef42623          	sw	a5,-20(s0)
   1085a:	fec42783          	lw	a5,-20(s0)
   1085e:	853e                	mv	a0,a5
   10860:	7462                	ld	s0,56(sp)
   10862:	6121                	add	sp,sp,64
   10864:	8082                	ret

0000000000010866 <rev_renameat>:
   10866:	7139                	add	sp,sp,-64
   10868:	fc22                	sd	s0,56(sp)
   1086a:	0080                	add	s0,sp,64
   1086c:	87aa                	mv	a5,a0
   1086e:	fcb43823          	sd	a1,-48(s0)
   10872:	8732                	mv	a4,a2
   10874:	fcd43423          	sd	a3,-56(s0)
   10878:	fcf42e23          	sw	a5,-36(s0)
   1087c:	87ba                	mv	a5,a4
   1087e:	fcf42c23          	sw	a5,-40(s0)
   10882:	02600893          	li	a7,38
   10886:	00000073          	ecall
   1088a:	87aa                	mv	a5,a0
   1088c:	fef42623          	sw	a5,-20(s0)
   10890:	fec42783          	lw	a5,-20(s0)
   10894:	853e                	mv	a0,a5
   10896:	7462                	ld	s0,56(sp)
   10898:	6121                	add	sp,sp,64
   1089a:	8082                	ret

000000000001089c <rev_umount>:
   1089c:	7179                	add	sp,sp,-48
   1089e:	f422                	sd	s0,40(sp)
   108a0:	1800                	add	s0,sp,48
   108a2:	fca43c23          	sd	a0,-40(s0)
   108a6:	87ae                	mv	a5,a1
   108a8:	fcf42a23          	sw	a5,-44(s0)
   108ac:	02700893          	li	a7,39
   108b0:	00000073          	ecall
   108b4:	87aa                	mv	a5,a0
   108b6:	fef42623          	sw	a5,-20(s0)
   108ba:	fec42783          	lw	a5,-20(s0)
   108be:	853e                	mv	a0,a5
   108c0:	7422                	ld	s0,40(sp)
   108c2:	6145                	add	sp,sp,48
   108c4:	8082                	ret

00000000000108c6 <rev_pivot_root>:
   108c6:	7179                	add	sp,sp,-48
   108c8:	f422                	sd	s0,40(sp)
   108ca:	1800                	add	s0,sp,48
   108cc:	fca43c23          	sd	a0,-40(s0)
   108d0:	fcb43823          	sd	a1,-48(s0)
   108d4:	02900893          	li	a7,41
   108d8:	00000073          	ecall
   108dc:	87aa                	mv	a5,a0
   108de:	fef42623          	sw	a5,-20(s0)
   108e2:	fec42783          	lw	a5,-20(s0)
   108e6:	853e                	mv	a0,a5
   108e8:	7422                	ld	s0,40(sp)
   108ea:	6145                	add	sp,sp,48
   108ec:	8082                	ret

00000000000108ee <rev_ni_syscall>:
   108ee:	1101                	add	sp,sp,-32
   108f0:	ec22                	sd	s0,24(sp)
   108f2:	1000                	add	s0,sp,32
   108f4:	02a00893          	li	a7,42
   108f8:	00000073          	ecall
   108fc:	87aa                	mv	a5,a0
   108fe:	fef42623          	sw	a5,-20(s0)
   10902:	fec42783          	lw	a5,-20(s0)
   10906:	853e                	mv	a0,a5
   10908:	6462                	ld	s0,24(sp)
   1090a:	6105                	add	sp,sp,32
   1090c:	8082                	ret

000000000001090e <rev_statfs64>:
   1090e:	7139                	add	sp,sp,-64
   10910:	fc22                	sd	s0,56(sp)
   10912:	0080                	add	s0,sp,64
   10914:	fca43c23          	sd	a0,-40(s0)
   10918:	fcb43823          	sd	a1,-48(s0)
   1091c:	fcc43423          	sd	a2,-56(s0)
   10920:	02b00893          	li	a7,43
   10924:	00000073          	ecall
   10928:	87aa                	mv	a5,a0
   1092a:	fef42623          	sw	a5,-20(s0)
   1092e:	fec42783          	lw	a5,-20(s0)
   10932:	853e                	mv	a0,a5
   10934:	7462                	ld	s0,56(sp)
   10936:	6121                	add	sp,sp,64
   10938:	8082                	ret

000000000001093a <rev_fstatfs64>:
   1093a:	7139                	add	sp,sp,-64
   1093c:	fc22                	sd	s0,56(sp)
   1093e:	0080                	add	s0,sp,64
   10940:	87aa                	mv	a5,a0
   10942:	fcb43823          	sd	a1,-48(s0)
   10946:	fcc43423          	sd	a2,-56(s0)
   1094a:	fcf42e23          	sw	a5,-36(s0)
   1094e:	02c00893          	li	a7,44
   10952:	00000073          	ecall
   10956:	87aa                	mv	a5,a0
   10958:	fef42623          	sw	a5,-20(s0)
   1095c:	fec42783          	lw	a5,-20(s0)
   10960:	853e                	mv	a0,a5
   10962:	7462                	ld	s0,56(sp)
   10964:	6121                	add	sp,sp,64
   10966:	8082                	ret

0000000000010968 <rev_truncate64>:
   10968:	7179                	add	sp,sp,-48
   1096a:	f422                	sd	s0,40(sp)
   1096c:	1800                	add	s0,sp,48
   1096e:	fca43c23          	sd	a0,-40(s0)
   10972:	fcb43823          	sd	a1,-48(s0)
   10976:	02d00893          	li	a7,45
   1097a:	00000073          	ecall
   1097e:	87aa                	mv	a5,a0
   10980:	fef42623          	sw	a5,-20(s0)
   10984:	fec42783          	lw	a5,-20(s0)
   10988:	853e                	mv	a0,a5
   1098a:	7422                	ld	s0,40(sp)
   1098c:	6145                	add	sp,sp,48
   1098e:	8082                	ret

0000000000010990 <rev_ftruncate64>:
   10990:	7179                	add	sp,sp,-48
   10992:	f422                	sd	s0,40(sp)
   10994:	1800                	add	s0,sp,48
   10996:	87aa                	mv	a5,a0
   10998:	fcb43823          	sd	a1,-48(s0)
   1099c:	fcf42e23          	sw	a5,-36(s0)
   109a0:	02e00893          	li	a7,46
   109a4:	00000073          	ecall
   109a8:	87aa                	mv	a5,a0
   109aa:	fef42623          	sw	a5,-20(s0)
   109ae:	fec42783          	lw	a5,-20(s0)
   109b2:	853e                	mv	a0,a5
   109b4:	7422                	ld	s0,40(sp)
   109b6:	6145                	add	sp,sp,48
   109b8:	8082                	ret

00000000000109ba <rev_fallocate>:
   109ba:	7139                	add	sp,sp,-64
   109bc:	fc22                	sd	s0,56(sp)
   109be:	0080                	add	s0,sp,64
   109c0:	87aa                	mv	a5,a0
   109c2:	872e                	mv	a4,a1
   109c4:	fcc43823          	sd	a2,-48(s0)
   109c8:	fcd43423          	sd	a3,-56(s0)
   109cc:	fcf42e23          	sw	a5,-36(s0)
   109d0:	87ba                	mv	a5,a4
   109d2:	fcf42c23          	sw	a5,-40(s0)
   109d6:	02f00893          	li	a7,47
   109da:	00000073          	ecall
   109de:	87aa                	mv	a5,a0
   109e0:	fef42623          	sw	a5,-20(s0)
   109e4:	fec42783          	lw	a5,-20(s0)
   109e8:	853e                	mv	a0,a5
   109ea:	7462                	ld	s0,56(sp)
   109ec:	6121                	add	sp,sp,64
   109ee:	8082                	ret

00000000000109f0 <rev_faccessat>:
   109f0:	7179                	add	sp,sp,-48
   109f2:	f422                	sd	s0,40(sp)
   109f4:	1800                	add	s0,sp,48
   109f6:	87aa                	mv	a5,a0
   109f8:	fcb43823          	sd	a1,-48(s0)
   109fc:	8732                	mv	a4,a2
   109fe:	fcf42e23          	sw	a5,-36(s0)
   10a02:	87ba                	mv	a5,a4
   10a04:	fcf42c23          	sw	a5,-40(s0)
   10a08:	03000893          	li	a7,48
   10a0c:	00000073          	ecall
   10a10:	87aa                	mv	a5,a0
   10a12:	fef42623          	sw	a5,-20(s0)
   10a16:	fec42783          	lw	a5,-20(s0)
   10a1a:	853e                	mv	a0,a5
   10a1c:	7422                	ld	s0,40(sp)
   10a1e:	6145                	add	sp,sp,48
   10a20:	8082                	ret

0000000000010a22 <rev_chdir>:
   10a22:	7179                	add	sp,sp,-48
   10a24:	f422                	sd	s0,40(sp)
   10a26:	1800                	add	s0,sp,48
   10a28:	fca43c23          	sd	a0,-40(s0)
   10a2c:	03100893          	li	a7,49
   10a30:	00000073          	ecall
   10a34:	87aa                	mv	a5,a0
   10a36:	fef42623          	sw	a5,-20(s0)
   10a3a:	fec42783          	lw	a5,-20(s0)
   10a3e:	853e                	mv	a0,a5
   10a40:	7422                	ld	s0,40(sp)
   10a42:	6145                	add	sp,sp,48
   10a44:	8082                	ret

0000000000010a46 <rev_fchdir>:
   10a46:	7179                	add	sp,sp,-48
   10a48:	f422                	sd	s0,40(sp)
   10a4a:	1800                	add	s0,sp,48
   10a4c:	87aa                	mv	a5,a0
   10a4e:	fcf42e23          	sw	a5,-36(s0)
   10a52:	03200893          	li	a7,50
   10a56:	00000073          	ecall
   10a5a:	87aa                	mv	a5,a0
   10a5c:	fef42623          	sw	a5,-20(s0)
   10a60:	fec42783          	lw	a5,-20(s0)
   10a64:	853e                	mv	a0,a5
   10a66:	7422                	ld	s0,40(sp)
   10a68:	6145                	add	sp,sp,48
   10a6a:	8082                	ret

0000000000010a6c <rev_chroot>:
   10a6c:	7179                	add	sp,sp,-48
   10a6e:	f422                	sd	s0,40(sp)
   10a70:	1800                	add	s0,sp,48
   10a72:	fca43c23          	sd	a0,-40(s0)
   10a76:	03300893          	li	a7,51
   10a7a:	00000073          	ecall
   10a7e:	87aa                	mv	a5,a0
   10a80:	fef42623          	sw	a5,-20(s0)
   10a84:	fec42783          	lw	a5,-20(s0)
   10a88:	853e                	mv	a0,a5
   10a8a:	7422                	ld	s0,40(sp)
   10a8c:	6145                	add	sp,sp,48
   10a8e:	8082                	ret

0000000000010a90 <rev_fchmod>:
   10a90:	7179                	add	sp,sp,-48
   10a92:	f422                	sd	s0,40(sp)
   10a94:	1800                	add	s0,sp,48
   10a96:	87aa                	mv	a5,a0
   10a98:	872e                	mv	a4,a1
   10a9a:	fcf42e23          	sw	a5,-36(s0)
   10a9e:	87ba                	mv	a5,a4
   10aa0:	fcf41d23          	sh	a5,-38(s0)
   10aa4:	03400893          	li	a7,52
   10aa8:	00000073          	ecall
   10aac:	87aa                	mv	a5,a0
   10aae:	fef42623          	sw	a5,-20(s0)
   10ab2:	fec42783          	lw	a5,-20(s0)
   10ab6:	853e                	mv	a0,a5
   10ab8:	7422                	ld	s0,40(sp)
   10aba:	6145                	add	sp,sp,48
   10abc:	8082                	ret

0000000000010abe <rev_fchmodat>:
   10abe:	7179                	add	sp,sp,-48
   10ac0:	f422                	sd	s0,40(sp)
   10ac2:	1800                	add	s0,sp,48
   10ac4:	87aa                	mv	a5,a0
   10ac6:	fcb43823          	sd	a1,-48(s0)
   10aca:	8732                	mv	a4,a2
   10acc:	fcf42e23          	sw	a5,-36(s0)
   10ad0:	87ba                	mv	a5,a4
   10ad2:	fcf41d23          	sh	a5,-38(s0)
   10ad6:	03500893          	li	a7,53
   10ada:	00000073          	ecall
   10ade:	87aa                	mv	a5,a0
   10ae0:	fef42623          	sw	a5,-20(s0)
   10ae4:	fec42783          	lw	a5,-20(s0)
   10ae8:	853e                	mv	a0,a5
   10aea:	7422                	ld	s0,40(sp)
   10aec:	6145                	add	sp,sp,48
   10aee:	8082                	ret

0000000000010af0 <rev_fchownat>:
   10af0:	7139                	add	sp,sp,-64
   10af2:	fc22                	sd	s0,56(sp)
   10af4:	0080                	add	s0,sp,64
   10af6:	87aa                	mv	a5,a0
   10af8:	fcb43823          	sd	a1,-48(s0)
   10afc:	fcf42e23          	sw	a5,-36(s0)
   10b00:	87b2                	mv	a5,a2
   10b02:	fcf41d23          	sh	a5,-38(s0)
   10b06:	87b6                	mv	a5,a3
   10b08:	fcf41c23          	sh	a5,-40(s0)
   10b0c:	87ba                	mv	a5,a4
   10b0e:	fcf42623          	sw	a5,-52(s0)
   10b12:	03600893          	li	a7,54
   10b16:	00000073          	ecall
   10b1a:	87aa                	mv	a5,a0
   10b1c:	fef42623          	sw	a5,-20(s0)
   10b20:	fec42783          	lw	a5,-20(s0)
   10b24:	853e                	mv	a0,a5
   10b26:	7462                	ld	s0,56(sp)
   10b28:	6121                	add	sp,sp,64
   10b2a:	8082                	ret

0000000000010b2c <rev_fchown>:
   10b2c:	7179                	add	sp,sp,-48
   10b2e:	f422                	sd	s0,40(sp)
   10b30:	1800                	add	s0,sp,48
   10b32:	87aa                	mv	a5,a0
   10b34:	86ae                	mv	a3,a1
   10b36:	8732                	mv	a4,a2
   10b38:	fcf42e23          	sw	a5,-36(s0)
   10b3c:	87b6                	mv	a5,a3
   10b3e:	fcf41d23          	sh	a5,-38(s0)
   10b42:	87ba                	mv	a5,a4
   10b44:	fcf41c23          	sh	a5,-40(s0)
   10b48:	03700893          	li	a7,55
   10b4c:	00000073          	ecall
   10b50:	87aa                	mv	a5,a0
   10b52:	fef42623          	sw	a5,-20(s0)
   10b56:	fec42783          	lw	a5,-20(s0)
   10b5a:	853e                	mv	a0,a5
   10b5c:	7422                	ld	s0,40(sp)
   10b5e:	6145                	add	sp,sp,48
   10b60:	8082                	ret

0000000000010b62 <rev_openat>:
   10b62:	7139                	add	sp,sp,-64
   10b64:	fc22                	sd	s0,56(sp)
   10b66:	0080                	add	s0,sp,64
   10b68:	87aa                	mv	a5,a0
   10b6a:	fcb43823          	sd	a1,-48(s0)
   10b6e:	8736                	mv	a4,a3
   10b70:	fcf42e23          	sw	a5,-36(s0)
   10b74:	87b2                	mv	a5,a2
   10b76:	fcf42c23          	sw	a5,-40(s0)
   10b7a:	87ba                	mv	a5,a4
   10b7c:	fcf41723          	sh	a5,-50(s0)
   10b80:	03800893          	li	a7,56
   10b84:	00000073          	ecall
   10b88:	87aa                	mv	a5,a0
   10b8a:	fef42623          	sw	a5,-20(s0)
   10b8e:	fec42783          	lw	a5,-20(s0)
   10b92:	853e                	mv	a0,a5
   10b94:	7462                	ld	s0,56(sp)
   10b96:	6121                	add	sp,sp,64
   10b98:	8082                	ret

0000000000010b9a <rev_close>:
   10b9a:	7179                	add	sp,sp,-48
   10b9c:	f422                	sd	s0,40(sp)
   10b9e:	1800                	add	s0,sp,48
   10ba0:	87aa                	mv	a5,a0
   10ba2:	fcf42e23          	sw	a5,-36(s0)
   10ba6:	03900893          	li	a7,57
   10baa:	00000073          	ecall
   10bae:	87aa                	mv	a5,a0
   10bb0:	fef42623          	sw	a5,-20(s0)
   10bb4:	fec42783          	lw	a5,-20(s0)
   10bb8:	853e                	mv	a0,a5
   10bba:	7422                	ld	s0,40(sp)
   10bbc:	6145                	add	sp,sp,48
   10bbe:	8082                	ret

0000000000010bc0 <rev_vhangup>:
   10bc0:	1101                	add	sp,sp,-32
   10bc2:	ec22                	sd	s0,24(sp)
   10bc4:	1000                	add	s0,sp,32
   10bc6:	03a00893          	li	a7,58
   10bca:	00000073          	ecall
   10bce:	87aa                	mv	a5,a0
   10bd0:	fef42623          	sw	a5,-20(s0)
   10bd4:	fec42783          	lw	a5,-20(s0)
   10bd8:	853e                	mv	a0,a5
   10bda:	6462                	ld	s0,24(sp)
   10bdc:	6105                	add	sp,sp,32
   10bde:	8082                	ret

0000000000010be0 <rev_pipe2>:
   10be0:	7179                	add	sp,sp,-48
   10be2:	f422                	sd	s0,40(sp)
   10be4:	1800                	add	s0,sp,48
   10be6:	fca43c23          	sd	a0,-40(s0)
   10bea:	87ae                	mv	a5,a1
   10bec:	fcf42a23          	sw	a5,-44(s0)
   10bf0:	03b00893          	li	a7,59
   10bf4:	00000073          	ecall
   10bf8:	87aa                	mv	a5,a0
   10bfa:	fef42623          	sw	a5,-20(s0)
   10bfe:	fec42783          	lw	a5,-20(s0)
   10c02:	853e                	mv	a0,a5
   10c04:	7422                	ld	s0,40(sp)
   10c06:	6145                	add	sp,sp,48
   10c08:	8082                	ret

0000000000010c0a <rev_quotactl>:
   10c0a:	7139                	add	sp,sp,-64
   10c0c:	fc22                	sd	s0,56(sp)
   10c0e:	0080                	add	s0,sp,64
   10c10:	87aa                	mv	a5,a0
   10c12:	fcb43823          	sd	a1,-48(s0)
   10c16:	8732                	mv	a4,a2
   10c18:	fcd43423          	sd	a3,-56(s0)
   10c1c:	fcf42e23          	sw	a5,-36(s0)
   10c20:	87ba                	mv	a5,a4
   10c22:	fcf41d23          	sh	a5,-38(s0)
   10c26:	03c00893          	li	a7,60
   10c2a:	00000073          	ecall
   10c2e:	87aa                	mv	a5,a0
   10c30:	fef42623          	sw	a5,-20(s0)
   10c34:	fec42783          	lw	a5,-20(s0)
   10c38:	853e                	mv	a0,a5
   10c3a:	7462                	ld	s0,56(sp)
   10c3c:	6121                	add	sp,sp,64
   10c3e:	8082                	ret

0000000000010c40 <rev_getdents64>:
   10c40:	7179                	add	sp,sp,-48
   10c42:	f422                	sd	s0,40(sp)
   10c44:	1800                	add	s0,sp,48
   10c46:	87aa                	mv	a5,a0
   10c48:	fcb43823          	sd	a1,-48(s0)
   10c4c:	8732                	mv	a4,a2
   10c4e:	fcf42e23          	sw	a5,-36(s0)
   10c52:	87ba                	mv	a5,a4
   10c54:	fcf42c23          	sw	a5,-40(s0)
   10c58:	03d00893          	li	a7,61
   10c5c:	00000073          	ecall
   10c60:	87aa                	mv	a5,a0
   10c62:	fef42623          	sw	a5,-20(s0)
   10c66:	fec42783          	lw	a5,-20(s0)
   10c6a:	853e                	mv	a0,a5
   10c6c:	7422                	ld	s0,40(sp)
   10c6e:	6145                	add	sp,sp,48
   10c70:	8082                	ret

0000000000010c72 <rev_llseek>:
   10c72:	7139                	add	sp,sp,-64
   10c74:	fc22                	sd	s0,56(sp)
   10c76:	0080                	add	s0,sp,64
   10c78:	87aa                	mv	a5,a0
   10c7a:	fcb43823          	sd	a1,-48(s0)
   10c7e:	fcc43423          	sd	a2,-56(s0)
   10c82:	fcd43023          	sd	a3,-64(s0)
   10c86:	fcf42e23          	sw	a5,-36(s0)
   10c8a:	87ba                	mv	a5,a4
   10c8c:	fcf42c23          	sw	a5,-40(s0)
   10c90:	03e00893          	li	a7,62
   10c94:	00000073          	ecall
   10c98:	87aa                	mv	a5,a0
   10c9a:	fef42623          	sw	a5,-20(s0)
   10c9e:	fec42783          	lw	a5,-20(s0)
   10ca2:	853e                	mv	a0,a5
   10ca4:	7462                	ld	s0,56(sp)
   10ca6:	6121                	add	sp,sp,64
   10ca8:	8082                	ret

0000000000010caa <rev_read>:
   10caa:	7139                	add	sp,sp,-64
   10cac:	fc22                	sd	s0,56(sp)
   10cae:	0080                	add	s0,sp,64
   10cb0:	87aa                	mv	a5,a0
   10cb2:	fcb43823          	sd	a1,-48(s0)
   10cb6:	fcc43423          	sd	a2,-56(s0)
   10cba:	fcf42e23          	sw	a5,-36(s0)
   10cbe:	03f00893          	li	a7,63
   10cc2:	00000073          	ecall
   10cc6:	87aa                	mv	a5,a0
   10cc8:	fef42623          	sw	a5,-20(s0)
   10ccc:	fec42783          	lw	a5,-20(s0)
   10cd0:	853e                	mv	a0,a5
   10cd2:	7462                	ld	s0,56(sp)
   10cd4:	6121                	add	sp,sp,64
   10cd6:	8082                	ret

0000000000010cd8 <rev_write>:
   10cd8:	7139                	add	sp,sp,-64
   10cda:	fc22                	sd	s0,56(sp)
   10cdc:	0080                	add	s0,sp,64
   10cde:	87aa                	mv	a5,a0
   10ce0:	fcb43823          	sd	a1,-48(s0)
   10ce4:	fcc43423          	sd	a2,-56(s0)
   10ce8:	fcf42e23          	sw	a5,-36(s0)
   10cec:	04000893          	li	a7,64
   10cf0:	00000073          	ecall
   10cf4:	87aa                	mv	a5,a0
   10cf6:	fef42623          	sw	a5,-20(s0)
   10cfa:	fec42783          	lw	a5,-20(s0)
   10cfe:	853e                	mv	a0,a5
   10d00:	7462                	ld	s0,56(sp)
   10d02:	6121                	add	sp,sp,64
   10d04:	8082                	ret

0000000000010d06 <rev_readv>:
   10d06:	7139                	add	sp,sp,-64
   10d08:	fc22                	sd	s0,56(sp)
   10d0a:	0080                	add	s0,sp,64
   10d0c:	fca43c23          	sd	a0,-40(s0)
   10d10:	fcb43823          	sd	a1,-48(s0)
   10d14:	fcc43423          	sd	a2,-56(s0)
   10d18:	04100893          	li	a7,65
   10d1c:	00000073          	ecall
   10d20:	87aa                	mv	a5,a0
   10d22:	fef42623          	sw	a5,-20(s0)
   10d26:	fec42783          	lw	a5,-20(s0)
   10d2a:	853e                	mv	a0,a5
   10d2c:	7462                	ld	s0,56(sp)
   10d2e:	6121                	add	sp,sp,64
   10d30:	8082                	ret

0000000000010d32 <rev_writev>:
   10d32:	7139                	add	sp,sp,-64
   10d34:	fc22                	sd	s0,56(sp)
   10d36:	0080                	add	s0,sp,64
   10d38:	fca43c23          	sd	a0,-40(s0)
   10d3c:	fcb43823          	sd	a1,-48(s0)
   10d40:	fcc43423          	sd	a2,-56(s0)
   10d44:	04200893          	li	a7,66
   10d48:	00000073          	ecall
   10d4c:	87aa                	mv	a5,a0
   10d4e:	fef42623          	sw	a5,-20(s0)
   10d52:	fec42783          	lw	a5,-20(s0)
   10d56:	853e                	mv	a0,a5
   10d58:	7462                	ld	s0,56(sp)
   10d5a:	6121                	add	sp,sp,64
   10d5c:	8082                	ret

0000000000010d5e <rev_pread64>:
   10d5e:	7139                	add	sp,sp,-64
   10d60:	fc22                	sd	s0,56(sp)
   10d62:	0080                	add	s0,sp,64
   10d64:	87aa                	mv	a5,a0
   10d66:	fcb43823          	sd	a1,-48(s0)
   10d6a:	fcc43423          	sd	a2,-56(s0)
   10d6e:	fcd43023          	sd	a3,-64(s0)
   10d72:	fcf42e23          	sw	a5,-36(s0)
   10d76:	04300893          	li	a7,67
   10d7a:	00000073          	ecall
   10d7e:	87aa                	mv	a5,a0
   10d80:	fef42623          	sw	a5,-20(s0)
   10d84:	fec42783          	lw	a5,-20(s0)
   10d88:	853e                	mv	a0,a5
   10d8a:	7462                	ld	s0,56(sp)
   10d8c:	6121                	add	sp,sp,64
   10d8e:	8082                	ret

0000000000010d90 <rev_pwrite64>:
   10d90:	7139                	add	sp,sp,-64
   10d92:	fc22                	sd	s0,56(sp)
   10d94:	0080                	add	s0,sp,64
   10d96:	87aa                	mv	a5,a0
   10d98:	fcb43823          	sd	a1,-48(s0)
   10d9c:	fcc43423          	sd	a2,-56(s0)
   10da0:	fcd43023          	sd	a3,-64(s0)
   10da4:	fcf42e23          	sw	a5,-36(s0)
   10da8:	04400893          	li	a7,68
   10dac:	00000073          	ecall
   10db0:	87aa                	mv	a5,a0
   10db2:	fef42623          	sw	a5,-20(s0)
   10db6:	fec42783          	lw	a5,-20(s0)
   10dba:	853e                	mv	a0,a5
   10dbc:	7462                	ld	s0,56(sp)
   10dbe:	6121                	add	sp,sp,64
   10dc0:	8082                	ret

0000000000010dc2 <rev_preadv>:
   10dc2:	715d                	add	sp,sp,-80
   10dc4:	e4a2                	sd	s0,72(sp)
   10dc6:	0880                	add	s0,sp,80
   10dc8:	fca43c23          	sd	a0,-40(s0)
   10dcc:	fcb43823          	sd	a1,-48(s0)
   10dd0:	fcc43423          	sd	a2,-56(s0)
   10dd4:	fcd43023          	sd	a3,-64(s0)
   10dd8:	fae43c23          	sd	a4,-72(s0)
   10ddc:	04500893          	li	a7,69
   10de0:	00000073          	ecall
   10de4:	87aa                	mv	a5,a0
   10de6:	fef42623          	sw	a5,-20(s0)
   10dea:	fec42783          	lw	a5,-20(s0)
   10dee:	853e                	mv	a0,a5
   10df0:	6426                	ld	s0,72(sp)
   10df2:	6161                	add	sp,sp,80
   10df4:	8082                	ret

0000000000010df6 <rev_pwritev>:
   10df6:	715d                	add	sp,sp,-80
   10df8:	e4a2                	sd	s0,72(sp)
   10dfa:	0880                	add	s0,sp,80
   10dfc:	fca43c23          	sd	a0,-40(s0)
   10e00:	fcb43823          	sd	a1,-48(s0)
   10e04:	fcc43423          	sd	a2,-56(s0)
   10e08:	fcd43023          	sd	a3,-64(s0)
   10e0c:	fae43c23          	sd	a4,-72(s0)
   10e10:	04600893          	li	a7,70
   10e14:	00000073          	ecall
   10e18:	87aa                	mv	a5,a0
   10e1a:	fef42623          	sw	a5,-20(s0)
   10e1e:	fec42783          	lw	a5,-20(s0)
   10e22:	853e                	mv	a0,a5
   10e24:	6426                	ld	s0,72(sp)
   10e26:	6161                	add	sp,sp,80
   10e28:	8082                	ret

0000000000010e2a <rev_sendfile64>:
   10e2a:	7139                	add	sp,sp,-64
   10e2c:	fc22                	sd	s0,56(sp)
   10e2e:	0080                	add	s0,sp,64
   10e30:	87aa                	mv	a5,a0
   10e32:	872e                	mv	a4,a1
   10e34:	fcc43823          	sd	a2,-48(s0)
   10e38:	fcd43423          	sd	a3,-56(s0)
   10e3c:	fcf42e23          	sw	a5,-36(s0)
   10e40:	87ba                	mv	a5,a4
   10e42:	fcf42c23          	sw	a5,-40(s0)
   10e46:	04700893          	li	a7,71
   10e4a:	00000073          	ecall
   10e4e:	87aa                	mv	a5,a0
   10e50:	fef42623          	sw	a5,-20(s0)
   10e54:	fec42783          	lw	a5,-20(s0)
   10e58:	853e                	mv	a0,a5
   10e5a:	7462                	ld	s0,56(sp)
   10e5c:	6121                	add	sp,sp,64
   10e5e:	8082                	ret

0000000000010e60 <rev_pselect6_time32>:
   10e60:	715d                	add	sp,sp,-80
   10e62:	e4a2                	sd	s0,72(sp)
   10e64:	0880                	add	s0,sp,80
   10e66:	fcb43823          	sd	a1,-48(s0)
   10e6a:	fcc43423          	sd	a2,-56(s0)
   10e6e:	fcd43023          	sd	a3,-64(s0)
   10e72:	fae43c23          	sd	a4,-72(s0)
   10e76:	faf43823          	sd	a5,-80(s0)
   10e7a:	87aa                	mv	a5,a0
   10e7c:	fcf42e23          	sw	a5,-36(s0)
   10e80:	04800893          	li	a7,72
   10e84:	00000073          	ecall
   10e88:	87aa                	mv	a5,a0
   10e8a:	fef42623          	sw	a5,-20(s0)
   10e8e:	fec42783          	lw	a5,-20(s0)
   10e92:	853e                	mv	a0,a5
   10e94:	6426                	ld	s0,72(sp)
   10e96:	6161                	add	sp,sp,80
   10e98:	8082                	ret

0000000000010e9a <rev_ppoll_time32>:
   10e9a:	715d                	add	sp,sp,-80
   10e9c:	e4a2                	sd	s0,72(sp)
   10e9e:	0880                	add	s0,sp,80
   10ea0:	fca43c23          	sd	a0,-40(s0)
   10ea4:	87ae                	mv	a5,a1
   10ea6:	fcc43423          	sd	a2,-56(s0)
   10eaa:	fcd43023          	sd	a3,-64(s0)
   10eae:	fae43c23          	sd	a4,-72(s0)
   10eb2:	fcf42a23          	sw	a5,-44(s0)
   10eb6:	04900893          	li	a7,73
   10eba:	00000073          	ecall
   10ebe:	87aa                	mv	a5,a0
   10ec0:	fef42623          	sw	a5,-20(s0)
   10ec4:	fec42783          	lw	a5,-20(s0)
   10ec8:	853e                	mv	a0,a5
   10eca:	6426                	ld	s0,72(sp)
   10ecc:	6161                	add	sp,sp,80
   10ece:	8082                	ret

0000000000010ed0 <rev_signalfd4>:
   10ed0:	7139                	add	sp,sp,-64
   10ed2:	fc22                	sd	s0,56(sp)
   10ed4:	0080                	add	s0,sp,64
   10ed6:	87aa                	mv	a5,a0
   10ed8:	fcb43823          	sd	a1,-48(s0)
   10edc:	fcc43423          	sd	a2,-56(s0)
   10ee0:	8736                	mv	a4,a3
   10ee2:	fcf42e23          	sw	a5,-36(s0)
   10ee6:	87ba                	mv	a5,a4
   10ee8:	fcf42c23          	sw	a5,-40(s0)
   10eec:	04a00893          	li	a7,74
   10ef0:	00000073          	ecall
   10ef4:	87aa                	mv	a5,a0
   10ef6:	fef42623          	sw	a5,-20(s0)
   10efa:	fec42783          	lw	a5,-20(s0)
   10efe:	853e                	mv	a0,a5
   10f00:	7462                	ld	s0,56(sp)
   10f02:	6121                	add	sp,sp,64
   10f04:	8082                	ret

0000000000010f06 <rev_vmsplice>:
   10f06:	7139                	add	sp,sp,-64
   10f08:	fc22                	sd	s0,56(sp)
   10f0a:	0080                	add	s0,sp,64
   10f0c:	87aa                	mv	a5,a0
   10f0e:	fcb43823          	sd	a1,-48(s0)
   10f12:	fcc43423          	sd	a2,-56(s0)
   10f16:	8736                	mv	a4,a3
   10f18:	fcf42e23          	sw	a5,-36(s0)
   10f1c:	87ba                	mv	a5,a4
   10f1e:	fcf42c23          	sw	a5,-40(s0)
   10f22:	04b00893          	li	a7,75
   10f26:	00000073          	ecall
   10f2a:	87aa                	mv	a5,a0
   10f2c:	fef42623          	sw	a5,-20(s0)
   10f30:	fec42783          	lw	a5,-20(s0)
   10f34:	853e                	mv	a0,a5
   10f36:	7462                	ld	s0,56(sp)
   10f38:	6121                	add	sp,sp,64
   10f3a:	8082                	ret

0000000000010f3c <rev_tee>:
   10f3c:	7139                	add	sp,sp,-64
   10f3e:	fc22                	sd	s0,56(sp)
   10f40:	0080                	add	s0,sp,64
   10f42:	87aa                	mv	a5,a0
   10f44:	fcc43823          	sd	a2,-48(s0)
   10f48:	8736                	mv	a4,a3
   10f4a:	fcf42e23          	sw	a5,-36(s0)
   10f4e:	87ae                	mv	a5,a1
   10f50:	fcf42c23          	sw	a5,-40(s0)
   10f54:	87ba                	mv	a5,a4
   10f56:	fcf42623          	sw	a5,-52(s0)
   10f5a:	04d00893          	li	a7,77
   10f5e:	00000073          	ecall
   10f62:	87aa                	mv	a5,a0
   10f64:	fef42623          	sw	a5,-20(s0)
   10f68:	fec42783          	lw	a5,-20(s0)
   10f6c:	853e                	mv	a0,a5
   10f6e:	7462                	ld	s0,56(sp)
   10f70:	6121                	add	sp,sp,64
   10f72:	8082                	ret

0000000000010f74 <rev_readlinkat>:
   10f74:	7139                	add	sp,sp,-64
   10f76:	fc22                	sd	s0,56(sp)
   10f78:	0080                	add	s0,sp,64
   10f7a:	87aa                	mv	a5,a0
   10f7c:	fcb43823          	sd	a1,-48(s0)
   10f80:	fcc43423          	sd	a2,-56(s0)
   10f84:	8736                	mv	a4,a3
   10f86:	fcf42e23          	sw	a5,-36(s0)
   10f8a:	87ba                	mv	a5,a4
   10f8c:	fcf42c23          	sw	a5,-40(s0)
   10f90:	04e00893          	li	a7,78
   10f94:	00000073          	ecall
   10f98:	87aa                	mv	a5,a0
   10f9a:	fef42623          	sw	a5,-20(s0)
   10f9e:	fec42783          	lw	a5,-20(s0)
   10fa2:	853e                	mv	a0,a5
   10fa4:	7462                	ld	s0,56(sp)
   10fa6:	6121                	add	sp,sp,64
   10fa8:	8082                	ret

0000000000010faa <rev_newfstatat>:
   10faa:	7139                	add	sp,sp,-64
   10fac:	fc22                	sd	s0,56(sp)
   10fae:	0080                	add	s0,sp,64
   10fb0:	87aa                	mv	a5,a0
   10fb2:	fcb43823          	sd	a1,-48(s0)
   10fb6:	fcc43423          	sd	a2,-56(s0)
   10fba:	8736                	mv	a4,a3
   10fbc:	fcf42e23          	sw	a5,-36(s0)
   10fc0:	87ba                	mv	a5,a4
   10fc2:	fcf42c23          	sw	a5,-40(s0)
   10fc6:	04f00893          	li	a7,79
   10fca:	00000073          	ecall
   10fce:	87aa                	mv	a5,a0
   10fd0:	fef42623          	sw	a5,-20(s0)
   10fd4:	fec42783          	lw	a5,-20(s0)
   10fd8:	853e                	mv	a0,a5
   10fda:	7462                	ld	s0,56(sp)
   10fdc:	6121                	add	sp,sp,64
   10fde:	8082                	ret

0000000000010fe0 <rev_newfstat>:
   10fe0:	7179                	add	sp,sp,-48
   10fe2:	f422                	sd	s0,40(sp)
   10fe4:	1800                	add	s0,sp,48
   10fe6:	87aa                	mv	a5,a0
   10fe8:	fcb43823          	sd	a1,-48(s0)
   10fec:	fcf42e23          	sw	a5,-36(s0)
   10ff0:	05000893          	li	a7,80
   10ff4:	00000073          	ecall
   10ff8:	87aa                	mv	a5,a0
   10ffa:	fef42623          	sw	a5,-20(s0)
   10ffe:	fec42783          	lw	a5,-20(s0)
   11002:	853e                	mv	a0,a5
   11004:	7422                	ld	s0,40(sp)
   11006:	6145                	add	sp,sp,48
   11008:	8082                	ret

000000000001100a <rev_sync>:
   1100a:	1101                	add	sp,sp,-32
   1100c:	ec22                	sd	s0,24(sp)
   1100e:	1000                	add	s0,sp,32
   11010:	05100893          	li	a7,81
   11014:	00000073          	ecall
   11018:	87aa                	mv	a5,a0
   1101a:	fef42623          	sw	a5,-20(s0)
   1101e:	fec42783          	lw	a5,-20(s0)
   11022:	853e                	mv	a0,a5
   11024:	6462                	ld	s0,24(sp)
   11026:	6105                	add	sp,sp,32
   11028:	8082                	ret

000000000001102a <rev_fsync>:
   1102a:	7179                	add	sp,sp,-48
   1102c:	f422                	sd	s0,40(sp)
   1102e:	1800                	add	s0,sp,48
   11030:	87aa                	mv	a5,a0
   11032:	fcf42e23          	sw	a5,-36(s0)
   11036:	05200893          	li	a7,82
   1103a:	00000073          	ecall
   1103e:	87aa                	mv	a5,a0
   11040:	fef42623          	sw	a5,-20(s0)
   11044:	fec42783          	lw	a5,-20(s0)
   11048:	853e                	mv	a0,a5
   1104a:	7422                	ld	s0,40(sp)
   1104c:	6145                	add	sp,sp,48
   1104e:	8082                	ret

0000000000011050 <rev_fdatasync>:
   11050:	7179                	add	sp,sp,-48
   11052:	f422                	sd	s0,40(sp)
   11054:	1800                	add	s0,sp,48
   11056:	87aa                	mv	a5,a0
   11058:	fcf42e23          	sw	a5,-36(s0)
   1105c:	05300893          	li	a7,83
   11060:	00000073          	ecall
   11064:	87aa                	mv	a5,a0
   11066:	fef42623          	sw	a5,-20(s0)
   1106a:	fec42783          	lw	a5,-20(s0)
   1106e:	853e                	mv	a0,a5
   11070:	7422                	ld	s0,40(sp)
   11072:	6145                	add	sp,sp,48
   11074:	8082                	ret

0000000000011076 <rev_sync_file_range2>:
   11076:	7139                	add	sp,sp,-64
   11078:	fc22                	sd	s0,56(sp)
   1107a:	0080                	add	s0,sp,64
   1107c:	87aa                	mv	a5,a0
   1107e:	872e                	mv	a4,a1
   11080:	fcc43823          	sd	a2,-48(s0)
   11084:	fcd43423          	sd	a3,-56(s0)
   11088:	fcf42e23          	sw	a5,-36(s0)
   1108c:	87ba                	mv	a5,a4
   1108e:	fcf42c23          	sw	a5,-40(s0)
   11092:	05400893          	li	a7,84
   11096:	00000073          	ecall
   1109a:	87aa                	mv	a5,a0
   1109c:	fef42623          	sw	a5,-20(s0)
   110a0:	fec42783          	lw	a5,-20(s0)
   110a4:	853e                	mv	a0,a5
   110a6:	7462                	ld	s0,56(sp)
   110a8:	6121                	add	sp,sp,64
   110aa:	8082                	ret

00000000000110ac <rev_sync_file_range>:
   110ac:	7139                	add	sp,sp,-64
   110ae:	fc22                	sd	s0,56(sp)
   110b0:	0080                	add	s0,sp,64
   110b2:	87aa                	mv	a5,a0
   110b4:	fcb43823          	sd	a1,-48(s0)
   110b8:	fcc43423          	sd	a2,-56(s0)
   110bc:	8736                	mv	a4,a3
   110be:	fcf42e23          	sw	a5,-36(s0)
   110c2:	87ba                	mv	a5,a4
   110c4:	fcf42c23          	sw	a5,-40(s0)
   110c8:	05400893          	li	a7,84
   110cc:	00000073          	ecall
   110d0:	87aa                	mv	a5,a0
   110d2:	fef42623          	sw	a5,-20(s0)
   110d6:	fec42783          	lw	a5,-20(s0)
   110da:	853e                	mv	a0,a5
   110dc:	7462                	ld	s0,56(sp)
   110de:	6121                	add	sp,sp,64
   110e0:	8082                	ret

00000000000110e2 <rev_timerfd_create>:
   110e2:	7179                	add	sp,sp,-48
   110e4:	f422                	sd	s0,40(sp)
   110e6:	1800                	add	s0,sp,48
   110e8:	87aa                	mv	a5,a0
   110ea:	872e                	mv	a4,a1
   110ec:	fcf42e23          	sw	a5,-36(s0)
   110f0:	87ba                	mv	a5,a4
   110f2:	fcf42c23          	sw	a5,-40(s0)
   110f6:	05500893          	li	a7,85
   110fa:	00000073          	ecall
   110fe:	87aa                	mv	a5,a0
   11100:	fef42623          	sw	a5,-20(s0)
   11104:	fec42783          	lw	a5,-20(s0)
   11108:	853e                	mv	a0,a5
   1110a:	7422                	ld	s0,40(sp)
   1110c:	6145                	add	sp,sp,48
   1110e:	8082                	ret

0000000000011110 <rev_timerfd_settime>:
   11110:	7139                	add	sp,sp,-64
   11112:	fc22                	sd	s0,56(sp)
   11114:	0080                	add	s0,sp,64
   11116:	87aa                	mv	a5,a0
   11118:	872e                	mv	a4,a1
   1111a:	fcc43823          	sd	a2,-48(s0)
   1111e:	fcd43423          	sd	a3,-56(s0)
   11122:	fcf42e23          	sw	a5,-36(s0)
   11126:	87ba                	mv	a5,a4
   11128:	fcf42c23          	sw	a5,-40(s0)
   1112c:	05600893          	li	a7,86
   11130:	00000073          	ecall
   11134:	87aa                	mv	a5,a0
   11136:	fef42623          	sw	a5,-20(s0)
   1113a:	fec42783          	lw	a5,-20(s0)
   1113e:	853e                	mv	a0,a5
   11140:	7462                	ld	s0,56(sp)
   11142:	6121                	add	sp,sp,64
   11144:	8082                	ret

0000000000011146 <rev_timerfd_gettime>:
   11146:	7179                	add	sp,sp,-48
   11148:	f422                	sd	s0,40(sp)
   1114a:	1800                	add	s0,sp,48
   1114c:	87aa                	mv	a5,a0
   1114e:	fcb43823          	sd	a1,-48(s0)
   11152:	fcf42e23          	sw	a5,-36(s0)
   11156:	05700893          	li	a7,87
   1115a:	00000073          	ecall
   1115e:	87aa                	mv	a5,a0
   11160:	fef42623          	sw	a5,-20(s0)
   11164:	fec42783          	lw	a5,-20(s0)
   11168:	853e                	mv	a0,a5
   1116a:	7422                	ld	s0,40(sp)
   1116c:	6145                	add	sp,sp,48
   1116e:	8082                	ret

0000000000011170 <rev_utimensat>:
   11170:	7139                	add	sp,sp,-64
   11172:	fc22                	sd	s0,56(sp)
   11174:	0080                	add	s0,sp,64
   11176:	87aa                	mv	a5,a0
   11178:	fcb43823          	sd	a1,-48(s0)
   1117c:	fcc43423          	sd	a2,-56(s0)
   11180:	8736                	mv	a4,a3
   11182:	fcf42e23          	sw	a5,-36(s0)
   11186:	87ba                	mv	a5,a4
   11188:	fcf42c23          	sw	a5,-40(s0)
   1118c:	05800893          	li	a7,88
   11190:	00000073          	ecall
   11194:	87aa                	mv	a5,a0
   11196:	fef42623          	sw	a5,-20(s0)
   1119a:	fec42783          	lw	a5,-20(s0)
   1119e:	853e                	mv	a0,a5
   111a0:	7462                	ld	s0,56(sp)
   111a2:	6121                	add	sp,sp,64
   111a4:	8082                	ret

00000000000111a6 <rev_acct>:
   111a6:	7179                	add	sp,sp,-48
   111a8:	f422                	sd	s0,40(sp)
   111aa:	1800                	add	s0,sp,48
   111ac:	fca43c23          	sd	a0,-40(s0)
   111b0:	05900893          	li	a7,89
   111b4:	00000073          	ecall
   111b8:	87aa                	mv	a5,a0
   111ba:	fef42623          	sw	a5,-20(s0)
   111be:	fec42783          	lw	a5,-20(s0)
   111c2:	853e                	mv	a0,a5
   111c4:	7422                	ld	s0,40(sp)
   111c6:	6145                	add	sp,sp,48
   111c8:	8082                	ret

00000000000111ca <rev_capget>:
   111ca:	7179                	add	sp,sp,-48
   111cc:	f422                	sd	s0,40(sp)
   111ce:	1800                	add	s0,sp,48
   111d0:	fca43c23          	sd	a0,-40(s0)
   111d4:	fcb43823          	sd	a1,-48(s0)
   111d8:	05a00893          	li	a7,90
   111dc:	00000073          	ecall
   111e0:	87aa                	mv	a5,a0
   111e2:	fef42623          	sw	a5,-20(s0)
   111e6:	fec42783          	lw	a5,-20(s0)
   111ea:	853e                	mv	a0,a5
   111ec:	7422                	ld	s0,40(sp)
   111ee:	6145                	add	sp,sp,48
   111f0:	8082                	ret

00000000000111f2 <rev_capset>:
   111f2:	7179                	add	sp,sp,-48
   111f4:	f422                	sd	s0,40(sp)
   111f6:	1800                	add	s0,sp,48
   111f8:	fca43c23          	sd	a0,-40(s0)
   111fc:	fcb43823          	sd	a1,-48(s0)
   11200:	05b00893          	li	a7,91
   11204:	00000073          	ecall
   11208:	87aa                	mv	a5,a0
   1120a:	fef42623          	sw	a5,-20(s0)
   1120e:	fec42783          	lw	a5,-20(s0)
   11212:	853e                	mv	a0,a5
   11214:	7422                	ld	s0,40(sp)
   11216:	6145                	add	sp,sp,48
   11218:	8082                	ret

000000000001121a <rev_personality>:
   1121a:	7179                	add	sp,sp,-48
   1121c:	f422                	sd	s0,40(sp)
   1121e:	1800                	add	s0,sp,48
   11220:	87aa                	mv	a5,a0
   11222:	fcf42e23          	sw	a5,-36(s0)
   11226:	05c00893          	li	a7,92
   1122a:	00000073          	ecall
   1122e:	87aa                	mv	a5,a0
   11230:	fef42623          	sw	a5,-20(s0)
   11234:	fec42783          	lw	a5,-20(s0)
   11238:	853e                	mv	a0,a5
   1123a:	7422                	ld	s0,40(sp)
   1123c:	6145                	add	sp,sp,48
   1123e:	8082                	ret

0000000000011240 <rev_exit>:
   11240:	7179                	add	sp,sp,-48
   11242:	f422                	sd	s0,40(sp)
   11244:	1800                	add	s0,sp,48
   11246:	87aa                	mv	a5,a0
   11248:	fcf42e23          	sw	a5,-36(s0)
   1124c:	05d00893          	li	a7,93
   11250:	00000073          	ecall
   11254:	87aa                	mv	a5,a0
   11256:	fef42623          	sw	a5,-20(s0)
   1125a:	fec42783          	lw	a5,-20(s0)
   1125e:	853e                	mv	a0,a5
   11260:	7422                	ld	s0,40(sp)
   11262:	6145                	add	sp,sp,48
   11264:	8082                	ret

0000000000011266 <rev_exit_group>:
   11266:	7179                	add	sp,sp,-48
   11268:	f422                	sd	s0,40(sp)
   1126a:	1800                	add	s0,sp,48
   1126c:	87aa                	mv	a5,a0
   1126e:	fcf42e23          	sw	a5,-36(s0)
   11272:	05e00893          	li	a7,94
   11276:	00000073          	ecall
   1127a:	87aa                	mv	a5,a0
   1127c:	fef42623          	sw	a5,-20(s0)
   11280:	fec42783          	lw	a5,-20(s0)
   11284:	853e                	mv	a0,a5
   11286:	7422                	ld	s0,40(sp)
   11288:	6145                	add	sp,sp,48
   1128a:	8082                	ret

000000000001128c <rev_waitid>:
   1128c:	7139                	add	sp,sp,-64
   1128e:	fc22                	sd	s0,56(sp)
   11290:	0080                	add	s0,sp,64
   11292:	87aa                	mv	a5,a0
   11294:	fcc43823          	sd	a2,-48(s0)
   11298:	fce43023          	sd	a4,-64(s0)
   1129c:	fcf42e23          	sw	a5,-36(s0)
   112a0:	87ae                	mv	a5,a1
   112a2:	fcf42c23          	sw	a5,-40(s0)
   112a6:	87b6                	mv	a5,a3
   112a8:	fcf42623          	sw	a5,-52(s0)
   112ac:	05f00893          	li	a7,95
   112b0:	00000073          	ecall
   112b4:	87aa                	mv	a5,a0
   112b6:	fef42623          	sw	a5,-20(s0)
   112ba:	fec42783          	lw	a5,-20(s0)
   112be:	853e                	mv	a0,a5
   112c0:	7462                	ld	s0,56(sp)
   112c2:	6121                	add	sp,sp,64
   112c4:	8082                	ret

00000000000112c6 <rev_set_tid_address>:
   112c6:	7179                	add	sp,sp,-48
   112c8:	f422                	sd	s0,40(sp)
   112ca:	1800                	add	s0,sp,48
   112cc:	fca43c23          	sd	a0,-40(s0)
   112d0:	06000893          	li	a7,96
   112d4:	00000073          	ecall
   112d8:	87aa                	mv	a5,a0
   112da:	fef42623          	sw	a5,-20(s0)
   112de:	fec42783          	lw	a5,-20(s0)
   112e2:	853e                	mv	a0,a5
   112e4:	7422                	ld	s0,40(sp)
   112e6:	6145                	add	sp,sp,48
   112e8:	8082                	ret

00000000000112ea <rev_unshare>:
   112ea:	7179                	add	sp,sp,-48
   112ec:	f422                	sd	s0,40(sp)
   112ee:	1800                	add	s0,sp,48
   112f0:	fca43c23          	sd	a0,-40(s0)
   112f4:	06100893          	li	a7,97
   112f8:	00000073          	ecall
   112fc:	87aa                	mv	a5,a0
   112fe:	fef42623          	sw	a5,-20(s0)
   11302:	fec42783          	lw	a5,-20(s0)
   11306:	853e                	mv	a0,a5
   11308:	7422                	ld	s0,40(sp)
   1130a:	6145                	add	sp,sp,48
   1130c:	8082                	ret

000000000001130e <rev_set_robust_list>:
   1130e:	7179                	add	sp,sp,-48
   11310:	f422                	sd	s0,40(sp)
   11312:	1800                	add	s0,sp,48
   11314:	fca43c23          	sd	a0,-40(s0)
   11318:	fcb43823          	sd	a1,-48(s0)
   1131c:	06300893          	li	a7,99
   11320:	00000073          	ecall
   11324:	87aa                	mv	a5,a0
   11326:	fef42623          	sw	a5,-20(s0)
   1132a:	fec42783          	lw	a5,-20(s0)
   1132e:	853e                	mv	a0,a5
   11330:	7422                	ld	s0,40(sp)
   11332:	6145                	add	sp,sp,48
   11334:	8082                	ret

0000000000011336 <rev_get_robust_list>:
   11336:	7139                	add	sp,sp,-64
   11338:	fc22                	sd	s0,56(sp)
   1133a:	0080                	add	s0,sp,64
   1133c:	87aa                	mv	a5,a0
   1133e:	fcb43823          	sd	a1,-48(s0)
   11342:	fcc43423          	sd	a2,-56(s0)
   11346:	fcf42e23          	sw	a5,-36(s0)
   1134a:	06400893          	li	a7,100
   1134e:	00000073          	ecall
   11352:	87aa                	mv	a5,a0
   11354:	fef42623          	sw	a5,-20(s0)
   11358:	fec42783          	lw	a5,-20(s0)
   1135c:	853e                	mv	a0,a5
   1135e:	7462                	ld	s0,56(sp)
   11360:	6121                	add	sp,sp,64
   11362:	8082                	ret

0000000000011364 <rev_nanosleep>:
   11364:	7179                	add	sp,sp,-48
   11366:	f422                	sd	s0,40(sp)
   11368:	1800                	add	s0,sp,48
   1136a:	fca43c23          	sd	a0,-40(s0)
   1136e:	fcb43823          	sd	a1,-48(s0)
   11372:	06500893          	li	a7,101
   11376:	00000073          	ecall
   1137a:	87aa                	mv	a5,a0
   1137c:	fef42623          	sw	a5,-20(s0)
   11380:	fec42783          	lw	a5,-20(s0)
   11384:	853e                	mv	a0,a5
   11386:	7422                	ld	s0,40(sp)
   11388:	6145                	add	sp,sp,48
   1138a:	8082                	ret

000000000001138c <rev_getitimer>:
   1138c:	7179                	add	sp,sp,-48
   1138e:	f422                	sd	s0,40(sp)
   11390:	1800                	add	s0,sp,48
   11392:	87aa                	mv	a5,a0
   11394:	fcb43823          	sd	a1,-48(s0)
   11398:	fcf42e23          	sw	a5,-36(s0)
   1139c:	06600893          	li	a7,102
   113a0:	00000073          	ecall
   113a4:	87aa                	mv	a5,a0
   113a6:	fef42623          	sw	a5,-20(s0)
   113aa:	fec42783          	lw	a5,-20(s0)
   113ae:	853e                	mv	a0,a5
   113b0:	7422                	ld	s0,40(sp)
   113b2:	6145                	add	sp,sp,48
   113b4:	8082                	ret

00000000000113b6 <rev_setitimer>:
   113b6:	7139                	add	sp,sp,-64
   113b8:	fc22                	sd	s0,56(sp)
   113ba:	0080                	add	s0,sp,64
   113bc:	87aa                	mv	a5,a0
   113be:	fcb43823          	sd	a1,-48(s0)
   113c2:	fcc43423          	sd	a2,-56(s0)
   113c6:	fcf42e23          	sw	a5,-36(s0)
   113ca:	06700893          	li	a7,103
   113ce:	00000073          	ecall
   113d2:	87aa                	mv	a5,a0
   113d4:	fef42623          	sw	a5,-20(s0)
   113d8:	fec42783          	lw	a5,-20(s0)
   113dc:	853e                	mv	a0,a5
   113de:	7462                	ld	s0,56(sp)
   113e0:	6121                	add	sp,sp,64
   113e2:	8082                	ret

00000000000113e4 <rev_kexec_load>:
   113e4:	7139                	add	sp,sp,-64
   113e6:	fc22                	sd	s0,56(sp)
   113e8:	0080                	add	s0,sp,64
   113ea:	fca43c23          	sd	a0,-40(s0)
   113ee:	fcb43823          	sd	a1,-48(s0)
   113f2:	fcc43423          	sd	a2,-56(s0)
   113f6:	fcd43023          	sd	a3,-64(s0)
   113fa:	06800893          	li	a7,104
   113fe:	00000073          	ecall
   11402:	87aa                	mv	a5,a0
   11404:	fef42623          	sw	a5,-20(s0)
   11408:	fec42783          	lw	a5,-20(s0)
   1140c:	853e                	mv	a0,a5
   1140e:	7462                	ld	s0,56(sp)
   11410:	6121                	add	sp,sp,64
   11412:	8082                	ret

0000000000011414 <rev_init_module>:
   11414:	7139                	add	sp,sp,-64
   11416:	fc22                	sd	s0,56(sp)
   11418:	0080                	add	s0,sp,64
   1141a:	fca43c23          	sd	a0,-40(s0)
   1141e:	fcb43823          	sd	a1,-48(s0)
   11422:	fcc43423          	sd	a2,-56(s0)
   11426:	06900893          	li	a7,105
   1142a:	00000073          	ecall
   1142e:	87aa                	mv	a5,a0
   11430:	fef42623          	sw	a5,-20(s0)
   11434:	fec42783          	lw	a5,-20(s0)
   11438:	853e                	mv	a0,a5
   1143a:	7462                	ld	s0,56(sp)
   1143c:	6121                	add	sp,sp,64
   1143e:	8082                	ret

0000000000011440 <rev_delete_module>:
   11440:	7179                	add	sp,sp,-48
   11442:	f422                	sd	s0,40(sp)
   11444:	1800                	add	s0,sp,48
   11446:	fca43c23          	sd	a0,-40(s0)
   1144a:	87ae                	mv	a5,a1
   1144c:	fcf42a23          	sw	a5,-44(s0)
   11450:	06a00893          	li	a7,106
   11454:	00000073          	ecall
   11458:	87aa                	mv	a5,a0
   1145a:	fef42623          	sw	a5,-20(s0)
   1145e:	fec42783          	lw	a5,-20(s0)
   11462:	853e                	mv	a0,a5
   11464:	7422                	ld	s0,40(sp)
   11466:	6145                	add	sp,sp,48
   11468:	8082                	ret

000000000001146a <rev_timer_create>:
   1146a:	7139                	add	sp,sp,-64
   1146c:	fc22                	sd	s0,56(sp)
   1146e:	0080                	add	s0,sp,64
   11470:	fca43c23          	sd	a0,-40(s0)
   11474:	fcb43823          	sd	a1,-48(s0)
   11478:	fcc43423          	sd	a2,-56(s0)
   1147c:	06b00893          	li	a7,107
   11480:	00000073          	ecall
   11484:	87aa                	mv	a5,a0
   11486:	fef42623          	sw	a5,-20(s0)
   1148a:	fec42783          	lw	a5,-20(s0)
   1148e:	853e                	mv	a0,a5
   11490:	7462                	ld	s0,56(sp)
   11492:	6121                	add	sp,sp,64
   11494:	8082                	ret

0000000000011496 <rev_timer_gettime>:
   11496:	7179                	add	sp,sp,-48
   11498:	f422                	sd	s0,40(sp)
   1149a:	1800                	add	s0,sp,48
   1149c:	fca43c23          	sd	a0,-40(s0)
   114a0:	fcb43823          	sd	a1,-48(s0)
   114a4:	06c00893          	li	a7,108
   114a8:	00000073          	ecall
   114ac:	87aa                	mv	a5,a0
   114ae:	fef42623          	sw	a5,-20(s0)
   114b2:	fec42783          	lw	a5,-20(s0)
   114b6:	853e                	mv	a0,a5
   114b8:	7422                	ld	s0,40(sp)
   114ba:	6145                	add	sp,sp,48
   114bc:	8082                	ret

00000000000114be <rev_timer_getoverrun>:
   114be:	7179                	add	sp,sp,-48
   114c0:	f422                	sd	s0,40(sp)
   114c2:	1800                	add	s0,sp,48
   114c4:	fca43c23          	sd	a0,-40(s0)
   114c8:	06d00893          	li	a7,109
   114cc:	00000073          	ecall
   114d0:	87aa                	mv	a5,a0
   114d2:	fef42623          	sw	a5,-20(s0)
   114d6:	fec42783          	lw	a5,-20(s0)
   114da:	853e                	mv	a0,a5
   114dc:	7422                	ld	s0,40(sp)
   114de:	6145                	add	sp,sp,48
   114e0:	8082                	ret

00000000000114e2 <rev_timer_settime>:
   114e2:	7139                	add	sp,sp,-64
   114e4:	fc22                	sd	s0,56(sp)
   114e6:	0080                	add	s0,sp,64
   114e8:	fca43c23          	sd	a0,-40(s0)
   114ec:	87ae                	mv	a5,a1
   114ee:	fcc43423          	sd	a2,-56(s0)
   114f2:	fcd43023          	sd	a3,-64(s0)
   114f6:	fcf42a23          	sw	a5,-44(s0)
   114fa:	06e00893          	li	a7,110
   114fe:	00000073          	ecall
   11502:	87aa                	mv	a5,a0
   11504:	fef42623          	sw	a5,-20(s0)
   11508:	fec42783          	lw	a5,-20(s0)
   1150c:	853e                	mv	a0,a5
   1150e:	7462                	ld	s0,56(sp)
   11510:	6121                	add	sp,sp,64
   11512:	8082                	ret

0000000000011514 <rev_timer_delete>:
   11514:	7179                	add	sp,sp,-48
   11516:	f422                	sd	s0,40(sp)
   11518:	1800                	add	s0,sp,48
   1151a:	fca43c23          	sd	a0,-40(s0)
   1151e:	06f00893          	li	a7,111
   11522:	00000073          	ecall
   11526:	87aa                	mv	a5,a0
   11528:	fef42623          	sw	a5,-20(s0)
   1152c:	fec42783          	lw	a5,-20(s0)
   11530:	853e                	mv	a0,a5
   11532:	7422                	ld	s0,40(sp)
   11534:	6145                	add	sp,sp,48
   11536:	8082                	ret

0000000000011538 <rev_clock_settime>:
   11538:	7179                	add	sp,sp,-48
   1153a:	f422                	sd	s0,40(sp)
   1153c:	1800                	add	s0,sp,48
   1153e:	fca43c23          	sd	a0,-40(s0)
   11542:	fcb43823          	sd	a1,-48(s0)
   11546:	07000893          	li	a7,112
   1154a:	00000073          	ecall
   1154e:	87aa                	mv	a5,a0
   11550:	fef42623          	sw	a5,-20(s0)
   11554:	fec42783          	lw	a5,-20(s0)
   11558:	853e                	mv	a0,a5
   1155a:	7422                	ld	s0,40(sp)
   1155c:	6145                	add	sp,sp,48
   1155e:	8082                	ret

0000000000011560 <rev_clock_gettime>:
   11560:	7179                	add	sp,sp,-48
   11562:	f422                	sd	s0,40(sp)
   11564:	1800                	add	s0,sp,48
   11566:	fca43c23          	sd	a0,-40(s0)
   1156a:	fcb43823          	sd	a1,-48(s0)
   1156e:	07100893          	li	a7,113
   11572:	00000073          	ecall
   11576:	87aa                	mv	a5,a0
   11578:	fef42623          	sw	a5,-20(s0)
   1157c:	fec42783          	lw	a5,-20(s0)
   11580:	853e                	mv	a0,a5
   11582:	7422                	ld	s0,40(sp)
   11584:	6145                	add	sp,sp,48
   11586:	8082                	ret

0000000000011588 <rev_clock_getres>:
   11588:	7179                	add	sp,sp,-48
   1158a:	f422                	sd	s0,40(sp)
   1158c:	1800                	add	s0,sp,48
   1158e:	fca43c23          	sd	a0,-40(s0)
   11592:	fcb43823          	sd	a1,-48(s0)
   11596:	07200893          	li	a7,114
   1159a:	00000073          	ecall
   1159e:	87aa                	mv	a5,a0
   115a0:	fef42623          	sw	a5,-20(s0)
   115a4:	fec42783          	lw	a5,-20(s0)
   115a8:	853e                	mv	a0,a5
   115aa:	7422                	ld	s0,40(sp)
   115ac:	6145                	add	sp,sp,48
   115ae:	8082                	ret

00000000000115b0 <rev_clock_nanosleep>:
   115b0:	7139                	add	sp,sp,-64
   115b2:	fc22                	sd	s0,56(sp)
   115b4:	0080                	add	s0,sp,64
   115b6:	fca43c23          	sd	a0,-40(s0)
   115ba:	87ae                	mv	a5,a1
   115bc:	fcc43423          	sd	a2,-56(s0)
   115c0:	fcd43023          	sd	a3,-64(s0)
   115c4:	fcf42a23          	sw	a5,-44(s0)
   115c8:	07300893          	li	a7,115
   115cc:	00000073          	ecall
   115d0:	87aa                	mv	a5,a0
   115d2:	fef42623          	sw	a5,-20(s0)
   115d6:	fec42783          	lw	a5,-20(s0)
   115da:	853e                	mv	a0,a5
   115dc:	7462                	ld	s0,56(sp)
   115de:	6121                	add	sp,sp,64
   115e0:	8082                	ret

00000000000115e2 <rev_syslog>:
   115e2:	7179                	add	sp,sp,-48
   115e4:	f422                	sd	s0,40(sp)
   115e6:	1800                	add	s0,sp,48
   115e8:	87aa                	mv	a5,a0
   115ea:	fcb43823          	sd	a1,-48(s0)
   115ee:	8732                	mv	a4,a2
   115f0:	fcf42e23          	sw	a5,-36(s0)
   115f4:	87ba                	mv	a5,a4
   115f6:	fcf42c23          	sw	a5,-40(s0)
   115fa:	07400893          	li	a7,116
   115fe:	00000073          	ecall
   11602:	87aa                	mv	a5,a0
   11604:	fef42623          	sw	a5,-20(s0)
   11608:	fec42783          	lw	a5,-20(s0)
   1160c:	853e                	mv	a0,a5
   1160e:	7422                	ld	s0,40(sp)
   11610:	6145                	add	sp,sp,48
   11612:	8082                	ret

0000000000011614 <rev_ptrace>:
   11614:	7139                	add	sp,sp,-64
   11616:	fc22                	sd	s0,56(sp)
   11618:	0080                	add	s0,sp,64
   1161a:	fca43c23          	sd	a0,-40(s0)
   1161e:	fcb43823          	sd	a1,-48(s0)
   11622:	fcc43423          	sd	a2,-56(s0)
   11626:	fcd43023          	sd	a3,-64(s0)
   1162a:	07500893          	li	a7,117
   1162e:	00000073          	ecall
   11632:	87aa                	mv	a5,a0
   11634:	fef42623          	sw	a5,-20(s0)
   11638:	fec42783          	lw	a5,-20(s0)
   1163c:	853e                	mv	a0,a5
   1163e:	7462                	ld	s0,56(sp)
   11640:	6121                	add	sp,sp,64
   11642:	8082                	ret

0000000000011644 <rev_sched_setparam>:
   11644:	7179                	add	sp,sp,-48
   11646:	f422                	sd	s0,40(sp)
   11648:	1800                	add	s0,sp,48
   1164a:	87aa                	mv	a5,a0
   1164c:	fcb43823          	sd	a1,-48(s0)
   11650:	fcf42e23          	sw	a5,-36(s0)
   11654:	07600893          	li	a7,118
   11658:	00000073          	ecall
   1165c:	87aa                	mv	a5,a0
   1165e:	fef42623          	sw	a5,-20(s0)
   11662:	fec42783          	lw	a5,-20(s0)
   11666:	853e                	mv	a0,a5
   11668:	7422                	ld	s0,40(sp)
   1166a:	6145                	add	sp,sp,48
   1166c:	8082                	ret

000000000001166e <rev_sched_setscheduler>:
   1166e:	7179                	add	sp,sp,-48
   11670:	f422                	sd	s0,40(sp)
   11672:	1800                	add	s0,sp,48
   11674:	87aa                	mv	a5,a0
   11676:	872e                	mv	a4,a1
   11678:	fcc43823          	sd	a2,-48(s0)
   1167c:	fcf42e23          	sw	a5,-36(s0)
   11680:	87ba                	mv	a5,a4
   11682:	fcf42c23          	sw	a5,-40(s0)
   11686:	07700893          	li	a7,119
   1168a:	00000073          	ecall
   1168e:	87aa                	mv	a5,a0
   11690:	fef42623          	sw	a5,-20(s0)
   11694:	fec42783          	lw	a5,-20(s0)
   11698:	853e                	mv	a0,a5
   1169a:	7422                	ld	s0,40(sp)
   1169c:	6145                	add	sp,sp,48
   1169e:	8082                	ret

00000000000116a0 <rev_sched_getscheduler>:
   116a0:	7179                	add	sp,sp,-48
   116a2:	f422                	sd	s0,40(sp)
   116a4:	1800                	add	s0,sp,48
   116a6:	87aa                	mv	a5,a0
   116a8:	fcf42e23          	sw	a5,-36(s0)
   116ac:	07800893          	li	a7,120
   116b0:	00000073          	ecall
   116b4:	87aa                	mv	a5,a0
   116b6:	fef42623          	sw	a5,-20(s0)
   116ba:	fec42783          	lw	a5,-20(s0)
   116be:	853e                	mv	a0,a5
   116c0:	7422                	ld	s0,40(sp)
   116c2:	6145                	add	sp,sp,48
   116c4:	8082                	ret

00000000000116c6 <rev_sched_getparam>:
   116c6:	7179                	add	sp,sp,-48
   116c8:	f422                	sd	s0,40(sp)
   116ca:	1800                	add	s0,sp,48
   116cc:	87aa                	mv	a5,a0
   116ce:	fcb43823          	sd	a1,-48(s0)
   116d2:	fcf42e23          	sw	a5,-36(s0)
   116d6:	07900893          	li	a7,121
   116da:	00000073          	ecall
   116de:	87aa                	mv	a5,a0
   116e0:	fef42623          	sw	a5,-20(s0)
   116e4:	fec42783          	lw	a5,-20(s0)
   116e8:	853e                	mv	a0,a5
   116ea:	7422                	ld	s0,40(sp)
   116ec:	6145                	add	sp,sp,48
   116ee:	8082                	ret

00000000000116f0 <rev_sched_setaffinity>:
   116f0:	7179                	add	sp,sp,-48
   116f2:	f422                	sd	s0,40(sp)
   116f4:	1800                	add	s0,sp,48
   116f6:	87aa                	mv	a5,a0
   116f8:	872e                	mv	a4,a1
   116fa:	fcc43823          	sd	a2,-48(s0)
   116fe:	fcf42e23          	sw	a5,-36(s0)
   11702:	87ba                	mv	a5,a4
   11704:	fcf42c23          	sw	a5,-40(s0)
   11708:	07a00893          	li	a7,122
   1170c:	00000073          	ecall
   11710:	87aa                	mv	a5,a0
   11712:	fef42623          	sw	a5,-20(s0)
   11716:	fec42783          	lw	a5,-20(s0)
   1171a:	853e                	mv	a0,a5
   1171c:	7422                	ld	s0,40(sp)
   1171e:	6145                	add	sp,sp,48
   11720:	8082                	ret

0000000000011722 <rev_sched_getaffinity>:
   11722:	7179                	add	sp,sp,-48
   11724:	f422                	sd	s0,40(sp)
   11726:	1800                	add	s0,sp,48
   11728:	87aa                	mv	a5,a0
   1172a:	872e                	mv	a4,a1
   1172c:	fcc43823          	sd	a2,-48(s0)
   11730:	fcf42e23          	sw	a5,-36(s0)
   11734:	87ba                	mv	a5,a4
   11736:	fcf42c23          	sw	a5,-40(s0)
   1173a:	07b00893          	li	a7,123
   1173e:	00000073          	ecall
   11742:	87aa                	mv	a5,a0
   11744:	fef42623          	sw	a5,-20(s0)
   11748:	fec42783          	lw	a5,-20(s0)
   1174c:	853e                	mv	a0,a5
   1174e:	7422                	ld	s0,40(sp)
   11750:	6145                	add	sp,sp,48
   11752:	8082                	ret

0000000000011754 <rev_sched_yield>:
   11754:	1101                	add	sp,sp,-32
   11756:	ec22                	sd	s0,24(sp)
   11758:	1000                	add	s0,sp,32
   1175a:	07c00893          	li	a7,124
   1175e:	00000073          	ecall
   11762:	87aa                	mv	a5,a0
   11764:	fef42623          	sw	a5,-20(s0)
   11768:	fec42783          	lw	a5,-20(s0)
   1176c:	853e                	mv	a0,a5
   1176e:	6462                	ld	s0,24(sp)
   11770:	6105                	add	sp,sp,32
   11772:	8082                	ret

0000000000011774 <rev_sched_get_priority_max>:
   11774:	7179                	add	sp,sp,-48
   11776:	f422                	sd	s0,40(sp)
   11778:	1800                	add	s0,sp,48
   1177a:	87aa                	mv	a5,a0
   1177c:	fcf42e23          	sw	a5,-36(s0)
   11780:	07d00893          	li	a7,125
   11784:	00000073          	ecall
   11788:	87aa                	mv	a5,a0
   1178a:	fef42623          	sw	a5,-20(s0)
   1178e:	fec42783          	lw	a5,-20(s0)
   11792:	853e                	mv	a0,a5
   11794:	7422                	ld	s0,40(sp)
   11796:	6145                	add	sp,sp,48
   11798:	8082                	ret

000000000001179a <rev_sched_get_priority_min>:
   1179a:	7179                	add	sp,sp,-48
   1179c:	f422                	sd	s0,40(sp)
   1179e:	1800                	add	s0,sp,48
   117a0:	87aa                	mv	a5,a0
   117a2:	fcf42e23          	sw	a5,-36(s0)
   117a6:	07e00893          	li	a7,126
   117aa:	00000073          	ecall
   117ae:	87aa                	mv	a5,a0
   117b0:	fef42623          	sw	a5,-20(s0)
   117b4:	fec42783          	lw	a5,-20(s0)
   117b8:	853e                	mv	a0,a5
   117ba:	7422                	ld	s0,40(sp)
   117bc:	6145                	add	sp,sp,48
   117be:	8082                	ret

00000000000117c0 <rev_sched_rr_get_interval>:
   117c0:	7179                	add	sp,sp,-48
   117c2:	f422                	sd	s0,40(sp)
   117c4:	1800                	add	s0,sp,48
   117c6:	87aa                	mv	a5,a0
   117c8:	fcb43823          	sd	a1,-48(s0)
   117cc:	fcf42e23          	sw	a5,-36(s0)
   117d0:	07f00893          	li	a7,127
   117d4:	00000073          	ecall
   117d8:	87aa                	mv	a5,a0
   117da:	fef42623          	sw	a5,-20(s0)
   117de:	fec42783          	lw	a5,-20(s0)
   117e2:	853e                	mv	a0,a5
   117e4:	7422                	ld	s0,40(sp)
   117e6:	6145                	add	sp,sp,48
   117e8:	8082                	ret

00000000000117ea <rev_restart_syscall>:
   117ea:	1101                	add	sp,sp,-32
   117ec:	ec22                	sd	s0,24(sp)
   117ee:	1000                	add	s0,sp,32
   117f0:	08000893          	li	a7,128
   117f4:	00000073          	ecall
   117f8:	87aa                	mv	a5,a0
   117fa:	fef42623          	sw	a5,-20(s0)
   117fe:	fec42783          	lw	a5,-20(s0)
   11802:	853e                	mv	a0,a5
   11804:	6462                	ld	s0,24(sp)
   11806:	6105                	add	sp,sp,32
   11808:	8082                	ret

000000000001180a <rev_kill>:
   1180a:	7179                	add	sp,sp,-48
   1180c:	f422                	sd	s0,40(sp)
   1180e:	1800                	add	s0,sp,48
   11810:	87aa                	mv	a5,a0
   11812:	872e                	mv	a4,a1
   11814:	fcf42e23          	sw	a5,-36(s0)
   11818:	87ba                	mv	a5,a4
   1181a:	fcf42c23          	sw	a5,-40(s0)
   1181e:	08100893          	li	a7,129
   11822:	00000073          	ecall
   11826:	87aa                	mv	a5,a0
   11828:	fef42623          	sw	a5,-20(s0)
   1182c:	fec42783          	lw	a5,-20(s0)
   11830:	853e                	mv	a0,a5
   11832:	7422                	ld	s0,40(sp)
   11834:	6145                	add	sp,sp,48
   11836:	8082                	ret

0000000000011838 <rev_tkill>:
   11838:	7179                	add	sp,sp,-48
   1183a:	f422                	sd	s0,40(sp)
   1183c:	1800                	add	s0,sp,48
   1183e:	87aa                	mv	a5,a0
   11840:	872e                	mv	a4,a1
   11842:	fcf42e23          	sw	a5,-36(s0)
   11846:	87ba                	mv	a5,a4
   11848:	fcf42c23          	sw	a5,-40(s0)
   1184c:	08200893          	li	a7,130
   11850:	00000073          	ecall
   11854:	87aa                	mv	a5,a0
   11856:	fef42623          	sw	a5,-20(s0)
   1185a:	fec42783          	lw	a5,-20(s0)
   1185e:	853e                	mv	a0,a5
   11860:	7422                	ld	s0,40(sp)
   11862:	6145                	add	sp,sp,48
   11864:	8082                	ret

0000000000011866 <rev_tgkill>:
   11866:	7179                	add	sp,sp,-48
   11868:	f422                	sd	s0,40(sp)
   1186a:	1800                	add	s0,sp,48
   1186c:	87aa                	mv	a5,a0
   1186e:	86ae                	mv	a3,a1
   11870:	8732                	mv	a4,a2
   11872:	fcf42e23          	sw	a5,-36(s0)
   11876:	87b6                	mv	a5,a3
   11878:	fcf42c23          	sw	a5,-40(s0)
   1187c:	87ba                	mv	a5,a4
   1187e:	fcf42a23          	sw	a5,-44(s0)
   11882:	08300893          	li	a7,131
   11886:	00000073          	ecall
   1188a:	87aa                	mv	a5,a0
   1188c:	fef42623          	sw	a5,-20(s0)
   11890:	fec42783          	lw	a5,-20(s0)
   11894:	853e                	mv	a0,a5
   11896:	7422                	ld	s0,40(sp)
   11898:	6145                	add	sp,sp,48
   1189a:	8082                	ret

000000000001189c <rev_sigaltstack>:
   1189c:	7179                	add	sp,sp,-48
   1189e:	f422                	sd	s0,40(sp)
   118a0:	1800                	add	s0,sp,48
   118a2:	fca43c23          	sd	a0,-40(s0)
   118a6:	fcb43823          	sd	a1,-48(s0)
   118aa:	08400893          	li	a7,132
   118ae:	00000073          	ecall
   118b2:	87aa                	mv	a5,a0
   118b4:	fef42623          	sw	a5,-20(s0)
   118b8:	fec42783          	lw	a5,-20(s0)
   118bc:	853e                	mv	a0,a5
   118be:	7422                	ld	s0,40(sp)
   118c0:	6145                	add	sp,sp,48
   118c2:	8082                	ret

00000000000118c4 <rev_rt_sigsuspend>:
   118c4:	7179                	add	sp,sp,-48
   118c6:	f422                	sd	s0,40(sp)
   118c8:	1800                	add	s0,sp,48
   118ca:	fca43c23          	sd	a0,-40(s0)
   118ce:	fcb43823          	sd	a1,-48(s0)
   118d2:	08500893          	li	a7,133
   118d6:	00000073          	ecall
   118da:	87aa                	mv	a5,a0
   118dc:	fef42623          	sw	a5,-20(s0)
   118e0:	fec42783          	lw	a5,-20(s0)
   118e4:	853e                	mv	a0,a5
   118e6:	7422                	ld	s0,40(sp)
   118e8:	6145                	add	sp,sp,48
   118ea:	8082                	ret

00000000000118ec <rev_rt_sigaction>:
   118ec:	7139                	add	sp,sp,-64
   118ee:	fc22                	sd	s0,56(sp)
   118f0:	0080                	add	s0,sp,64
   118f2:	87aa                	mv	a5,a0
   118f4:	fcb43823          	sd	a1,-48(s0)
   118f8:	fcc43423          	sd	a2,-56(s0)
   118fc:	fcd43023          	sd	a3,-64(s0)
   11900:	fcf42e23          	sw	a5,-36(s0)
   11904:	08600893          	li	a7,134
   11908:	00000073          	ecall
   1190c:	87aa                	mv	a5,a0
   1190e:	fef42623          	sw	a5,-20(s0)
   11912:	fec42783          	lw	a5,-20(s0)
   11916:	853e                	mv	a0,a5
   11918:	7462                	ld	s0,56(sp)
   1191a:	6121                	add	sp,sp,64
   1191c:	8082                	ret

000000000001191e <rev_rt_sigprocmask>:
   1191e:	7139                	add	sp,sp,-64
   11920:	fc22                	sd	s0,56(sp)
   11922:	0080                	add	s0,sp,64
   11924:	87aa                	mv	a5,a0
   11926:	fcb43823          	sd	a1,-48(s0)
   1192a:	fcc43423          	sd	a2,-56(s0)
   1192e:	fcd43023          	sd	a3,-64(s0)
   11932:	fcf42e23          	sw	a5,-36(s0)
   11936:	08700893          	li	a7,135
   1193a:	00000073          	ecall
   1193e:	87aa                	mv	a5,a0
   11940:	fef42623          	sw	a5,-20(s0)
   11944:	fec42783          	lw	a5,-20(s0)
   11948:	853e                	mv	a0,a5
   1194a:	7462                	ld	s0,56(sp)
   1194c:	6121                	add	sp,sp,64
   1194e:	8082                	ret

0000000000011950 <rev_rt_sigpending>:
   11950:	7179                	add	sp,sp,-48
   11952:	f422                	sd	s0,40(sp)
   11954:	1800                	add	s0,sp,48
   11956:	fca43c23          	sd	a0,-40(s0)
   1195a:	fcb43823          	sd	a1,-48(s0)
   1195e:	08800893          	li	a7,136
   11962:	00000073          	ecall
   11966:	87aa                	mv	a5,a0
   11968:	fef42623          	sw	a5,-20(s0)
   1196c:	fec42783          	lw	a5,-20(s0)
   11970:	853e                	mv	a0,a5
   11972:	7422                	ld	s0,40(sp)
   11974:	6145                	add	sp,sp,48
   11976:	8082                	ret

0000000000011978 <rev_rt_sigtimedwait_time32>:
   11978:	7139                	add	sp,sp,-64
   1197a:	fc22                	sd	s0,56(sp)
   1197c:	0080                	add	s0,sp,64
   1197e:	fca43c23          	sd	a0,-40(s0)
   11982:	fcb43823          	sd	a1,-48(s0)
   11986:	fcc43423          	sd	a2,-56(s0)
   1198a:	fcd43023          	sd	a3,-64(s0)
   1198e:	08900893          	li	a7,137
   11992:	00000073          	ecall
   11996:	87aa                	mv	a5,a0
   11998:	fef42623          	sw	a5,-20(s0)
   1199c:	fec42783          	lw	a5,-20(s0)
   119a0:	853e                	mv	a0,a5
   119a2:	7462                	ld	s0,56(sp)
   119a4:	6121                	add	sp,sp,64
   119a6:	8082                	ret

00000000000119a8 <rev_rt_sigqueueinfo>:
   119a8:	7179                	add	sp,sp,-48
   119aa:	f422                	sd	s0,40(sp)
   119ac:	1800                	add	s0,sp,48
   119ae:	87aa                	mv	a5,a0
   119b0:	872e                	mv	a4,a1
   119b2:	fcc43823          	sd	a2,-48(s0)
   119b6:	fcf42e23          	sw	a5,-36(s0)
   119ba:	87ba                	mv	a5,a4
   119bc:	fcf42c23          	sw	a5,-40(s0)
   119c0:	08a00893          	li	a7,138
   119c4:	00000073          	ecall
   119c8:	87aa                	mv	a5,a0
   119ca:	fef42623          	sw	a5,-20(s0)
   119ce:	fec42783          	lw	a5,-20(s0)
   119d2:	853e                	mv	a0,a5
   119d4:	7422                	ld	s0,40(sp)
   119d6:	6145                	add	sp,sp,48
   119d8:	8082                	ret

00000000000119da <rev_setpriority>:
   119da:	7179                	add	sp,sp,-48
   119dc:	f422                	sd	s0,40(sp)
   119de:	1800                	add	s0,sp,48
   119e0:	87aa                	mv	a5,a0
   119e2:	86ae                	mv	a3,a1
   119e4:	8732                	mv	a4,a2
   119e6:	fcf42e23          	sw	a5,-36(s0)
   119ea:	87b6                	mv	a5,a3
   119ec:	fcf42c23          	sw	a5,-40(s0)
   119f0:	87ba                	mv	a5,a4
   119f2:	fcf42a23          	sw	a5,-44(s0)
   119f6:	08c00893          	li	a7,140
   119fa:	00000073          	ecall
   119fe:	87aa                	mv	a5,a0
   11a00:	fef42623          	sw	a5,-20(s0)
   11a04:	fec42783          	lw	a5,-20(s0)
   11a08:	853e                	mv	a0,a5
   11a0a:	7422                	ld	s0,40(sp)
   11a0c:	6145                	add	sp,sp,48
   11a0e:	8082                	ret

0000000000011a10 <rev_getpriority>:
   11a10:	7179                	add	sp,sp,-48
   11a12:	f422                	sd	s0,40(sp)
   11a14:	1800                	add	s0,sp,48
   11a16:	87aa                	mv	a5,a0
   11a18:	872e                	mv	a4,a1
   11a1a:	fcf42e23          	sw	a5,-36(s0)
   11a1e:	87ba                	mv	a5,a4
   11a20:	fcf42c23          	sw	a5,-40(s0)
   11a24:	08d00893          	li	a7,141
   11a28:	00000073          	ecall
   11a2c:	87aa                	mv	a5,a0
   11a2e:	fef42623          	sw	a5,-20(s0)
   11a32:	fec42783          	lw	a5,-20(s0)
   11a36:	853e                	mv	a0,a5
   11a38:	7422                	ld	s0,40(sp)
   11a3a:	6145                	add	sp,sp,48
   11a3c:	8082                	ret

0000000000011a3e <rev_reboot>:
   11a3e:	7139                	add	sp,sp,-64
   11a40:	fc22                	sd	s0,56(sp)
   11a42:	0080                	add	s0,sp,64
   11a44:	87aa                	mv	a5,a0
   11a46:	8732                	mv	a4,a2
   11a48:	fcd43423          	sd	a3,-56(s0)
   11a4c:	fcf42e23          	sw	a5,-36(s0)
   11a50:	87ae                	mv	a5,a1
   11a52:	fcf42c23          	sw	a5,-40(s0)
   11a56:	87ba                	mv	a5,a4
   11a58:	fcf42a23          	sw	a5,-44(s0)
   11a5c:	08e00893          	li	a7,142
   11a60:	00000073          	ecall
   11a64:	87aa                	mv	a5,a0
   11a66:	fef42623          	sw	a5,-20(s0)
   11a6a:	fec42783          	lw	a5,-20(s0)
   11a6e:	853e                	mv	a0,a5
   11a70:	7462                	ld	s0,56(sp)
   11a72:	6121                	add	sp,sp,64
   11a74:	8082                	ret

0000000000011a76 <rev_setregid>:
   11a76:	7179                	add	sp,sp,-48
   11a78:	f422                	sd	s0,40(sp)
   11a7a:	1800                	add	s0,sp,48
   11a7c:	87aa                	mv	a5,a0
   11a7e:	872e                	mv	a4,a1
   11a80:	fcf41f23          	sh	a5,-34(s0)
   11a84:	87ba                	mv	a5,a4
   11a86:	fcf41e23          	sh	a5,-36(s0)
   11a8a:	08f00893          	li	a7,143
   11a8e:	00000073          	ecall
   11a92:	87aa                	mv	a5,a0
   11a94:	fef42623          	sw	a5,-20(s0)
   11a98:	fec42783          	lw	a5,-20(s0)
   11a9c:	853e                	mv	a0,a5
   11a9e:	7422                	ld	s0,40(sp)
   11aa0:	6145                	add	sp,sp,48
   11aa2:	8082                	ret

0000000000011aa4 <rev_setgid>:
   11aa4:	7179                	add	sp,sp,-48
   11aa6:	f422                	sd	s0,40(sp)
   11aa8:	1800                	add	s0,sp,48
   11aaa:	87aa                	mv	a5,a0
   11aac:	fcf41f23          	sh	a5,-34(s0)
   11ab0:	09000893          	li	a7,144
   11ab4:	00000073          	ecall
   11ab8:	87aa                	mv	a5,a0
   11aba:	fef42623          	sw	a5,-20(s0)
   11abe:	fec42783          	lw	a5,-20(s0)
   11ac2:	853e                	mv	a0,a5
   11ac4:	7422                	ld	s0,40(sp)
   11ac6:	6145                	add	sp,sp,48
   11ac8:	8082                	ret

0000000000011aca <rev_setreuid>:
   11aca:	7179                	add	sp,sp,-48
   11acc:	f422                	sd	s0,40(sp)
   11ace:	1800                	add	s0,sp,48
   11ad0:	87aa                	mv	a5,a0
   11ad2:	872e                	mv	a4,a1
   11ad4:	fcf41f23          	sh	a5,-34(s0)
   11ad8:	87ba                	mv	a5,a4
   11ada:	fcf41e23          	sh	a5,-36(s0)
   11ade:	09100893          	li	a7,145
   11ae2:	00000073          	ecall
   11ae6:	87aa                	mv	a5,a0
   11ae8:	fef42623          	sw	a5,-20(s0)
   11aec:	fec42783          	lw	a5,-20(s0)
   11af0:	853e                	mv	a0,a5
   11af2:	7422                	ld	s0,40(sp)
   11af4:	6145                	add	sp,sp,48
   11af6:	8082                	ret

0000000000011af8 <rev_setuid>:
   11af8:	7179                	add	sp,sp,-48
   11afa:	f422                	sd	s0,40(sp)
   11afc:	1800                	add	s0,sp,48
   11afe:	87aa                	mv	a5,a0
   11b00:	fcf41f23          	sh	a5,-34(s0)
   11b04:	09200893          	li	a7,146
   11b08:	00000073          	ecall
   11b0c:	87aa                	mv	a5,a0
   11b0e:	fef42623          	sw	a5,-20(s0)
   11b12:	fec42783          	lw	a5,-20(s0)
   11b16:	853e                	mv	a0,a5
   11b18:	7422                	ld	s0,40(sp)
   11b1a:	6145                	add	sp,sp,48
   11b1c:	8082                	ret

0000000000011b1e <rev_setresuid>:
   11b1e:	7179                	add	sp,sp,-48
   11b20:	f422                	sd	s0,40(sp)
   11b22:	1800                	add	s0,sp,48
   11b24:	87aa                	mv	a5,a0
   11b26:	86ae                	mv	a3,a1
   11b28:	8732                	mv	a4,a2
   11b2a:	fcf41f23          	sh	a5,-34(s0)
   11b2e:	87b6                	mv	a5,a3
   11b30:	fcf41e23          	sh	a5,-36(s0)
   11b34:	87ba                	mv	a5,a4
   11b36:	fcf41d23          	sh	a5,-38(s0)
   11b3a:	09300893          	li	a7,147
   11b3e:	00000073          	ecall
   11b42:	87aa                	mv	a5,a0
   11b44:	fef42623          	sw	a5,-20(s0)
   11b48:	fec42783          	lw	a5,-20(s0)
   11b4c:	853e                	mv	a0,a5
   11b4e:	7422                	ld	s0,40(sp)
   11b50:	6145                	add	sp,sp,48
   11b52:	8082                	ret

0000000000011b54 <rev_getresuid>:
   11b54:	7139                	add	sp,sp,-64
   11b56:	fc22                	sd	s0,56(sp)
   11b58:	0080                	add	s0,sp,64
   11b5a:	fca43c23          	sd	a0,-40(s0)
   11b5e:	fcb43823          	sd	a1,-48(s0)
   11b62:	fcc43423          	sd	a2,-56(s0)
   11b66:	09400893          	li	a7,148
   11b6a:	00000073          	ecall
   11b6e:	87aa                	mv	a5,a0
   11b70:	fef42623          	sw	a5,-20(s0)
   11b74:	fec42783          	lw	a5,-20(s0)
   11b78:	853e                	mv	a0,a5
   11b7a:	7462                	ld	s0,56(sp)
   11b7c:	6121                	add	sp,sp,64
   11b7e:	8082                	ret

0000000000011b80 <rev_setresgid>:
   11b80:	7179                	add	sp,sp,-48
   11b82:	f422                	sd	s0,40(sp)
   11b84:	1800                	add	s0,sp,48
   11b86:	87aa                	mv	a5,a0
   11b88:	86ae                	mv	a3,a1
   11b8a:	8732                	mv	a4,a2
   11b8c:	fcf41f23          	sh	a5,-34(s0)
   11b90:	87b6                	mv	a5,a3
   11b92:	fcf41e23          	sh	a5,-36(s0)
   11b96:	87ba                	mv	a5,a4
   11b98:	fcf41d23          	sh	a5,-38(s0)
   11b9c:	09500893          	li	a7,149
   11ba0:	00000073          	ecall
   11ba4:	87aa                	mv	a5,a0
   11ba6:	fef42623          	sw	a5,-20(s0)
   11baa:	fec42783          	lw	a5,-20(s0)
   11bae:	853e                	mv	a0,a5
   11bb0:	7422                	ld	s0,40(sp)
   11bb2:	6145                	add	sp,sp,48
   11bb4:	8082                	ret

0000000000011bb6 <rev_getresgid>:
   11bb6:	7139                	add	sp,sp,-64
   11bb8:	fc22                	sd	s0,56(sp)
   11bba:	0080                	add	s0,sp,64
   11bbc:	fca43c23          	sd	a0,-40(s0)
   11bc0:	fcb43823          	sd	a1,-48(s0)
   11bc4:	fcc43423          	sd	a2,-56(s0)
   11bc8:	09600893          	li	a7,150
   11bcc:	00000073          	ecall
   11bd0:	87aa                	mv	a5,a0
   11bd2:	fef42623          	sw	a5,-20(s0)
   11bd6:	fec42783          	lw	a5,-20(s0)
   11bda:	853e                	mv	a0,a5
   11bdc:	7462                	ld	s0,56(sp)
   11bde:	6121                	add	sp,sp,64
   11be0:	8082                	ret

0000000000011be2 <rev_setfsuid>:
   11be2:	7179                	add	sp,sp,-48
   11be4:	f422                	sd	s0,40(sp)
   11be6:	1800                	add	s0,sp,48
   11be8:	87aa                	mv	a5,a0
   11bea:	fcf41f23          	sh	a5,-34(s0)
   11bee:	09700893          	li	a7,151
   11bf2:	00000073          	ecall
   11bf6:	87aa                	mv	a5,a0
   11bf8:	fef42623          	sw	a5,-20(s0)
   11bfc:	fec42783          	lw	a5,-20(s0)
   11c00:	853e                	mv	a0,a5
   11c02:	7422                	ld	s0,40(sp)
   11c04:	6145                	add	sp,sp,48
   11c06:	8082                	ret

0000000000011c08 <rev_setfsgid>:
   11c08:	7179                	add	sp,sp,-48
   11c0a:	f422                	sd	s0,40(sp)
   11c0c:	1800                	add	s0,sp,48
   11c0e:	87aa                	mv	a5,a0
   11c10:	fcf41f23          	sh	a5,-34(s0)
   11c14:	09800893          	li	a7,152
   11c18:	00000073          	ecall
   11c1c:	87aa                	mv	a5,a0
   11c1e:	fef42623          	sw	a5,-20(s0)
   11c22:	fec42783          	lw	a5,-20(s0)
   11c26:	853e                	mv	a0,a5
   11c28:	7422                	ld	s0,40(sp)
   11c2a:	6145                	add	sp,sp,48
   11c2c:	8082                	ret

0000000000011c2e <rev_times>:
   11c2e:	7179                	add	sp,sp,-48
   11c30:	f422                	sd	s0,40(sp)
   11c32:	1800                	add	s0,sp,48
   11c34:	fca43c23          	sd	a0,-40(s0)
   11c38:	09900893          	li	a7,153
   11c3c:	00000073          	ecall
   11c40:	87aa                	mv	a5,a0
   11c42:	fef42623          	sw	a5,-20(s0)
   11c46:	fec42783          	lw	a5,-20(s0)
   11c4a:	853e                	mv	a0,a5
   11c4c:	7422                	ld	s0,40(sp)
   11c4e:	6145                	add	sp,sp,48
   11c50:	8082                	ret

0000000000011c52 <rev_setpgid>:
   11c52:	7179                	add	sp,sp,-48
   11c54:	f422                	sd	s0,40(sp)
   11c56:	1800                	add	s0,sp,48
   11c58:	87aa                	mv	a5,a0
   11c5a:	872e                	mv	a4,a1
   11c5c:	fcf42e23          	sw	a5,-36(s0)
   11c60:	87ba                	mv	a5,a4
   11c62:	fcf42c23          	sw	a5,-40(s0)
   11c66:	09a00893          	li	a7,154
   11c6a:	00000073          	ecall
   11c6e:	87aa                	mv	a5,a0
   11c70:	fef42623          	sw	a5,-20(s0)
   11c74:	fec42783          	lw	a5,-20(s0)
   11c78:	853e                	mv	a0,a5
   11c7a:	7422                	ld	s0,40(sp)
   11c7c:	6145                	add	sp,sp,48
   11c7e:	8082                	ret

0000000000011c80 <rev_getpgid>:
   11c80:	7179                	add	sp,sp,-48
   11c82:	f422                	sd	s0,40(sp)
   11c84:	1800                	add	s0,sp,48
   11c86:	87aa                	mv	a5,a0
   11c88:	fcf42e23          	sw	a5,-36(s0)
   11c8c:	09b00893          	li	a7,155
   11c90:	00000073          	ecall
   11c94:	87aa                	mv	a5,a0
   11c96:	fef42623          	sw	a5,-20(s0)
   11c9a:	fec42783          	lw	a5,-20(s0)
   11c9e:	853e                	mv	a0,a5
   11ca0:	7422                	ld	s0,40(sp)
   11ca2:	6145                	add	sp,sp,48
   11ca4:	8082                	ret

0000000000011ca6 <rev_getsid>:
   11ca6:	7179                	add	sp,sp,-48
   11ca8:	f422                	sd	s0,40(sp)
   11caa:	1800                	add	s0,sp,48
   11cac:	87aa                	mv	a5,a0
   11cae:	fcf42e23          	sw	a5,-36(s0)
   11cb2:	09c00893          	li	a7,156
   11cb6:	00000073          	ecall
   11cba:	87aa                	mv	a5,a0
   11cbc:	fef42623          	sw	a5,-20(s0)
   11cc0:	fec42783          	lw	a5,-20(s0)
   11cc4:	853e                	mv	a0,a5
   11cc6:	7422                	ld	s0,40(sp)
   11cc8:	6145                	add	sp,sp,48
   11cca:	8082                	ret

0000000000011ccc <rev_setsid>:
   11ccc:	1101                	add	sp,sp,-32
   11cce:	ec22                	sd	s0,24(sp)
   11cd0:	1000                	add	s0,sp,32
   11cd2:	09d00893          	li	a7,157
   11cd6:	00000073          	ecall
   11cda:	87aa                	mv	a5,a0
   11cdc:	fef42623          	sw	a5,-20(s0)
   11ce0:	fec42783          	lw	a5,-20(s0)
   11ce4:	853e                	mv	a0,a5
   11ce6:	6462                	ld	s0,24(sp)
   11ce8:	6105                	add	sp,sp,32
   11cea:	8082                	ret

0000000000011cec <rev_getgroups>:
   11cec:	7179                	add	sp,sp,-48
   11cee:	f422                	sd	s0,40(sp)
   11cf0:	1800                	add	s0,sp,48
   11cf2:	87aa                	mv	a5,a0
   11cf4:	fcb43823          	sd	a1,-48(s0)
   11cf8:	fcf42e23          	sw	a5,-36(s0)
   11cfc:	09e00893          	li	a7,158
   11d00:	00000073          	ecall
   11d04:	87aa                	mv	a5,a0
   11d06:	fef42623          	sw	a5,-20(s0)
   11d0a:	fec42783          	lw	a5,-20(s0)
   11d0e:	853e                	mv	a0,a5
   11d10:	7422                	ld	s0,40(sp)
   11d12:	6145                	add	sp,sp,48
   11d14:	8082                	ret

0000000000011d16 <rev_setgroups>:
   11d16:	7179                	add	sp,sp,-48
   11d18:	f422                	sd	s0,40(sp)
   11d1a:	1800                	add	s0,sp,48
   11d1c:	87aa                	mv	a5,a0
   11d1e:	fcb43823          	sd	a1,-48(s0)
   11d22:	fcf42e23          	sw	a5,-36(s0)
   11d26:	09f00893          	li	a7,159
   11d2a:	00000073          	ecall
   11d2e:	87aa                	mv	a5,a0
   11d30:	fef42623          	sw	a5,-20(s0)
   11d34:	fec42783          	lw	a5,-20(s0)
   11d38:	853e                	mv	a0,a5
   11d3a:	7422                	ld	s0,40(sp)
   11d3c:	6145                	add	sp,sp,48
   11d3e:	8082                	ret

0000000000011d40 <rev_newuname>:
   11d40:	7179                	add	sp,sp,-48
   11d42:	f422                	sd	s0,40(sp)
   11d44:	1800                	add	s0,sp,48
   11d46:	fca43c23          	sd	a0,-40(s0)
   11d4a:	0a000893          	li	a7,160
   11d4e:	00000073          	ecall
   11d52:	87aa                	mv	a5,a0
   11d54:	fef42623          	sw	a5,-20(s0)
   11d58:	fec42783          	lw	a5,-20(s0)
   11d5c:	853e                	mv	a0,a5
   11d5e:	7422                	ld	s0,40(sp)
   11d60:	6145                	add	sp,sp,48
   11d62:	8082                	ret

0000000000011d64 <rev_sethostname>:
   11d64:	7179                	add	sp,sp,-48
   11d66:	f422                	sd	s0,40(sp)
   11d68:	1800                	add	s0,sp,48
   11d6a:	fca43c23          	sd	a0,-40(s0)
   11d6e:	87ae                	mv	a5,a1
   11d70:	fcf42a23          	sw	a5,-44(s0)
   11d74:	0a100893          	li	a7,161
   11d78:	00000073          	ecall
   11d7c:	87aa                	mv	a5,a0
   11d7e:	fef42623          	sw	a5,-20(s0)
   11d82:	fec42783          	lw	a5,-20(s0)
   11d86:	853e                	mv	a0,a5
   11d88:	7422                	ld	s0,40(sp)
   11d8a:	6145                	add	sp,sp,48
   11d8c:	8082                	ret

0000000000011d8e <rev_setdomainname>:
   11d8e:	7179                	add	sp,sp,-48
   11d90:	f422                	sd	s0,40(sp)
   11d92:	1800                	add	s0,sp,48
   11d94:	fca43c23          	sd	a0,-40(s0)
   11d98:	87ae                	mv	a5,a1
   11d9a:	fcf42a23          	sw	a5,-44(s0)
   11d9e:	0a200893          	li	a7,162
   11da2:	00000073          	ecall
   11da6:	87aa                	mv	a5,a0
   11da8:	fef42623          	sw	a5,-20(s0)
   11dac:	fec42783          	lw	a5,-20(s0)
   11db0:	853e                	mv	a0,a5
   11db2:	7422                	ld	s0,40(sp)
   11db4:	6145                	add	sp,sp,48
   11db6:	8082                	ret

0000000000011db8 <rev_getrlimit>:
   11db8:	7179                	add	sp,sp,-48
   11dba:	f422                	sd	s0,40(sp)
   11dbc:	1800                	add	s0,sp,48
   11dbe:	87aa                	mv	a5,a0
   11dc0:	fcb43823          	sd	a1,-48(s0)
   11dc4:	fcf42e23          	sw	a5,-36(s0)
   11dc8:	0a300893          	li	a7,163
   11dcc:	00000073          	ecall
   11dd0:	87aa                	mv	a5,a0
   11dd2:	fef42623          	sw	a5,-20(s0)
   11dd6:	fec42783          	lw	a5,-20(s0)
   11dda:	853e                	mv	a0,a5
   11ddc:	7422                	ld	s0,40(sp)
   11dde:	6145                	add	sp,sp,48
   11de0:	8082                	ret

0000000000011de2 <rev_setrlimit>:
   11de2:	7179                	add	sp,sp,-48
   11de4:	f422                	sd	s0,40(sp)
   11de6:	1800                	add	s0,sp,48
   11de8:	87aa                	mv	a5,a0
   11dea:	fcb43823          	sd	a1,-48(s0)
   11dee:	fcf42e23          	sw	a5,-36(s0)
   11df2:	0a400893          	li	a7,164
   11df6:	00000073          	ecall
   11dfa:	87aa                	mv	a5,a0
   11dfc:	fef42623          	sw	a5,-20(s0)
   11e00:	fec42783          	lw	a5,-20(s0)
   11e04:	853e                	mv	a0,a5
   11e06:	7422                	ld	s0,40(sp)
   11e08:	6145                	add	sp,sp,48
   11e0a:	8082                	ret

0000000000011e0c <rev_getrusage>:
   11e0c:	7179                	add	sp,sp,-48
   11e0e:	f422                	sd	s0,40(sp)
   11e10:	1800                	add	s0,sp,48
   11e12:	87aa                	mv	a5,a0
   11e14:	fcb43823          	sd	a1,-48(s0)
   11e18:	fcf42e23          	sw	a5,-36(s0)
   11e1c:	0a500893          	li	a7,165
   11e20:	00000073          	ecall
   11e24:	87aa                	mv	a5,a0
   11e26:	fef42623          	sw	a5,-20(s0)
   11e2a:	fec42783          	lw	a5,-20(s0)
   11e2e:	853e                	mv	a0,a5
   11e30:	7422                	ld	s0,40(sp)
   11e32:	6145                	add	sp,sp,48
   11e34:	8082                	ret

0000000000011e36 <rev_umask>:
   11e36:	7179                	add	sp,sp,-48
   11e38:	f422                	sd	s0,40(sp)
   11e3a:	1800                	add	s0,sp,48
   11e3c:	87aa                	mv	a5,a0
   11e3e:	fcf42e23          	sw	a5,-36(s0)
   11e42:	0a600893          	li	a7,166
   11e46:	00000073          	ecall
   11e4a:	87aa                	mv	a5,a0
   11e4c:	fef42623          	sw	a5,-20(s0)
   11e50:	fec42783          	lw	a5,-20(s0)
   11e54:	853e                	mv	a0,a5
   11e56:	7422                	ld	s0,40(sp)
   11e58:	6145                	add	sp,sp,48
   11e5a:	8082                	ret

0000000000011e5c <rev_prctl>:
   11e5c:	715d                	add	sp,sp,-80
   11e5e:	e4a2                	sd	s0,72(sp)
   11e60:	0880                	add	s0,sp,80
   11e62:	87aa                	mv	a5,a0
   11e64:	fcb43823          	sd	a1,-48(s0)
   11e68:	fcc43423          	sd	a2,-56(s0)
   11e6c:	fcd43023          	sd	a3,-64(s0)
   11e70:	fae43c23          	sd	a4,-72(s0)
   11e74:	fcf42e23          	sw	a5,-36(s0)
   11e78:	0a700893          	li	a7,167
   11e7c:	00000073          	ecall
   11e80:	87aa                	mv	a5,a0
   11e82:	fef42623          	sw	a5,-20(s0)
   11e86:	fec42783          	lw	a5,-20(s0)
   11e8a:	853e                	mv	a0,a5
   11e8c:	6426                	ld	s0,72(sp)
   11e8e:	6161                	add	sp,sp,80
   11e90:	8082                	ret

0000000000011e92 <rev_getcpu>:
   11e92:	7139                	add	sp,sp,-64
   11e94:	fc22                	sd	s0,56(sp)
   11e96:	0080                	add	s0,sp,64
   11e98:	fca43c23          	sd	a0,-40(s0)
   11e9c:	fcb43823          	sd	a1,-48(s0)
   11ea0:	fcc43423          	sd	a2,-56(s0)
   11ea4:	0a800893          	li	a7,168
   11ea8:	00000073          	ecall
   11eac:	87aa                	mv	a5,a0
   11eae:	fef42623          	sw	a5,-20(s0)
   11eb2:	fec42783          	lw	a5,-20(s0)
   11eb6:	853e                	mv	a0,a5
   11eb8:	7462                	ld	s0,56(sp)
   11eba:	6121                	add	sp,sp,64
   11ebc:	8082                	ret

0000000000011ebe <rev_gettimeofday>:
   11ebe:	7179                	add	sp,sp,-48
   11ec0:	f422                	sd	s0,40(sp)
   11ec2:	1800                	add	s0,sp,48
   11ec4:	fca43c23          	sd	a0,-40(s0)
   11ec8:	fcb43823          	sd	a1,-48(s0)
   11ecc:	0a900893          	li	a7,169
   11ed0:	00000073          	ecall
   11ed4:	87aa                	mv	a5,a0
   11ed6:	fef42623          	sw	a5,-20(s0)
   11eda:	fec42783          	lw	a5,-20(s0)
   11ede:	853e                	mv	a0,a5
   11ee0:	7422                	ld	s0,40(sp)
   11ee2:	6145                	add	sp,sp,48
   11ee4:	8082                	ret

0000000000011ee6 <rev_settimeofday>:
   11ee6:	7179                	add	sp,sp,-48
   11ee8:	f422                	sd	s0,40(sp)
   11eea:	1800                	add	s0,sp,48
   11eec:	fca43c23          	sd	a0,-40(s0)
   11ef0:	fcb43823          	sd	a1,-48(s0)
   11ef4:	0aa00893          	li	a7,170
   11ef8:	00000073          	ecall
   11efc:	87aa                	mv	a5,a0
   11efe:	fef42623          	sw	a5,-20(s0)
   11f02:	fec42783          	lw	a5,-20(s0)
   11f06:	853e                	mv	a0,a5
   11f08:	7422                	ld	s0,40(sp)
   11f0a:	6145                	add	sp,sp,48
   11f0c:	8082                	ret

0000000000011f0e <rev_adjtimex>:
   11f0e:	7179                	add	sp,sp,-48
   11f10:	f422                	sd	s0,40(sp)
   11f12:	1800                	add	s0,sp,48
   11f14:	fca43c23          	sd	a0,-40(s0)
   11f18:	0ab00893          	li	a7,171
   11f1c:	00000073          	ecall
   11f20:	87aa                	mv	a5,a0
   11f22:	fef42623          	sw	a5,-20(s0)
   11f26:	fec42783          	lw	a5,-20(s0)
   11f2a:	853e                	mv	a0,a5
   11f2c:	7422                	ld	s0,40(sp)
   11f2e:	6145                	add	sp,sp,48
   11f30:	8082                	ret

0000000000011f32 <rev_getpid>:
   11f32:	1101                	add	sp,sp,-32
   11f34:	ec22                	sd	s0,24(sp)
   11f36:	1000                	add	s0,sp,32
   11f38:	0ac00893          	li	a7,172
   11f3c:	00000073          	ecall
   11f40:	87aa                	mv	a5,a0
   11f42:	fef42623          	sw	a5,-20(s0)
   11f46:	fec42783          	lw	a5,-20(s0)
   11f4a:	853e                	mv	a0,a5
   11f4c:	6462                	ld	s0,24(sp)
   11f4e:	6105                	add	sp,sp,32
   11f50:	8082                	ret

0000000000011f52 <rev_getppid>:
   11f52:	1101                	add	sp,sp,-32
   11f54:	ec22                	sd	s0,24(sp)
   11f56:	1000                	add	s0,sp,32
   11f58:	0ad00893          	li	a7,173
   11f5c:	00000073          	ecall
   11f60:	87aa                	mv	a5,a0
   11f62:	fef42623          	sw	a5,-20(s0)
   11f66:	fec42783          	lw	a5,-20(s0)
   11f6a:	853e                	mv	a0,a5
   11f6c:	6462                	ld	s0,24(sp)
   11f6e:	6105                	add	sp,sp,32
   11f70:	8082                	ret

0000000000011f72 <rev_getuid>:
   11f72:	1101                	add	sp,sp,-32
   11f74:	ec22                	sd	s0,24(sp)
   11f76:	1000                	add	s0,sp,32
   11f78:	0ae00893          	li	a7,174
   11f7c:	00000073          	ecall
   11f80:	87aa                	mv	a5,a0
   11f82:	fef42623          	sw	a5,-20(s0)
   11f86:	fec42783          	lw	a5,-20(s0)
   11f8a:	853e                	mv	a0,a5
   11f8c:	6462                	ld	s0,24(sp)
   11f8e:	6105                	add	sp,sp,32
   11f90:	8082                	ret

0000000000011f92 <rev_geteuid>:
   11f92:	1101                	add	sp,sp,-32
   11f94:	ec22                	sd	s0,24(sp)
   11f96:	1000                	add	s0,sp,32
   11f98:	0af00893          	li	a7,175
   11f9c:	00000073          	ecall
   11fa0:	87aa                	mv	a5,a0
   11fa2:	fef42623          	sw	a5,-20(s0)
   11fa6:	fec42783          	lw	a5,-20(s0)
   11faa:	853e                	mv	a0,a5
   11fac:	6462                	ld	s0,24(sp)
   11fae:	6105                	add	sp,sp,32
   11fb0:	8082                	ret

0000000000011fb2 <rev_getgid>:
   11fb2:	1101                	add	sp,sp,-32
   11fb4:	ec22                	sd	s0,24(sp)
   11fb6:	1000                	add	s0,sp,32
   11fb8:	0b000893          	li	a7,176
   11fbc:	00000073          	ecall
   11fc0:	87aa                	mv	a5,a0
   11fc2:	fef42623          	sw	a5,-20(s0)
   11fc6:	fec42783          	lw	a5,-20(s0)
   11fca:	853e                	mv	a0,a5
   11fcc:	6462                	ld	s0,24(sp)
   11fce:	6105                	add	sp,sp,32
   11fd0:	8082                	ret

0000000000011fd2 <rev_getegid>:
   11fd2:	1101                	add	sp,sp,-32
   11fd4:	ec22                	sd	s0,24(sp)
   11fd6:	1000                	add	s0,sp,32
   11fd8:	0b100893          	li	a7,177
   11fdc:	00000073          	ecall
   11fe0:	87aa                	mv	a5,a0
   11fe2:	fef42623          	sw	a5,-20(s0)
   11fe6:	fec42783          	lw	a5,-20(s0)
   11fea:	853e                	mv	a0,a5
   11fec:	6462                	ld	s0,24(sp)
   11fee:	6105                	add	sp,sp,32
   11ff0:	8082                	ret

0000000000011ff2 <rev_gettid>:
   11ff2:	1101                	add	sp,sp,-32
   11ff4:	ec22                	sd	s0,24(sp)
   11ff6:	1000                	add	s0,sp,32
   11ff8:	0b200893          	li	a7,178
   11ffc:	00000073          	ecall
   12000:	87aa                	mv	a5,a0
   12002:	fef42623          	sw	a5,-20(s0)
   12006:	fec42783          	lw	a5,-20(s0)
   1200a:	853e                	mv	a0,a5
   1200c:	6462                	ld	s0,24(sp)
   1200e:	6105                	add	sp,sp,32
   12010:	8082                	ret

0000000000012012 <rev_sysinfo>:
   12012:	7179                	add	sp,sp,-48
   12014:	f422                	sd	s0,40(sp)
   12016:	1800                	add	s0,sp,48
   12018:	fca43c23          	sd	a0,-40(s0)
   1201c:	0b300893          	li	a7,179
   12020:	00000073          	ecall
   12024:	87aa                	mv	a5,a0
   12026:	fef42623          	sw	a5,-20(s0)
   1202a:	fec42783          	lw	a5,-20(s0)
   1202e:	853e                	mv	a0,a5
   12030:	7422                	ld	s0,40(sp)
   12032:	6145                	add	sp,sp,48
   12034:	8082                	ret

0000000000012036 <rev_mq_open>:
   12036:	7139                	add	sp,sp,-64
   12038:	fc22                	sd	s0,56(sp)
   1203a:	0080                	add	s0,sp,64
   1203c:	fca43c23          	sd	a0,-40(s0)
   12040:	87ae                	mv	a5,a1
   12042:	8732                	mv	a4,a2
   12044:	fcd43423          	sd	a3,-56(s0)
   12048:	fcf42a23          	sw	a5,-44(s0)
   1204c:	87ba                	mv	a5,a4
   1204e:	fcf41923          	sh	a5,-46(s0)
   12052:	0b400893          	li	a7,180
   12056:	00000073          	ecall
   1205a:	87aa                	mv	a5,a0
   1205c:	fef42623          	sw	a5,-20(s0)
   12060:	fec42783          	lw	a5,-20(s0)
   12064:	853e                	mv	a0,a5
   12066:	7462                	ld	s0,56(sp)
   12068:	6121                	add	sp,sp,64
   1206a:	8082                	ret

000000000001206c <rev_mq_unlink>:
   1206c:	7179                	add	sp,sp,-48
   1206e:	f422                	sd	s0,40(sp)
   12070:	1800                	add	s0,sp,48
   12072:	fca43c23          	sd	a0,-40(s0)
   12076:	0b500893          	li	a7,181
   1207a:	00000073          	ecall
   1207e:	87aa                	mv	a5,a0
   12080:	fef42623          	sw	a5,-20(s0)
   12084:	fec42783          	lw	a5,-20(s0)
   12088:	853e                	mv	a0,a5
   1208a:	7422                	ld	s0,40(sp)
   1208c:	6145                	add	sp,sp,48
   1208e:	8082                	ret

0000000000012090 <rev_msgget>:
   12090:	7179                	add	sp,sp,-48
   12092:	f422                	sd	s0,40(sp)
   12094:	1800                	add	s0,sp,48
   12096:	fca43c23          	sd	a0,-40(s0)
   1209a:	87ae                	mv	a5,a1
   1209c:	fcf42a23          	sw	a5,-44(s0)
   120a0:	0ba00893          	li	a7,186
   120a4:	00000073          	ecall
   120a8:	87aa                	mv	a5,a0
   120aa:	fef42623          	sw	a5,-20(s0)
   120ae:	fec42783          	lw	a5,-20(s0)
   120b2:	853e                	mv	a0,a5
   120b4:	7422                	ld	s0,40(sp)
   120b6:	6145                	add	sp,sp,48
   120b8:	8082                	ret

00000000000120ba <rev_old_msgctl>:
   120ba:	7179                	add	sp,sp,-48
   120bc:	f422                	sd	s0,40(sp)
   120be:	1800                	add	s0,sp,48
   120c0:	87aa                	mv	a5,a0
   120c2:	872e                	mv	a4,a1
   120c4:	fcc43823          	sd	a2,-48(s0)
   120c8:	fcf42e23          	sw	a5,-36(s0)
   120cc:	87ba                	mv	a5,a4
   120ce:	fcf42c23          	sw	a5,-40(s0)
   120d2:	0bb00893          	li	a7,187
   120d6:	00000073          	ecall
   120da:	87aa                	mv	a5,a0
   120dc:	fef42623          	sw	a5,-20(s0)
   120e0:	fec42783          	lw	a5,-20(s0)
   120e4:	853e                	mv	a0,a5
   120e6:	7422                	ld	s0,40(sp)
   120e8:	6145                	add	sp,sp,48
   120ea:	8082                	ret

00000000000120ec <rev_msgrcv>:
   120ec:	7139                	add	sp,sp,-64
   120ee:	fc22                	sd	s0,56(sp)
   120f0:	0080                	add	s0,sp,64
   120f2:	87aa                	mv	a5,a0
   120f4:	fcb43823          	sd	a1,-48(s0)
   120f8:	fcc43423          	sd	a2,-56(s0)
   120fc:	fcd43023          	sd	a3,-64(s0)
   12100:	fcf42e23          	sw	a5,-36(s0)
   12104:	87ba                	mv	a5,a4
   12106:	fcf42c23          	sw	a5,-40(s0)
   1210a:	0bc00893          	li	a7,188
   1210e:	00000073          	ecall
   12112:	87aa                	mv	a5,a0
   12114:	fef42623          	sw	a5,-20(s0)
   12118:	fec42783          	lw	a5,-20(s0)
   1211c:	853e                	mv	a0,a5
   1211e:	7462                	ld	s0,56(sp)
   12120:	6121                	add	sp,sp,64
   12122:	8082                	ret

0000000000012124 <rev_msgsnd>:
   12124:	7139                	add	sp,sp,-64
   12126:	fc22                	sd	s0,56(sp)
   12128:	0080                	add	s0,sp,64
   1212a:	87aa                	mv	a5,a0
   1212c:	fcb43823          	sd	a1,-48(s0)
   12130:	fcc43423          	sd	a2,-56(s0)
   12134:	8736                	mv	a4,a3
   12136:	fcf42e23          	sw	a5,-36(s0)
   1213a:	87ba                	mv	a5,a4
   1213c:	fcf42c23          	sw	a5,-40(s0)
   12140:	0bd00893          	li	a7,189
   12144:	00000073          	ecall
   12148:	87aa                	mv	a5,a0
   1214a:	fef42623          	sw	a5,-20(s0)
   1214e:	fec42783          	lw	a5,-20(s0)
   12152:	853e                	mv	a0,a5
   12154:	7462                	ld	s0,56(sp)
   12156:	6121                	add	sp,sp,64
   12158:	8082                	ret

000000000001215a <rev_semget>:
   1215a:	7179                	add	sp,sp,-48
   1215c:	f422                	sd	s0,40(sp)
   1215e:	1800                	add	s0,sp,48
   12160:	fca43c23          	sd	a0,-40(s0)
   12164:	87ae                	mv	a5,a1
   12166:	8732                	mv	a4,a2
   12168:	fcf42a23          	sw	a5,-44(s0)
   1216c:	87ba                	mv	a5,a4
   1216e:	fcf42823          	sw	a5,-48(s0)
   12172:	0be00893          	li	a7,190
   12176:	00000073          	ecall
   1217a:	87aa                	mv	a5,a0
   1217c:	fef42623          	sw	a5,-20(s0)
   12180:	fec42783          	lw	a5,-20(s0)
   12184:	853e                	mv	a0,a5
   12186:	7422                	ld	s0,40(sp)
   12188:	6145                	add	sp,sp,48
   1218a:	8082                	ret

000000000001218c <rev_semctl>:
   1218c:	7139                	add	sp,sp,-64
   1218e:	fc22                	sd	s0,56(sp)
   12190:	0080                	add	s0,sp,64
   12192:	87aa                	mv	a5,a0
   12194:	8732                	mv	a4,a2
   12196:	fcd43423          	sd	a3,-56(s0)
   1219a:	fcf42e23          	sw	a5,-36(s0)
   1219e:	87ae                	mv	a5,a1
   121a0:	fcf42c23          	sw	a5,-40(s0)
   121a4:	87ba                	mv	a5,a4
   121a6:	fcf42a23          	sw	a5,-44(s0)
   121aa:	0bf00893          	li	a7,191
   121ae:	00000073          	ecall
   121b2:	87aa                	mv	a5,a0
   121b4:	fef42623          	sw	a5,-20(s0)
   121b8:	fec42783          	lw	a5,-20(s0)
   121bc:	853e                	mv	a0,a5
   121be:	7462                	ld	s0,56(sp)
   121c0:	6121                	add	sp,sp,64
   121c2:	8082                	ret

00000000000121c4 <rev_semtimedop>:
   121c4:	7139                	add	sp,sp,-64
   121c6:	fc22                	sd	s0,56(sp)
   121c8:	0080                	add	s0,sp,64
   121ca:	87aa                	mv	a5,a0
   121cc:	fcb43823          	sd	a1,-48(s0)
   121d0:	8732                	mv	a4,a2
   121d2:	fcd43423          	sd	a3,-56(s0)
   121d6:	fcf42e23          	sw	a5,-36(s0)
   121da:	87ba                	mv	a5,a4
   121dc:	fcf42c23          	sw	a5,-40(s0)
   121e0:	0c000893          	li	a7,192
   121e4:	00000073          	ecall
   121e8:	87aa                	mv	a5,a0
   121ea:	fef42623          	sw	a5,-20(s0)
   121ee:	fec42783          	lw	a5,-20(s0)
   121f2:	853e                	mv	a0,a5
   121f4:	7462                	ld	s0,56(sp)
   121f6:	6121                	add	sp,sp,64
   121f8:	8082                	ret

00000000000121fa <rev_semop>:
   121fa:	7179                	add	sp,sp,-48
   121fc:	f422                	sd	s0,40(sp)
   121fe:	1800                	add	s0,sp,48
   12200:	87aa                	mv	a5,a0
   12202:	fcb43823          	sd	a1,-48(s0)
   12206:	8732                	mv	a4,a2
   12208:	fcf42e23          	sw	a5,-36(s0)
   1220c:	87ba                	mv	a5,a4
   1220e:	fcf42c23          	sw	a5,-40(s0)
   12212:	0c100893          	li	a7,193
   12216:	00000073          	ecall
   1221a:	87aa                	mv	a5,a0
   1221c:	fef42623          	sw	a5,-20(s0)
   12220:	fec42783          	lw	a5,-20(s0)
   12224:	853e                	mv	a0,a5
   12226:	7422                	ld	s0,40(sp)
   12228:	6145                	add	sp,sp,48
   1222a:	8082                	ret

000000000001222c <rev_shmget>:
   1222c:	7139                	add	sp,sp,-64
   1222e:	fc22                	sd	s0,56(sp)
   12230:	0080                	add	s0,sp,64
   12232:	fca43c23          	sd	a0,-40(s0)
   12236:	fcb43823          	sd	a1,-48(s0)
   1223a:	87b2                	mv	a5,a2
   1223c:	fcf42623          	sw	a5,-52(s0)
   12240:	0c200893          	li	a7,194
   12244:	00000073          	ecall
   12248:	87aa                	mv	a5,a0
   1224a:	fef42623          	sw	a5,-20(s0)
   1224e:	fec42783          	lw	a5,-20(s0)
   12252:	853e                	mv	a0,a5
   12254:	7462                	ld	s0,56(sp)
   12256:	6121                	add	sp,sp,64
   12258:	8082                	ret

000000000001225a <rev_old_shmctl>:
   1225a:	7179                	add	sp,sp,-48
   1225c:	f422                	sd	s0,40(sp)
   1225e:	1800                	add	s0,sp,48
   12260:	87aa                	mv	a5,a0
   12262:	872e                	mv	a4,a1
   12264:	fcc43823          	sd	a2,-48(s0)
   12268:	fcf42e23          	sw	a5,-36(s0)
   1226c:	87ba                	mv	a5,a4
   1226e:	fcf42c23          	sw	a5,-40(s0)
   12272:	0c300893          	li	a7,195
   12276:	00000073          	ecall
   1227a:	87aa                	mv	a5,a0
   1227c:	fef42623          	sw	a5,-20(s0)
   12280:	fec42783          	lw	a5,-20(s0)
   12284:	853e                	mv	a0,a5
   12286:	7422                	ld	s0,40(sp)
   12288:	6145                	add	sp,sp,48
   1228a:	8082                	ret

000000000001228c <rev_shmat>:
   1228c:	7179                	add	sp,sp,-48
   1228e:	f422                	sd	s0,40(sp)
   12290:	1800                	add	s0,sp,48
   12292:	87aa                	mv	a5,a0
   12294:	fcb43823          	sd	a1,-48(s0)
   12298:	8732                	mv	a4,a2
   1229a:	fcf42e23          	sw	a5,-36(s0)
   1229e:	87ba                	mv	a5,a4
   122a0:	fcf42c23          	sw	a5,-40(s0)
   122a4:	0c400893          	li	a7,196
   122a8:	00000073          	ecall
   122ac:	87aa                	mv	a5,a0
   122ae:	fef42623          	sw	a5,-20(s0)
   122b2:	fec42783          	lw	a5,-20(s0)
   122b6:	853e                	mv	a0,a5
   122b8:	7422                	ld	s0,40(sp)
   122ba:	6145                	add	sp,sp,48
   122bc:	8082                	ret

00000000000122be <rev_shmdt>:
   122be:	7179                	add	sp,sp,-48
   122c0:	f422                	sd	s0,40(sp)
   122c2:	1800                	add	s0,sp,48
   122c4:	fca43c23          	sd	a0,-40(s0)
   122c8:	0c500893          	li	a7,197
   122cc:	00000073          	ecall
   122d0:	87aa                	mv	a5,a0
   122d2:	fef42623          	sw	a5,-20(s0)
   122d6:	fec42783          	lw	a5,-20(s0)
   122da:	853e                	mv	a0,a5
   122dc:	7422                	ld	s0,40(sp)
   122de:	6145                	add	sp,sp,48
   122e0:	8082                	ret

00000000000122e2 <rev_socket>:
   122e2:	7179                	add	sp,sp,-48
   122e4:	f422                	sd	s0,40(sp)
   122e6:	1800                	add	s0,sp,48
   122e8:	87aa                	mv	a5,a0
   122ea:	86ae                	mv	a3,a1
   122ec:	8732                	mv	a4,a2
   122ee:	fcf42e23          	sw	a5,-36(s0)
   122f2:	87b6                	mv	a5,a3
   122f4:	fcf42c23          	sw	a5,-40(s0)
   122f8:	87ba                	mv	a5,a4
   122fa:	fcf42a23          	sw	a5,-44(s0)
   122fe:	0c600893          	li	a7,198
   12302:	00000073          	ecall
   12306:	87aa                	mv	a5,a0
   12308:	fef42623          	sw	a5,-20(s0)
   1230c:	fec42783          	lw	a5,-20(s0)
   12310:	853e                	mv	a0,a5
   12312:	7422                	ld	s0,40(sp)
   12314:	6145                	add	sp,sp,48
   12316:	8082                	ret

0000000000012318 <rev_socketpair>:
   12318:	7139                	add	sp,sp,-64
   1231a:	fc22                	sd	s0,56(sp)
   1231c:	0080                	add	s0,sp,64
   1231e:	87aa                	mv	a5,a0
   12320:	8732                	mv	a4,a2
   12322:	fcd43423          	sd	a3,-56(s0)
   12326:	fcf42e23          	sw	a5,-36(s0)
   1232a:	87ae                	mv	a5,a1
   1232c:	fcf42c23          	sw	a5,-40(s0)
   12330:	87ba                	mv	a5,a4
   12332:	fcf42a23          	sw	a5,-44(s0)
   12336:	0c700893          	li	a7,199
   1233a:	00000073          	ecall
   1233e:	87aa                	mv	a5,a0
   12340:	fef42623          	sw	a5,-20(s0)
   12344:	fec42783          	lw	a5,-20(s0)
   12348:	853e                	mv	a0,a5
   1234a:	7462                	ld	s0,56(sp)
   1234c:	6121                	add	sp,sp,64
   1234e:	8082                	ret

0000000000012350 <rev_bind>:
   12350:	7179                	add	sp,sp,-48
   12352:	f422                	sd	s0,40(sp)
   12354:	1800                	add	s0,sp,48
   12356:	87aa                	mv	a5,a0
   12358:	fcb43823          	sd	a1,-48(s0)
   1235c:	8732                	mv	a4,a2
   1235e:	fcf42e23          	sw	a5,-36(s0)
   12362:	87ba                	mv	a5,a4
   12364:	fcf42c23          	sw	a5,-40(s0)
   12368:	0c800893          	li	a7,200
   1236c:	00000073          	ecall
   12370:	87aa                	mv	a5,a0
   12372:	fef42623          	sw	a5,-20(s0)
   12376:	fec42783          	lw	a5,-20(s0)
   1237a:	853e                	mv	a0,a5
   1237c:	7422                	ld	s0,40(sp)
   1237e:	6145                	add	sp,sp,48
   12380:	8082                	ret

0000000000012382 <rev_listen>:
   12382:	7179                	add	sp,sp,-48
   12384:	f422                	sd	s0,40(sp)
   12386:	1800                	add	s0,sp,48
   12388:	87aa                	mv	a5,a0
   1238a:	872e                	mv	a4,a1
   1238c:	fcf42e23          	sw	a5,-36(s0)
   12390:	87ba                	mv	a5,a4
   12392:	fcf42c23          	sw	a5,-40(s0)
   12396:	0c900893          	li	a7,201
   1239a:	00000073          	ecall
   1239e:	87aa                	mv	a5,a0
   123a0:	fef42623          	sw	a5,-20(s0)
   123a4:	fec42783          	lw	a5,-20(s0)
   123a8:	853e                	mv	a0,a5
   123aa:	7422                	ld	s0,40(sp)
   123ac:	6145                	add	sp,sp,48
   123ae:	8082                	ret

00000000000123b0 <rev_accept>:
   123b0:	7139                	add	sp,sp,-64
   123b2:	fc22                	sd	s0,56(sp)
   123b4:	0080                	add	s0,sp,64
   123b6:	87aa                	mv	a5,a0
   123b8:	fcb43823          	sd	a1,-48(s0)
   123bc:	fcc43423          	sd	a2,-56(s0)
   123c0:	fcf42e23          	sw	a5,-36(s0)
   123c4:	0ca00893          	li	a7,202
   123c8:	00000073          	ecall
   123cc:	87aa                	mv	a5,a0
   123ce:	fef42623          	sw	a5,-20(s0)
   123d2:	fec42783          	lw	a5,-20(s0)
   123d6:	853e                	mv	a0,a5
   123d8:	7462                	ld	s0,56(sp)
   123da:	6121                	add	sp,sp,64
   123dc:	8082                	ret

00000000000123de <rev_connect>:
   123de:	7179                	add	sp,sp,-48
   123e0:	f422                	sd	s0,40(sp)
   123e2:	1800                	add	s0,sp,48
   123e4:	87aa                	mv	a5,a0
   123e6:	fcb43823          	sd	a1,-48(s0)
   123ea:	8732                	mv	a4,a2
   123ec:	fcf42e23          	sw	a5,-36(s0)
   123f0:	87ba                	mv	a5,a4
   123f2:	fcf42c23          	sw	a5,-40(s0)
   123f6:	0cb00893          	li	a7,203
   123fa:	00000073          	ecall
   123fe:	87aa                	mv	a5,a0
   12400:	fef42623          	sw	a5,-20(s0)
   12404:	fec42783          	lw	a5,-20(s0)
   12408:	853e                	mv	a0,a5
   1240a:	7422                	ld	s0,40(sp)
   1240c:	6145                	add	sp,sp,48
   1240e:	8082                	ret

0000000000012410 <rev_getsockname>:
   12410:	7139                	add	sp,sp,-64
   12412:	fc22                	sd	s0,56(sp)
   12414:	0080                	add	s0,sp,64
   12416:	87aa                	mv	a5,a0
   12418:	fcb43823          	sd	a1,-48(s0)
   1241c:	fcc43423          	sd	a2,-56(s0)
   12420:	fcf42e23          	sw	a5,-36(s0)
   12424:	0cc00893          	li	a7,204
   12428:	00000073          	ecall
   1242c:	87aa                	mv	a5,a0
   1242e:	fef42623          	sw	a5,-20(s0)
   12432:	fec42783          	lw	a5,-20(s0)
   12436:	853e                	mv	a0,a5
   12438:	7462                	ld	s0,56(sp)
   1243a:	6121                	add	sp,sp,64
   1243c:	8082                	ret

000000000001243e <rev_getpeername>:
   1243e:	7139                	add	sp,sp,-64
   12440:	fc22                	sd	s0,56(sp)
   12442:	0080                	add	s0,sp,64
   12444:	87aa                	mv	a5,a0
   12446:	fcb43823          	sd	a1,-48(s0)
   1244a:	fcc43423          	sd	a2,-56(s0)
   1244e:	fcf42e23          	sw	a5,-36(s0)
   12452:	0cd00893          	li	a7,205
   12456:	00000073          	ecall
   1245a:	87aa                	mv	a5,a0
   1245c:	fef42623          	sw	a5,-20(s0)
   12460:	fec42783          	lw	a5,-20(s0)
   12464:	853e                	mv	a0,a5
   12466:	7462                	ld	s0,56(sp)
   12468:	6121                	add	sp,sp,64
   1246a:	8082                	ret

000000000001246c <rev_sendto>:
   1246c:	715d                	add	sp,sp,-80
   1246e:	e4a2                	sd	s0,72(sp)
   12470:	0880                	add	s0,sp,80
   12472:	fcb43823          	sd	a1,-48(s0)
   12476:	fcc43423          	sd	a2,-56(s0)
   1247a:	fce43023          	sd	a4,-64(s0)
   1247e:	873e                	mv	a4,a5
   12480:	87aa                	mv	a5,a0
   12482:	fcf42e23          	sw	a5,-36(s0)
   12486:	87b6                	mv	a5,a3
   12488:	fcf42c23          	sw	a5,-40(s0)
   1248c:	87ba                	mv	a5,a4
   1248e:	faf42e23          	sw	a5,-68(s0)
   12492:	0ce00893          	li	a7,206
   12496:	00000073          	ecall
   1249a:	87aa                	mv	a5,a0
   1249c:	fef42623          	sw	a5,-20(s0)
   124a0:	fec42783          	lw	a5,-20(s0)
   124a4:	853e                	mv	a0,a5
   124a6:	6426                	ld	s0,72(sp)
   124a8:	6161                	add	sp,sp,80
   124aa:	8082                	ret

00000000000124ac <rev_recvfrom>:
   124ac:	715d                	add	sp,sp,-80
   124ae:	e4a2                	sd	s0,72(sp)
   124b0:	0880                	add	s0,sp,80
   124b2:	fcb43823          	sd	a1,-48(s0)
   124b6:	fcc43423          	sd	a2,-56(s0)
   124ba:	fce43023          	sd	a4,-64(s0)
   124be:	faf43c23          	sd	a5,-72(s0)
   124c2:	87aa                	mv	a5,a0
   124c4:	fcf42e23          	sw	a5,-36(s0)
   124c8:	87b6                	mv	a5,a3
   124ca:	fcf42c23          	sw	a5,-40(s0)
   124ce:	0cf00893          	li	a7,207
   124d2:	00000073          	ecall
   124d6:	87aa                	mv	a5,a0
   124d8:	fef42623          	sw	a5,-20(s0)
   124dc:	fec42783          	lw	a5,-20(s0)
   124e0:	853e                	mv	a0,a5
   124e2:	6426                	ld	s0,72(sp)
   124e4:	6161                	add	sp,sp,80
   124e6:	8082                	ret

00000000000124e8 <rev_setsockopt>:
   124e8:	7139                	add	sp,sp,-64
   124ea:	fc22                	sd	s0,56(sp)
   124ec:	0080                	add	s0,sp,64
   124ee:	87aa                	mv	a5,a0
   124f0:	fcd43423          	sd	a3,-56(s0)
   124f4:	fcf42e23          	sw	a5,-36(s0)
   124f8:	87ae                	mv	a5,a1
   124fa:	fcf42c23          	sw	a5,-40(s0)
   124fe:	87b2                	mv	a5,a2
   12500:	fcf42a23          	sw	a5,-44(s0)
   12504:	87ba                	mv	a5,a4
   12506:	fcf42823          	sw	a5,-48(s0)
   1250a:	0d000893          	li	a7,208
   1250e:	00000073          	ecall
   12512:	87aa                	mv	a5,a0
   12514:	fef42623          	sw	a5,-20(s0)
   12518:	fec42783          	lw	a5,-20(s0)
   1251c:	853e                	mv	a0,a5
   1251e:	7462                	ld	s0,56(sp)
   12520:	6121                	add	sp,sp,64
   12522:	8082                	ret

0000000000012524 <rev_getsockopt>:
   12524:	7139                	add	sp,sp,-64
   12526:	fc22                	sd	s0,56(sp)
   12528:	0080                	add	s0,sp,64
   1252a:	87aa                	mv	a5,a0
   1252c:	fcd43423          	sd	a3,-56(s0)
   12530:	fce43023          	sd	a4,-64(s0)
   12534:	fcf42e23          	sw	a5,-36(s0)
   12538:	87ae                	mv	a5,a1
   1253a:	fcf42c23          	sw	a5,-40(s0)
   1253e:	87b2                	mv	a5,a2
   12540:	fcf42a23          	sw	a5,-44(s0)
   12544:	0d100893          	li	a7,209
   12548:	00000073          	ecall
   1254c:	87aa                	mv	a5,a0
   1254e:	fef42623          	sw	a5,-20(s0)
   12552:	fec42783          	lw	a5,-20(s0)
   12556:	853e                	mv	a0,a5
   12558:	7462                	ld	s0,56(sp)
   1255a:	6121                	add	sp,sp,64
   1255c:	8082                	ret

000000000001255e <rev_shutdown>:
   1255e:	7179                	add	sp,sp,-48
   12560:	f422                	sd	s0,40(sp)
   12562:	1800                	add	s0,sp,48
   12564:	87aa                	mv	a5,a0
   12566:	872e                	mv	a4,a1
   12568:	fcf42e23          	sw	a5,-36(s0)
   1256c:	87ba                	mv	a5,a4
   1256e:	fcf42c23          	sw	a5,-40(s0)
   12572:	0d200893          	li	a7,210
   12576:	00000073          	ecall
   1257a:	87aa                	mv	a5,a0
   1257c:	fef42623          	sw	a5,-20(s0)
   12580:	fec42783          	lw	a5,-20(s0)
   12584:	853e                	mv	a0,a5
   12586:	7422                	ld	s0,40(sp)
   12588:	6145                	add	sp,sp,48
   1258a:	8082                	ret

000000000001258c <rev_sendmsg>:
   1258c:	7179                	add	sp,sp,-48
   1258e:	f422                	sd	s0,40(sp)
   12590:	1800                	add	s0,sp,48
   12592:	87aa                	mv	a5,a0
   12594:	fcb43823          	sd	a1,-48(s0)
   12598:	8732                	mv	a4,a2
   1259a:	fcf42e23          	sw	a5,-36(s0)
   1259e:	87ba                	mv	a5,a4
   125a0:	fcf42c23          	sw	a5,-40(s0)
   125a4:	0d300893          	li	a7,211
   125a8:	00000073          	ecall
   125ac:	87aa                	mv	a5,a0
   125ae:	fef42623          	sw	a5,-20(s0)
   125b2:	fec42783          	lw	a5,-20(s0)
   125b6:	853e                	mv	a0,a5
   125b8:	7422                	ld	s0,40(sp)
   125ba:	6145                	add	sp,sp,48
   125bc:	8082                	ret

00000000000125be <rev_recvmsg>:
   125be:	7179                	add	sp,sp,-48
   125c0:	f422                	sd	s0,40(sp)
   125c2:	1800                	add	s0,sp,48
   125c4:	87aa                	mv	a5,a0
   125c6:	fcb43823          	sd	a1,-48(s0)
   125ca:	8732                	mv	a4,a2
   125cc:	fcf42e23          	sw	a5,-36(s0)
   125d0:	87ba                	mv	a5,a4
   125d2:	fcf42c23          	sw	a5,-40(s0)
   125d6:	0d400893          	li	a7,212
   125da:	00000073          	ecall
   125de:	87aa                	mv	a5,a0
   125e0:	fef42623          	sw	a5,-20(s0)
   125e4:	fec42783          	lw	a5,-20(s0)
   125e8:	853e                	mv	a0,a5
   125ea:	7422                	ld	s0,40(sp)
   125ec:	6145                	add	sp,sp,48
   125ee:	8082                	ret

00000000000125f0 <rev_readahead>:
   125f0:	7139                	add	sp,sp,-64
   125f2:	fc22                	sd	s0,56(sp)
   125f4:	0080                	add	s0,sp,64
   125f6:	87aa                	mv	a5,a0
   125f8:	fcb43823          	sd	a1,-48(s0)
   125fc:	fcc43423          	sd	a2,-56(s0)
   12600:	fcf42e23          	sw	a5,-36(s0)
   12604:	0d500893          	li	a7,213
   12608:	00000073          	ecall
   1260c:	87aa                	mv	a5,a0
   1260e:	fef42623          	sw	a5,-20(s0)
   12612:	fec42783          	lw	a5,-20(s0)
   12616:	853e                	mv	a0,a5
   12618:	7462                	ld	s0,56(sp)
   1261a:	6121                	add	sp,sp,64
   1261c:	8082                	ret

000000000001261e <rev_brk>:
   1261e:	7179                	add	sp,sp,-48
   12620:	f422                	sd	s0,40(sp)
   12622:	1800                	add	s0,sp,48
   12624:	fca43c23          	sd	a0,-40(s0)
   12628:	0d600893          	li	a7,214
   1262c:	00000073          	ecall
   12630:	87aa                	mv	a5,a0
   12632:	fef42623          	sw	a5,-20(s0)
   12636:	fec42783          	lw	a5,-20(s0)
   1263a:	853e                	mv	a0,a5
   1263c:	7422                	ld	s0,40(sp)
   1263e:	6145                	add	sp,sp,48
   12640:	8082                	ret

0000000000012642 <rev_munmap>:
   12642:	7179                	add	sp,sp,-48
   12644:	f422                	sd	s0,40(sp)
   12646:	1800                	add	s0,sp,48
   12648:	fca43c23          	sd	a0,-40(s0)
   1264c:	fcb43823          	sd	a1,-48(s0)
   12650:	0d700893          	li	a7,215
   12654:	00000073          	ecall
   12658:	87aa                	mv	a5,a0
   1265a:	fef42623          	sw	a5,-20(s0)
   1265e:	fec42783          	lw	a5,-20(s0)
   12662:	853e                	mv	a0,a5
   12664:	7422                	ld	s0,40(sp)
   12666:	6145                	add	sp,sp,48
   12668:	8082                	ret

000000000001266a <rev_mremap>:
   1266a:	715d                	add	sp,sp,-80
   1266c:	e4a2                	sd	s0,72(sp)
   1266e:	0880                	add	s0,sp,80
   12670:	fca43c23          	sd	a0,-40(s0)
   12674:	fcb43823          	sd	a1,-48(s0)
   12678:	fcc43423          	sd	a2,-56(s0)
   1267c:	fcd43023          	sd	a3,-64(s0)
   12680:	fae43c23          	sd	a4,-72(s0)
   12684:	0d800893          	li	a7,216
   12688:	00000073          	ecall
   1268c:	87aa                	mv	a5,a0
   1268e:	fef42623          	sw	a5,-20(s0)
   12692:	fec42783          	lw	a5,-20(s0)
   12696:	853e                	mv	a0,a5
   12698:	6426                	ld	s0,72(sp)
   1269a:	6161                	add	sp,sp,80
   1269c:	8082                	ret

000000000001269e <rev_add_key>:
   1269e:	715d                	add	sp,sp,-80
   126a0:	e4a2                	sd	s0,72(sp)
   126a2:	0880                	add	s0,sp,80
   126a4:	fca43c23          	sd	a0,-40(s0)
   126a8:	fcb43823          	sd	a1,-48(s0)
   126ac:	fcc43423          	sd	a2,-56(s0)
   126b0:	fcd43023          	sd	a3,-64(s0)
   126b4:	87ba                	mv	a5,a4
   126b6:	faf42e23          	sw	a5,-68(s0)
   126ba:	0d900893          	li	a7,217
   126be:	00000073          	ecall
   126c2:	87aa                	mv	a5,a0
   126c4:	fef42623          	sw	a5,-20(s0)
   126c8:	fec42783          	lw	a5,-20(s0)
   126cc:	853e                	mv	a0,a5
   126ce:	6426                	ld	s0,72(sp)
   126d0:	6161                	add	sp,sp,80
   126d2:	8082                	ret

00000000000126d4 <rev_request_key>:
   126d4:	7139                	add	sp,sp,-64
   126d6:	fc22                	sd	s0,56(sp)
   126d8:	0080                	add	s0,sp,64
   126da:	fca43c23          	sd	a0,-40(s0)
   126de:	fcb43823          	sd	a1,-48(s0)
   126e2:	fcc43423          	sd	a2,-56(s0)
   126e6:	87b6                	mv	a5,a3
   126e8:	fcf42223          	sw	a5,-60(s0)
   126ec:	0da00893          	li	a7,218
   126f0:	00000073          	ecall
   126f4:	87aa                	mv	a5,a0
   126f6:	fef42623          	sw	a5,-20(s0)
   126fa:	fec42783          	lw	a5,-20(s0)
   126fe:	853e                	mv	a0,a5
   12700:	7462                	ld	s0,56(sp)
   12702:	6121                	add	sp,sp,64
   12704:	8082                	ret

0000000000012706 <rev_keyctl>:
   12706:	715d                	add	sp,sp,-80
   12708:	e4a2                	sd	s0,72(sp)
   1270a:	0880                	add	s0,sp,80
   1270c:	87aa                	mv	a5,a0
   1270e:	fcb43823          	sd	a1,-48(s0)
   12712:	fcc43423          	sd	a2,-56(s0)
   12716:	fcd43023          	sd	a3,-64(s0)
   1271a:	fae43c23          	sd	a4,-72(s0)
   1271e:	fcf42e23          	sw	a5,-36(s0)
   12722:	0db00893          	li	a7,219
   12726:	00000073          	ecall
   1272a:	87aa                	mv	a5,a0
   1272c:	fef42623          	sw	a5,-20(s0)
   12730:	fec42783          	lw	a5,-20(s0)
   12734:	853e                	mv	a0,a5
   12736:	6426                	ld	s0,72(sp)
   12738:	6161                	add	sp,sp,80
   1273a:	8082                	ret

000000000001273c <rev_fork>:
   1273c:	1101                	add	sp,sp,-32
   1273e:	ec22                	sd	s0,24(sp)
   12740:	1000                	add	s0,sp,32
   12742:	0dc00893          	li	a7,220
   12746:	00000073          	ecall
   1274a:	87aa                	mv	a5,a0
   1274c:	fef42623          	sw	a5,-20(s0)
   12750:	fec42783          	lw	a5,-20(s0)
   12754:	853e                	mv	a0,a5
   12756:	6462                	ld	s0,24(sp)
   12758:	6105                	add	sp,sp,32
   1275a:	8082                	ret

000000000001275c <rev_clone>:
   1275c:	715d                	add	sp,sp,-80
   1275e:	e4a2                	sd	s0,72(sp)
   12760:	0880                	add	s0,sp,80
   12762:	fca43c23          	sd	a0,-40(s0)
   12766:	fcb43823          	sd	a1,-48(s0)
   1276a:	fcc43423          	sd	a2,-56(s0)
   1276e:	fcd43023          	sd	a3,-64(s0)
   12772:	fae43c23          	sd	a4,-72(s0)
   12776:	0dc00893          	li	a7,220
   1277a:	00000073          	ecall
   1277e:	87aa                	mv	a5,a0
   12780:	fef42623          	sw	a5,-20(s0)
   12784:	fec42783          	lw	a5,-20(s0)
   12788:	853e                	mv	a0,a5
   1278a:	6426                	ld	s0,72(sp)
   1278c:	6161                	add	sp,sp,80
   1278e:	8082                	ret

0000000000012790 <rev_execve>:
   12790:	7139                	add	sp,sp,-64
   12792:	fc22                	sd	s0,56(sp)
   12794:	0080                	add	s0,sp,64
   12796:	fca43c23          	sd	a0,-40(s0)
   1279a:	fcb43823          	sd	a1,-48(s0)
   1279e:	fcc43423          	sd	a2,-56(s0)
   127a2:	0dd00893          	li	a7,221
   127a6:	00000073          	ecall
   127aa:	87aa                	mv	a5,a0
   127ac:	fef42623          	sw	a5,-20(s0)
   127b0:	fec42783          	lw	a5,-20(s0)
   127b4:	853e                	mv	a0,a5
   127b6:	7462                	ld	s0,56(sp)
   127b8:	6121                	add	sp,sp,64
   127ba:	8082                	ret

00000000000127bc <rev_mmap>:
   127bc:	0de00893          	li	a7,222
   127c0:	00000073          	ecall
   127c4:	8082                	ret
   127c6:	0001                	nop
   127c8:	853e                	mv	a0,a5

00000000000127ca <rev_fadvise64_64>:
   127ca:	7139                	add	sp,sp,-64
   127cc:	fc22                	sd	s0,56(sp)
   127ce:	0080                	add	s0,sp,64
   127d0:	87aa                	mv	a5,a0
   127d2:	fcb43823          	sd	a1,-48(s0)
   127d6:	fcc43423          	sd	a2,-56(s0)
   127da:	8736                	mv	a4,a3
   127dc:	fcf42e23          	sw	a5,-36(s0)
   127e0:	87ba                	mv	a5,a4
   127e2:	fcf42c23          	sw	a5,-40(s0)
   127e6:	0df00893          	li	a7,223
   127ea:	00000073          	ecall
   127ee:	87aa                	mv	a5,a0
   127f0:	fef42623          	sw	a5,-20(s0)
   127f4:	fec42783          	lw	a5,-20(s0)
   127f8:	853e                	mv	a0,a5
   127fa:	7462                	ld	s0,56(sp)
   127fc:	6121                	add	sp,sp,64
   127fe:	8082                	ret

0000000000012800 <rev_swapon>:
   12800:	7179                	add	sp,sp,-48
   12802:	f422                	sd	s0,40(sp)
   12804:	1800                	add	s0,sp,48
   12806:	fca43c23          	sd	a0,-40(s0)
   1280a:	87ae                	mv	a5,a1
   1280c:	fcf42a23          	sw	a5,-44(s0)
   12810:	0e000893          	li	a7,224
   12814:	00000073          	ecall
   12818:	87aa                	mv	a5,a0
   1281a:	fef42623          	sw	a5,-20(s0)
   1281e:	fec42783          	lw	a5,-20(s0)
   12822:	853e                	mv	a0,a5
   12824:	7422                	ld	s0,40(sp)
   12826:	6145                	add	sp,sp,48
   12828:	8082                	ret

000000000001282a <rev_swapoff>:
   1282a:	7179                	add	sp,sp,-48
   1282c:	f422                	sd	s0,40(sp)
   1282e:	1800                	add	s0,sp,48
   12830:	fca43c23          	sd	a0,-40(s0)
   12834:	0e100893          	li	a7,225
   12838:	00000073          	ecall
   1283c:	87aa                	mv	a5,a0
   1283e:	fef42623          	sw	a5,-20(s0)
   12842:	fec42783          	lw	a5,-20(s0)
   12846:	853e                	mv	a0,a5
   12848:	7422                	ld	s0,40(sp)
   1284a:	6145                	add	sp,sp,48
   1284c:	8082                	ret

000000000001284e <rev_mprotect>:
   1284e:	7139                	add	sp,sp,-64
   12850:	fc22                	sd	s0,56(sp)
   12852:	0080                	add	s0,sp,64
   12854:	fca43c23          	sd	a0,-40(s0)
   12858:	fcb43823          	sd	a1,-48(s0)
   1285c:	fcc43423          	sd	a2,-56(s0)
   12860:	0e200893          	li	a7,226
   12864:	00000073          	ecall
   12868:	87aa                	mv	a5,a0
   1286a:	fef42623          	sw	a5,-20(s0)
   1286e:	fec42783          	lw	a5,-20(s0)
   12872:	853e                	mv	a0,a5
   12874:	7462                	ld	s0,56(sp)
   12876:	6121                	add	sp,sp,64
   12878:	8082                	ret

000000000001287a <rev_msync>:
   1287a:	7139                	add	sp,sp,-64
   1287c:	fc22                	sd	s0,56(sp)
   1287e:	0080                	add	s0,sp,64
   12880:	fca43c23          	sd	a0,-40(s0)
   12884:	fcb43823          	sd	a1,-48(s0)
   12888:	87b2                	mv	a5,a2
   1288a:	fcf42623          	sw	a5,-52(s0)
   1288e:	0e300893          	li	a7,227
   12892:	00000073          	ecall
   12896:	87aa                	mv	a5,a0
   12898:	fef42623          	sw	a5,-20(s0)
   1289c:	fec42783          	lw	a5,-20(s0)
   128a0:	853e                	mv	a0,a5
   128a2:	7462                	ld	s0,56(sp)
   128a4:	6121                	add	sp,sp,64
   128a6:	8082                	ret

00000000000128a8 <rev_mlock>:
   128a8:	7179                	add	sp,sp,-48
   128aa:	f422                	sd	s0,40(sp)
   128ac:	1800                	add	s0,sp,48
   128ae:	fca43c23          	sd	a0,-40(s0)
   128b2:	fcb43823          	sd	a1,-48(s0)
   128b6:	0e400893          	li	a7,228
   128ba:	00000073          	ecall
   128be:	87aa                	mv	a5,a0
   128c0:	fef42623          	sw	a5,-20(s0)
   128c4:	fec42783          	lw	a5,-20(s0)
   128c8:	853e                	mv	a0,a5
   128ca:	7422                	ld	s0,40(sp)
   128cc:	6145                	add	sp,sp,48
   128ce:	8082                	ret

00000000000128d0 <rev_munlock>:
   128d0:	7179                	add	sp,sp,-48
   128d2:	f422                	sd	s0,40(sp)
   128d4:	1800                	add	s0,sp,48
   128d6:	fca43c23          	sd	a0,-40(s0)
   128da:	fcb43823          	sd	a1,-48(s0)
   128de:	0e500893          	li	a7,229
   128e2:	00000073          	ecall
   128e6:	87aa                	mv	a5,a0
   128e8:	fef42623          	sw	a5,-20(s0)
   128ec:	fec42783          	lw	a5,-20(s0)
   128f0:	853e                	mv	a0,a5
   128f2:	7422                	ld	s0,40(sp)
   128f4:	6145                	add	sp,sp,48
   128f6:	8082                	ret

00000000000128f8 <rev_mlockall>:
   128f8:	7179                	add	sp,sp,-48
   128fa:	f422                	sd	s0,40(sp)
   128fc:	1800                	add	s0,sp,48
   128fe:	87aa                	mv	a5,a0
   12900:	fcf42e23          	sw	a5,-36(s0)
   12904:	0e600893          	li	a7,230
   12908:	00000073          	ecall
   1290c:	87aa                	mv	a5,a0
   1290e:	fef42623          	sw	a5,-20(s0)
   12912:	fec42783          	lw	a5,-20(s0)
   12916:	853e                	mv	a0,a5
   12918:	7422                	ld	s0,40(sp)
   1291a:	6145                	add	sp,sp,48
   1291c:	8082                	ret

000000000001291e <rev_munlockall>:
   1291e:	1101                	add	sp,sp,-32
   12920:	ec22                	sd	s0,24(sp)
   12922:	1000                	add	s0,sp,32
   12924:	0e700893          	li	a7,231
   12928:	00000073          	ecall
   1292c:	87aa                	mv	a5,a0
   1292e:	fef42623          	sw	a5,-20(s0)
   12932:	fec42783          	lw	a5,-20(s0)
   12936:	853e                	mv	a0,a5
   12938:	6462                	ld	s0,24(sp)
   1293a:	6105                	add	sp,sp,32
   1293c:	8082                	ret

000000000001293e <rev_mincore>:
   1293e:	7139                	add	sp,sp,-64
   12940:	fc22                	sd	s0,56(sp)
   12942:	0080                	add	s0,sp,64
   12944:	fca43c23          	sd	a0,-40(s0)
   12948:	fcb43823          	sd	a1,-48(s0)
   1294c:	fcc43423          	sd	a2,-56(s0)
   12950:	0e800893          	li	a7,232
   12954:	00000073          	ecall
   12958:	87aa                	mv	a5,a0
   1295a:	fef42623          	sw	a5,-20(s0)
   1295e:	fec42783          	lw	a5,-20(s0)
   12962:	853e                	mv	a0,a5
   12964:	7462                	ld	s0,56(sp)
   12966:	6121                	add	sp,sp,64
   12968:	8082                	ret

000000000001296a <rev_madvise>:
   1296a:	7139                	add	sp,sp,-64
   1296c:	fc22                	sd	s0,56(sp)
   1296e:	0080                	add	s0,sp,64
   12970:	fca43c23          	sd	a0,-40(s0)
   12974:	fcb43823          	sd	a1,-48(s0)
   12978:	87b2                	mv	a5,a2
   1297a:	fcf42623          	sw	a5,-52(s0)
   1297e:	0e900893          	li	a7,233
   12982:	00000073          	ecall
   12986:	87aa                	mv	a5,a0
   12988:	fef42623          	sw	a5,-20(s0)
   1298c:	fec42783          	lw	a5,-20(s0)
   12990:	853e                	mv	a0,a5
   12992:	7462                	ld	s0,56(sp)
   12994:	6121                	add	sp,sp,64
   12996:	8082                	ret

0000000000012998 <rev_remap_file_pages>:
   12998:	715d                	add	sp,sp,-80
   1299a:	e4a2                	sd	s0,72(sp)
   1299c:	0880                	add	s0,sp,80
   1299e:	fca43c23          	sd	a0,-40(s0)
   129a2:	fcb43823          	sd	a1,-48(s0)
   129a6:	fcc43423          	sd	a2,-56(s0)
   129aa:	fcd43023          	sd	a3,-64(s0)
   129ae:	fae43c23          	sd	a4,-72(s0)
   129b2:	0ea00893          	li	a7,234
   129b6:	00000073          	ecall
   129ba:	87aa                	mv	a5,a0
   129bc:	fef42623          	sw	a5,-20(s0)
   129c0:	fec42783          	lw	a5,-20(s0)
   129c4:	853e                	mv	a0,a5
   129c6:	6426                	ld	s0,72(sp)
   129c8:	6161                	add	sp,sp,80
   129ca:	8082                	ret

00000000000129cc <rev_mbind>:
   129cc:	715d                	add	sp,sp,-80
   129ce:	e4a2                	sd	s0,72(sp)
   129d0:	0880                	add	s0,sp,80
   129d2:	fca43c23          	sd	a0,-40(s0)
   129d6:	fcb43823          	sd	a1,-48(s0)
   129da:	fcc43423          	sd	a2,-56(s0)
   129de:	fcd43023          	sd	a3,-64(s0)
   129e2:	fae43c23          	sd	a4,-72(s0)
   129e6:	faf42a23          	sw	a5,-76(s0)
   129ea:	0eb00893          	li	a7,235
   129ee:	00000073          	ecall
   129f2:	87aa                	mv	a5,a0
   129f4:	fef42623          	sw	a5,-20(s0)
   129f8:	fec42783          	lw	a5,-20(s0)
   129fc:	853e                	mv	a0,a5
   129fe:	6426                	ld	s0,72(sp)
   12a00:	6161                	add	sp,sp,80
   12a02:	8082                	ret

0000000000012a04 <rev_get_mempolicy>:
   12a04:	715d                	add	sp,sp,-80
   12a06:	e4a2                	sd	s0,72(sp)
   12a08:	0880                	add	s0,sp,80
   12a0a:	fca43c23          	sd	a0,-40(s0)
   12a0e:	fcb43823          	sd	a1,-48(s0)
   12a12:	fcc43423          	sd	a2,-56(s0)
   12a16:	fcd43023          	sd	a3,-64(s0)
   12a1a:	fae43c23          	sd	a4,-72(s0)
   12a1e:	0ec00893          	li	a7,236
   12a22:	00000073          	ecall
   12a26:	87aa                	mv	a5,a0
   12a28:	fef42623          	sw	a5,-20(s0)
   12a2c:	fec42783          	lw	a5,-20(s0)
   12a30:	853e                	mv	a0,a5
   12a32:	6426                	ld	s0,72(sp)
   12a34:	6161                	add	sp,sp,80
   12a36:	8082                	ret

0000000000012a38 <rev_set_mempolicy>:
   12a38:	7139                	add	sp,sp,-64
   12a3a:	fc22                	sd	s0,56(sp)
   12a3c:	0080                	add	s0,sp,64
   12a3e:	87aa                	mv	a5,a0
   12a40:	fcb43823          	sd	a1,-48(s0)
   12a44:	fcc43423          	sd	a2,-56(s0)
   12a48:	fcf42e23          	sw	a5,-36(s0)
   12a4c:	0ed00893          	li	a7,237
   12a50:	00000073          	ecall
   12a54:	87aa                	mv	a5,a0
   12a56:	fef42623          	sw	a5,-20(s0)
   12a5a:	fec42783          	lw	a5,-20(s0)
   12a5e:	853e                	mv	a0,a5
   12a60:	7462                	ld	s0,56(sp)
   12a62:	6121                	add	sp,sp,64
   12a64:	8082                	ret

0000000000012a66 <rev_migrate_pages>:
   12a66:	7139                	add	sp,sp,-64
   12a68:	fc22                	sd	s0,56(sp)
   12a6a:	0080                	add	s0,sp,64
   12a6c:	87aa                	mv	a5,a0
   12a6e:	fcb43823          	sd	a1,-48(s0)
   12a72:	fcc43423          	sd	a2,-56(s0)
   12a76:	fcd43023          	sd	a3,-64(s0)
   12a7a:	fcf42e23          	sw	a5,-36(s0)
   12a7e:	0ee00893          	li	a7,238
   12a82:	00000073          	ecall
   12a86:	87aa                	mv	a5,a0
   12a88:	fef42623          	sw	a5,-20(s0)
   12a8c:	fec42783          	lw	a5,-20(s0)
   12a90:	853e                	mv	a0,a5
   12a92:	7462                	ld	s0,56(sp)
   12a94:	6121                	add	sp,sp,64
   12a96:	8082                	ret

0000000000012a98 <rev_move_pages>:
   12a98:	715d                	add	sp,sp,-80
   12a9a:	e4a2                	sd	s0,72(sp)
   12a9c:	0880                	add	s0,sp,80
   12a9e:	fcb43823          	sd	a1,-48(s0)
   12aa2:	fcc43423          	sd	a2,-56(s0)
   12aa6:	fcd43023          	sd	a3,-64(s0)
   12aaa:	fae43c23          	sd	a4,-72(s0)
   12aae:	873e                	mv	a4,a5
   12ab0:	87aa                	mv	a5,a0
   12ab2:	fcf42e23          	sw	a5,-36(s0)
   12ab6:	87ba                	mv	a5,a4
   12ab8:	fcf42c23          	sw	a5,-40(s0)
   12abc:	0ef00893          	li	a7,239
   12ac0:	00000073          	ecall
   12ac4:	87aa                	mv	a5,a0
   12ac6:	fef42623          	sw	a5,-20(s0)
   12aca:	fec42783          	lw	a5,-20(s0)
   12ace:	853e                	mv	a0,a5
   12ad0:	6426                	ld	s0,72(sp)
   12ad2:	6161                	add	sp,sp,80
   12ad4:	8082                	ret

0000000000012ad6 <rev_rt_tgsigqueueinfo>:
   12ad6:	7139                	add	sp,sp,-64
   12ad8:	fc22                	sd	s0,56(sp)
   12ada:	0080                	add	s0,sp,64
   12adc:	87aa                	mv	a5,a0
   12ade:	8732                	mv	a4,a2
   12ae0:	fcd43423          	sd	a3,-56(s0)
   12ae4:	fcf42e23          	sw	a5,-36(s0)
   12ae8:	87ae                	mv	a5,a1
   12aea:	fcf42c23          	sw	a5,-40(s0)
   12aee:	87ba                	mv	a5,a4
   12af0:	fcf42a23          	sw	a5,-44(s0)
   12af4:	0f000893          	li	a7,240
   12af8:	00000073          	ecall
   12afc:	87aa                	mv	a5,a0
   12afe:	fef42623          	sw	a5,-20(s0)
   12b02:	fec42783          	lw	a5,-20(s0)
   12b06:	853e                	mv	a0,a5
   12b08:	7462                	ld	s0,56(sp)
   12b0a:	6121                	add	sp,sp,64
   12b0c:	8082                	ret

0000000000012b0e <rev_perf_event_open>:
   12b0e:	1101                	add	sp,sp,-32
   12b10:	ec22                	sd	s0,24(sp)
   12b12:	1000                	add	s0,sp,32
   12b14:	0f100893          	li	a7,241
   12b18:	00000073          	ecall
   12b1c:	87aa                	mv	a5,a0
   12b1e:	fef42623          	sw	a5,-20(s0)
   12b22:	fec42783          	lw	a5,-20(s0)
   12b26:	853e                	mv	a0,a5
   12b28:	6462                	ld	s0,24(sp)
   12b2a:	6105                	add	sp,sp,32
   12b2c:	8082                	ret

0000000000012b2e <rev_accept4>:
   12b2e:	7139                	add	sp,sp,-64
   12b30:	fc22                	sd	s0,56(sp)
   12b32:	0080                	add	s0,sp,64
   12b34:	87aa                	mv	a5,a0
   12b36:	fcb43823          	sd	a1,-48(s0)
   12b3a:	fcc43423          	sd	a2,-56(s0)
   12b3e:	8736                	mv	a4,a3
   12b40:	fcf42e23          	sw	a5,-36(s0)
   12b44:	87ba                	mv	a5,a4
   12b46:	fcf42c23          	sw	a5,-40(s0)
   12b4a:	0f200893          	li	a7,242
   12b4e:	00000073          	ecall
   12b52:	87aa                	mv	a5,a0
   12b54:	fef42623          	sw	a5,-20(s0)
   12b58:	fec42783          	lw	a5,-20(s0)
   12b5c:	853e                	mv	a0,a5
   12b5e:	7462                	ld	s0,56(sp)
   12b60:	6121                	add	sp,sp,64
   12b62:	8082                	ret

0000000000012b64 <rev_recvmmsg_time32>:
   12b64:	7139                	add	sp,sp,-64
   12b66:	fc22                	sd	s0,56(sp)
   12b68:	0080                	add	s0,sp,64
   12b6a:	87aa                	mv	a5,a0
   12b6c:	fcb43823          	sd	a1,-48(s0)
   12b70:	fce43023          	sd	a4,-64(s0)
   12b74:	fcf42e23          	sw	a5,-36(s0)
   12b78:	87b2                	mv	a5,a2
   12b7a:	fcf42c23          	sw	a5,-40(s0)
   12b7e:	87b6                	mv	a5,a3
   12b80:	fcf42623          	sw	a5,-52(s0)
   12b84:	0f300893          	li	a7,243
   12b88:	00000073          	ecall
   12b8c:	87aa                	mv	a5,a0
   12b8e:	fef42623          	sw	a5,-20(s0)
   12b92:	fec42783          	lw	a5,-20(s0)
   12b96:	853e                	mv	a0,a5
   12b98:	7462                	ld	s0,56(sp)
   12b9a:	6121                	add	sp,sp,64
   12b9c:	8082                	ret

0000000000012b9e <rev_wait4>:
   12b9e:	7139                	add	sp,sp,-64
   12ba0:	fc22                	sd	s0,56(sp)
   12ba2:	0080                	add	s0,sp,64
   12ba4:	87aa                	mv	a5,a0
   12ba6:	fcb43823          	sd	a1,-48(s0)
   12baa:	8732                	mv	a4,a2
   12bac:	fcd43423          	sd	a3,-56(s0)
   12bb0:	fcf42e23          	sw	a5,-36(s0)
   12bb4:	87ba                	mv	a5,a4
   12bb6:	fcf42c23          	sw	a5,-40(s0)
   12bba:	10400893          	li	a7,260
   12bbe:	00000073          	ecall
   12bc2:	87aa                	mv	a5,a0
   12bc4:	fef42623          	sw	a5,-20(s0)
   12bc8:	fec42783          	lw	a5,-20(s0)
   12bcc:	853e                	mv	a0,a5
   12bce:	7462                	ld	s0,56(sp)
   12bd0:	6121                	add	sp,sp,64
   12bd2:	8082                	ret

0000000000012bd4 <rev_prlimit64>:
   12bd4:	7139                	add	sp,sp,-64
   12bd6:	fc22                	sd	s0,56(sp)
   12bd8:	0080                	add	s0,sp,64
   12bda:	87aa                	mv	a5,a0
   12bdc:	872e                	mv	a4,a1
   12bde:	fcc43823          	sd	a2,-48(s0)
   12be2:	fcd43423          	sd	a3,-56(s0)
   12be6:	fcf42e23          	sw	a5,-36(s0)
   12bea:	87ba                	mv	a5,a4
   12bec:	fcf42c23          	sw	a5,-40(s0)
   12bf0:	10500893          	li	a7,261
   12bf4:	00000073          	ecall
   12bf8:	87aa                	mv	a5,a0
   12bfa:	fef42623          	sw	a5,-20(s0)
   12bfe:	fec42783          	lw	a5,-20(s0)
   12c02:	853e                	mv	a0,a5
   12c04:	7462                	ld	s0,56(sp)
   12c06:	6121                	add	sp,sp,64
   12c08:	8082                	ret

0000000000012c0a <rev_fanotify_init>:
   12c0a:	7179                	add	sp,sp,-48
   12c0c:	f422                	sd	s0,40(sp)
   12c0e:	1800                	add	s0,sp,48
   12c10:	87aa                	mv	a5,a0
   12c12:	872e                	mv	a4,a1
   12c14:	fcf42e23          	sw	a5,-36(s0)
   12c18:	87ba                	mv	a5,a4
   12c1a:	fcf42c23          	sw	a5,-40(s0)
   12c1e:	10600893          	li	a7,262
   12c22:	00000073          	ecall
   12c26:	87aa                	mv	a5,a0
   12c28:	fef42623          	sw	a5,-20(s0)
   12c2c:	fec42783          	lw	a5,-20(s0)
   12c30:	853e                	mv	a0,a5
   12c32:	7422                	ld	s0,40(sp)
   12c34:	6145                	add	sp,sp,48
   12c36:	8082                	ret

0000000000012c38 <rev_fanotify_mark>:
   12c38:	7139                	add	sp,sp,-64
   12c3a:	fc22                	sd	s0,56(sp)
   12c3c:	0080                	add	s0,sp,64
   12c3e:	87aa                	mv	a5,a0
   12c40:	fcc43823          	sd	a2,-48(s0)
   12c44:	fce43023          	sd	a4,-64(s0)
   12c48:	fcf42e23          	sw	a5,-36(s0)
   12c4c:	87ae                	mv	a5,a1
   12c4e:	fcf42c23          	sw	a5,-40(s0)
   12c52:	87b6                	mv	a5,a3
   12c54:	fcf42623          	sw	a5,-52(s0)
   12c58:	10700893          	li	a7,263
   12c5c:	00000073          	ecall
   12c60:	87aa                	mv	a5,a0
   12c62:	fef42623          	sw	a5,-20(s0)
   12c66:	fec42783          	lw	a5,-20(s0)
   12c6a:	853e                	mv	a0,a5
   12c6c:	7462                	ld	s0,56(sp)
   12c6e:	6121                	add	sp,sp,64
   12c70:	8082                	ret

0000000000012c72 <rev_name_to_handle_at>:
   12c72:	7139                	add	sp,sp,-64
   12c74:	fc22                	sd	s0,56(sp)
   12c76:	0080                	add	s0,sp,64
   12c78:	87aa                	mv	a5,a0
   12c7a:	fcb43823          	sd	a1,-48(s0)
   12c7e:	fcc43423          	sd	a2,-56(s0)
   12c82:	fcd43023          	sd	a3,-64(s0)
   12c86:	fcf42e23          	sw	a5,-36(s0)
   12c8a:	87ba                	mv	a5,a4
   12c8c:	fcf42c23          	sw	a5,-40(s0)
   12c90:	10800893          	li	a7,264
   12c94:	00000073          	ecall
   12c98:	87aa                	mv	a5,a0
   12c9a:	fef42623          	sw	a5,-20(s0)
   12c9e:	fec42783          	lw	a5,-20(s0)
   12ca2:	853e                	mv	a0,a5
   12ca4:	7462                	ld	s0,56(sp)
   12ca6:	6121                	add	sp,sp,64
   12ca8:	8082                	ret

0000000000012caa <rev_open_by_handle_at>:
   12caa:	7179                	add	sp,sp,-48
   12cac:	f422                	sd	s0,40(sp)
   12cae:	1800                	add	s0,sp,48
   12cb0:	87aa                	mv	a5,a0
   12cb2:	fcb43823          	sd	a1,-48(s0)
   12cb6:	8732                	mv	a4,a2
   12cb8:	fcf42e23          	sw	a5,-36(s0)
   12cbc:	87ba                	mv	a5,a4
   12cbe:	fcf42c23          	sw	a5,-40(s0)
   12cc2:	10900893          	li	a7,265
   12cc6:	00000073          	ecall
   12cca:	87aa                	mv	a5,a0
   12ccc:	fef42623          	sw	a5,-20(s0)
   12cd0:	fec42783          	lw	a5,-20(s0)
   12cd4:	853e                	mv	a0,a5
   12cd6:	7422                	ld	s0,40(sp)
   12cd8:	6145                	add	sp,sp,48
   12cda:	8082                	ret

0000000000012cdc <rev_clock_adjtime>:
   12cdc:	7179                	add	sp,sp,-48
   12cde:	f422                	sd	s0,40(sp)
   12ce0:	1800                	add	s0,sp,48
   12ce2:	fca43c23          	sd	a0,-40(s0)
   12ce6:	fcb43823          	sd	a1,-48(s0)
   12cea:	10a00893          	li	a7,266
   12cee:	00000073          	ecall
   12cf2:	87aa                	mv	a5,a0
   12cf4:	fef42623          	sw	a5,-20(s0)
   12cf8:	fec42783          	lw	a5,-20(s0)
   12cfc:	853e                	mv	a0,a5
   12cfe:	7422                	ld	s0,40(sp)
   12d00:	6145                	add	sp,sp,48
   12d02:	8082                	ret

0000000000012d04 <rev_syncfs>:
   12d04:	7179                	add	sp,sp,-48
   12d06:	f422                	sd	s0,40(sp)
   12d08:	1800                	add	s0,sp,48
   12d0a:	87aa                	mv	a5,a0
   12d0c:	fcf42e23          	sw	a5,-36(s0)
   12d10:	10b00893          	li	a7,267
   12d14:	00000073          	ecall
   12d18:	87aa                	mv	a5,a0
   12d1a:	fef42623          	sw	a5,-20(s0)
   12d1e:	fec42783          	lw	a5,-20(s0)
   12d22:	853e                	mv	a0,a5
   12d24:	7422                	ld	s0,40(sp)
   12d26:	6145                	add	sp,sp,48
   12d28:	8082                	ret

0000000000012d2a <rev_setns>:
   12d2a:	7179                	add	sp,sp,-48
   12d2c:	f422                	sd	s0,40(sp)
   12d2e:	1800                	add	s0,sp,48
   12d30:	87aa                	mv	a5,a0
   12d32:	872e                	mv	a4,a1
   12d34:	fcf42e23          	sw	a5,-36(s0)
   12d38:	87ba                	mv	a5,a4
   12d3a:	fcf42c23          	sw	a5,-40(s0)
   12d3e:	10c00893          	li	a7,268
   12d42:	00000073          	ecall
   12d46:	87aa                	mv	a5,a0
   12d48:	fef42623          	sw	a5,-20(s0)
   12d4c:	fec42783          	lw	a5,-20(s0)
   12d50:	853e                	mv	a0,a5
   12d52:	7422                	ld	s0,40(sp)
   12d54:	6145                	add	sp,sp,48
   12d56:	8082                	ret

0000000000012d58 <rev_sendmmsg>:
   12d58:	7139                	add	sp,sp,-64
   12d5a:	fc22                	sd	s0,56(sp)
   12d5c:	0080                	add	s0,sp,64
   12d5e:	87aa                	mv	a5,a0
   12d60:	fcb43823          	sd	a1,-48(s0)
   12d64:	8736                	mv	a4,a3
   12d66:	fcf42e23          	sw	a5,-36(s0)
   12d6a:	87b2                	mv	a5,a2
   12d6c:	fcf42c23          	sw	a5,-40(s0)
   12d70:	87ba                	mv	a5,a4
   12d72:	fcf42623          	sw	a5,-52(s0)
   12d76:	10d00893          	li	a7,269
   12d7a:	00000073          	ecall
   12d7e:	87aa                	mv	a5,a0
   12d80:	fef42623          	sw	a5,-20(s0)
   12d84:	fec42783          	lw	a5,-20(s0)
   12d88:	853e                	mv	a0,a5
   12d8a:	7462                	ld	s0,56(sp)
   12d8c:	6121                	add	sp,sp,64
   12d8e:	8082                	ret

0000000000012d90 <rev_process_vm_readv>:
   12d90:	715d                	add	sp,sp,-80
   12d92:	e4a2                	sd	s0,72(sp)
   12d94:	0880                	add	s0,sp,80
   12d96:	fcb43823          	sd	a1,-48(s0)
   12d9a:	fcc43423          	sd	a2,-56(s0)
   12d9e:	fcd43023          	sd	a3,-64(s0)
   12da2:	fae43c23          	sd	a4,-72(s0)
   12da6:	faf43823          	sd	a5,-80(s0)
   12daa:	87aa                	mv	a5,a0
   12dac:	fcf42e23          	sw	a5,-36(s0)
   12db0:	10e00893          	li	a7,270
   12db4:	00000073          	ecall
   12db8:	87aa                	mv	a5,a0
   12dba:	fef42623          	sw	a5,-20(s0)
   12dbe:	fec42783          	lw	a5,-20(s0)
   12dc2:	853e                	mv	a0,a5
   12dc4:	6426                	ld	s0,72(sp)
   12dc6:	6161                	add	sp,sp,80
   12dc8:	8082                	ret

0000000000012dca <rev_process_vm_writev>:
   12dca:	715d                	add	sp,sp,-80
   12dcc:	e4a2                	sd	s0,72(sp)
   12dce:	0880                	add	s0,sp,80
   12dd0:	fcb43823          	sd	a1,-48(s0)
   12dd4:	fcc43423          	sd	a2,-56(s0)
   12dd8:	fcd43023          	sd	a3,-64(s0)
   12ddc:	fae43c23          	sd	a4,-72(s0)
   12de0:	faf43823          	sd	a5,-80(s0)
   12de4:	87aa                	mv	a5,a0
   12de6:	fcf42e23          	sw	a5,-36(s0)
   12dea:	10f00893          	li	a7,271
   12dee:	00000073          	ecall
   12df2:	87aa                	mv	a5,a0
   12df4:	fef42623          	sw	a5,-20(s0)
   12df8:	fec42783          	lw	a5,-20(s0)
   12dfc:	853e                	mv	a0,a5
   12dfe:	6426                	ld	s0,72(sp)
   12e00:	6161                	add	sp,sp,80
   12e02:	8082                	ret

0000000000012e04 <rev_kcmp>:
   12e04:	7139                	add	sp,sp,-64
   12e06:	fc22                	sd	s0,56(sp)
   12e08:	0080                	add	s0,sp,64
   12e0a:	87aa                	mv	a5,a0
   12e0c:	fcd43423          	sd	a3,-56(s0)
   12e10:	fce43023          	sd	a4,-64(s0)
   12e14:	fcf42e23          	sw	a5,-36(s0)
   12e18:	87ae                	mv	a5,a1
   12e1a:	fcf42c23          	sw	a5,-40(s0)
   12e1e:	87b2                	mv	a5,a2
   12e20:	fcf42a23          	sw	a5,-44(s0)
   12e24:	11000893          	li	a7,272
   12e28:	00000073          	ecall
   12e2c:	87aa                	mv	a5,a0
   12e2e:	fef42623          	sw	a5,-20(s0)
   12e32:	fec42783          	lw	a5,-20(s0)
   12e36:	853e                	mv	a0,a5
   12e38:	7462                	ld	s0,56(sp)
   12e3a:	6121                	add	sp,sp,64
   12e3c:	8082                	ret

0000000000012e3e <rev_finit_module>:
   12e3e:	7179                	add	sp,sp,-48
   12e40:	f422                	sd	s0,40(sp)
   12e42:	1800                	add	s0,sp,48
   12e44:	87aa                	mv	a5,a0
   12e46:	fcb43823          	sd	a1,-48(s0)
   12e4a:	8732                	mv	a4,a2
   12e4c:	fcf42e23          	sw	a5,-36(s0)
   12e50:	87ba                	mv	a5,a4
   12e52:	fcf42c23          	sw	a5,-40(s0)
   12e56:	11100893          	li	a7,273
   12e5a:	00000073          	ecall
   12e5e:	87aa                	mv	a5,a0
   12e60:	fef42623          	sw	a5,-20(s0)
   12e64:	fec42783          	lw	a5,-20(s0)
   12e68:	853e                	mv	a0,a5
   12e6a:	7422                	ld	s0,40(sp)
   12e6c:	6145                	add	sp,sp,48
   12e6e:	8082                	ret

0000000000012e70 <rev_sched_setattr>:
   12e70:	7139                	add	sp,sp,-64
   12e72:	fc22                	sd	s0,56(sp)
   12e74:	0080                	add	s0,sp,64
   12e76:	87aa                	mv	a5,a0
   12e78:	fcb43823          	sd	a1,-48(s0)
   12e7c:	8736                	mv	a4,a3
   12e7e:	fcf42e23          	sw	a5,-36(s0)
   12e82:	87b2                	mv	a5,a2
   12e84:	fcf42c23          	sw	a5,-40(s0)
   12e88:	87ba                	mv	a5,a4
   12e8a:	fcf42623          	sw	a5,-52(s0)
   12e8e:	11200893          	li	a7,274
   12e92:	00000073          	ecall
   12e96:	87aa                	mv	a5,a0
   12e98:	fef42623          	sw	a5,-20(s0)
   12e9c:	fec42783          	lw	a5,-20(s0)
   12ea0:	853e                	mv	a0,a5
   12ea2:	7462                	ld	s0,56(sp)
   12ea4:	6121                	add	sp,sp,64
   12ea6:	8082                	ret

0000000000012ea8 <rev_sched_getattr>:
   12ea8:	7139                	add	sp,sp,-64
   12eaa:	fc22                	sd	s0,56(sp)
   12eac:	0080                	add	s0,sp,64
   12eae:	87aa                	mv	a5,a0
   12eb0:	fcb43823          	sd	a1,-48(s0)
   12eb4:	8736                	mv	a4,a3
   12eb6:	fcf42e23          	sw	a5,-36(s0)
   12eba:	87b2                	mv	a5,a2
   12ebc:	fcf42c23          	sw	a5,-40(s0)
   12ec0:	87ba                	mv	a5,a4
   12ec2:	fcf42623          	sw	a5,-52(s0)
   12ec6:	11300893          	li	a7,275
   12eca:	00000073          	ecall
   12ece:	87aa                	mv	a5,a0
   12ed0:	fef42623          	sw	a5,-20(s0)
   12ed4:	fec42783          	lw	a5,-20(s0)
   12ed8:	853e                	mv	a0,a5
   12eda:	7462                	ld	s0,56(sp)
   12edc:	6121                	add	sp,sp,64
   12ede:	8082                	ret

0000000000012ee0 <rev_renameat2>:
   12ee0:	7139                	add	sp,sp,-64
   12ee2:	fc22                	sd	s0,56(sp)
   12ee4:	0080                	add	s0,sp,64
   12ee6:	87aa                	mv	a5,a0
   12ee8:	fcb43823          	sd	a1,-48(s0)
   12eec:	fcd43423          	sd	a3,-56(s0)
   12ef0:	fcf42e23          	sw	a5,-36(s0)
   12ef4:	87b2                	mv	a5,a2
   12ef6:	fcf42c23          	sw	a5,-40(s0)
   12efa:	87ba                	mv	a5,a4
   12efc:	fcf42223          	sw	a5,-60(s0)
   12f00:	11400893          	li	a7,276
   12f04:	00000073          	ecall
   12f08:	87aa                	mv	a5,a0
   12f0a:	fef42623          	sw	a5,-20(s0)
   12f0e:	fec42783          	lw	a5,-20(s0)
   12f12:	853e                	mv	a0,a5
   12f14:	7462                	ld	s0,56(sp)
   12f16:	6121                	add	sp,sp,64
   12f18:	8082                	ret

0000000000012f1a <rev_seccomp>:
   12f1a:	7179                	add	sp,sp,-48
   12f1c:	f422                	sd	s0,40(sp)
   12f1e:	1800                	add	s0,sp,48
   12f20:	87aa                	mv	a5,a0
   12f22:	872e                	mv	a4,a1
   12f24:	fcc43823          	sd	a2,-48(s0)
   12f28:	fcf42e23          	sw	a5,-36(s0)
   12f2c:	87ba                	mv	a5,a4
   12f2e:	fcf42c23          	sw	a5,-40(s0)
   12f32:	11500893          	li	a7,277
   12f36:	00000073          	ecall
   12f3a:	87aa                	mv	a5,a0
   12f3c:	fef42623          	sw	a5,-20(s0)
   12f40:	fec42783          	lw	a5,-20(s0)
   12f44:	853e                	mv	a0,a5
   12f46:	7422                	ld	s0,40(sp)
   12f48:	6145                	add	sp,sp,48
   12f4a:	8082                	ret

0000000000012f4c <rev_getrandom>:
   12f4c:	7139                	add	sp,sp,-64
   12f4e:	fc22                	sd	s0,56(sp)
   12f50:	0080                	add	s0,sp,64
   12f52:	fca43c23          	sd	a0,-40(s0)
   12f56:	fcb43823          	sd	a1,-48(s0)
   12f5a:	87b2                	mv	a5,a2
   12f5c:	fcf42623          	sw	a5,-52(s0)
   12f60:	11600893          	li	a7,278
   12f64:	00000073          	ecall
   12f68:	87aa                	mv	a5,a0
   12f6a:	fef42623          	sw	a5,-20(s0)
   12f6e:	fec42783          	lw	a5,-20(s0)
   12f72:	853e                	mv	a0,a5
   12f74:	7462                	ld	s0,56(sp)
   12f76:	6121                	add	sp,sp,64
   12f78:	8082                	ret

0000000000012f7a <rev_memfd_create>:
   12f7a:	7179                	add	sp,sp,-48
   12f7c:	f422                	sd	s0,40(sp)
   12f7e:	1800                	add	s0,sp,48
   12f80:	fca43c23          	sd	a0,-40(s0)
   12f84:	87ae                	mv	a5,a1
   12f86:	fcf42a23          	sw	a5,-44(s0)
   12f8a:	11700893          	li	a7,279
   12f8e:	00000073          	ecall
   12f92:	87aa                	mv	a5,a0
   12f94:	fef42623          	sw	a5,-20(s0)
   12f98:	fec42783          	lw	a5,-20(s0)
   12f9c:	853e                	mv	a0,a5
   12f9e:	7422                	ld	s0,40(sp)
   12fa0:	6145                	add	sp,sp,48
   12fa2:	8082                	ret

0000000000012fa4 <rev_bpf>:
   12fa4:	7179                	add	sp,sp,-48
   12fa6:	f422                	sd	s0,40(sp)
   12fa8:	1800                	add	s0,sp,48
   12faa:	87aa                	mv	a5,a0
   12fac:	fcb43823          	sd	a1,-48(s0)
   12fb0:	8732                	mv	a4,a2
   12fb2:	fcf42e23          	sw	a5,-36(s0)
   12fb6:	87ba                	mv	a5,a4
   12fb8:	fcf42c23          	sw	a5,-40(s0)
   12fbc:	11800893          	li	a7,280
   12fc0:	00000073          	ecall
   12fc4:	87aa                	mv	a5,a0
   12fc6:	fef42623          	sw	a5,-20(s0)
   12fca:	fec42783          	lw	a5,-20(s0)
   12fce:	853e                	mv	a0,a5
   12fd0:	7422                	ld	s0,40(sp)
   12fd2:	6145                	add	sp,sp,48
   12fd4:	8082                	ret

0000000000012fd6 <rev_execveat>:
   12fd6:	7139                	add	sp,sp,-64
   12fd8:	fc22                	sd	s0,56(sp)
   12fda:	0080                	add	s0,sp,64
   12fdc:	87aa                	mv	a5,a0
   12fde:	fcb43823          	sd	a1,-48(s0)
   12fe2:	fcc43423          	sd	a2,-56(s0)
   12fe6:	fcd43023          	sd	a3,-64(s0)
   12fea:	fcf42e23          	sw	a5,-36(s0)
   12fee:	87ba                	mv	a5,a4
   12ff0:	fcf42c23          	sw	a5,-40(s0)
   12ff4:	11900893          	li	a7,281
   12ff8:	00000073          	ecall
   12ffc:	87aa                	mv	a5,a0
   12ffe:	fef42623          	sw	a5,-20(s0)
   13002:	fec42783          	lw	a5,-20(s0)
   13006:	853e                	mv	a0,a5
   13008:	7462                	ld	s0,56(sp)
   1300a:	6121                	add	sp,sp,64
   1300c:	8082                	ret

000000000001300e <rev_userfaultfd>:
   1300e:	7179                	add	sp,sp,-48
   13010:	f422                	sd	s0,40(sp)
   13012:	1800                	add	s0,sp,48
   13014:	87aa                	mv	a5,a0
   13016:	fcf42e23          	sw	a5,-36(s0)
   1301a:	11a00893          	li	a7,282
   1301e:	00000073          	ecall
   13022:	87aa                	mv	a5,a0
   13024:	fef42623          	sw	a5,-20(s0)
   13028:	fec42783          	lw	a5,-20(s0)
   1302c:	853e                	mv	a0,a5
   1302e:	7422                	ld	s0,40(sp)
   13030:	6145                	add	sp,sp,48
   13032:	8082                	ret

0000000000013034 <rev_membarrier>:
   13034:	7179                	add	sp,sp,-48
   13036:	f422                	sd	s0,40(sp)
   13038:	1800                	add	s0,sp,48
   1303a:	87aa                	mv	a5,a0
   1303c:	86ae                	mv	a3,a1
   1303e:	8732                	mv	a4,a2
   13040:	fcf42e23          	sw	a5,-36(s0)
   13044:	87b6                	mv	a5,a3
   13046:	fcf42c23          	sw	a5,-40(s0)
   1304a:	87ba                	mv	a5,a4
   1304c:	fcf42a23          	sw	a5,-44(s0)
   13050:	11b00893          	li	a7,283
   13054:	00000073          	ecall
   13058:	87aa                	mv	a5,a0
   1305a:	fef42623          	sw	a5,-20(s0)
   1305e:	fec42783          	lw	a5,-20(s0)
   13062:	853e                	mv	a0,a5
   13064:	7422                	ld	s0,40(sp)
   13066:	6145                	add	sp,sp,48
   13068:	8082                	ret

000000000001306a <rev_mlock2>:
   1306a:	7139                	add	sp,sp,-64
   1306c:	fc22                	sd	s0,56(sp)
   1306e:	0080                	add	s0,sp,64
   13070:	fca43c23          	sd	a0,-40(s0)
   13074:	fcb43823          	sd	a1,-48(s0)
   13078:	87b2                	mv	a5,a2
   1307a:	fcf42623          	sw	a5,-52(s0)
   1307e:	11c00893          	li	a7,284
   13082:	00000073          	ecall
   13086:	87aa                	mv	a5,a0
   13088:	fef42623          	sw	a5,-20(s0)
   1308c:	fec42783          	lw	a5,-20(s0)
   13090:	853e                	mv	a0,a5
   13092:	7462                	ld	s0,56(sp)
   13094:	6121                	add	sp,sp,64
   13096:	8082                	ret

0000000000013098 <rev_copy_file_range>:
   13098:	715d                	add	sp,sp,-80
   1309a:	e4a2                	sd	s0,72(sp)
   1309c:	0880                	add	s0,sp,80
   1309e:	fcb43823          	sd	a1,-48(s0)
   130a2:	fcd43423          	sd	a3,-56(s0)
   130a6:	fce43023          	sd	a4,-64(s0)
   130aa:	873e                	mv	a4,a5
   130ac:	87aa                	mv	a5,a0
   130ae:	fcf42e23          	sw	a5,-36(s0)
   130b2:	87b2                	mv	a5,a2
   130b4:	fcf42c23          	sw	a5,-40(s0)
   130b8:	87ba                	mv	a5,a4
   130ba:	faf42e23          	sw	a5,-68(s0)
   130be:	11d00893          	li	a7,285
   130c2:	00000073          	ecall
   130c6:	87aa                	mv	a5,a0
   130c8:	fef42623          	sw	a5,-20(s0)
   130cc:	fec42783          	lw	a5,-20(s0)
   130d0:	853e                	mv	a0,a5
   130d2:	6426                	ld	s0,72(sp)
   130d4:	6161                	add	sp,sp,80
   130d6:	8082                	ret

00000000000130d8 <rev_preadv2>:
   130d8:	715d                	add	sp,sp,-80
   130da:	e4a2                	sd	s0,72(sp)
   130dc:	0880                	add	s0,sp,80
   130de:	fca43c23          	sd	a0,-40(s0)
   130e2:	fcb43823          	sd	a1,-48(s0)
   130e6:	fcc43423          	sd	a2,-56(s0)
   130ea:	fcd43023          	sd	a3,-64(s0)
   130ee:	fae43c23          	sd	a4,-72(s0)
   130f2:	faf42a23          	sw	a5,-76(s0)
   130f6:	11e00893          	li	a7,286
   130fa:	00000073          	ecall
   130fe:	87aa                	mv	a5,a0
   13100:	fef42623          	sw	a5,-20(s0)
   13104:	fec42783          	lw	a5,-20(s0)
   13108:	853e                	mv	a0,a5
   1310a:	6426                	ld	s0,72(sp)
   1310c:	6161                	add	sp,sp,80
   1310e:	8082                	ret

0000000000013110 <rev_pwritev2>:
   13110:	715d                	add	sp,sp,-80
   13112:	e4a2                	sd	s0,72(sp)
   13114:	0880                	add	s0,sp,80
   13116:	fca43c23          	sd	a0,-40(s0)
   1311a:	fcb43823          	sd	a1,-48(s0)
   1311e:	fcc43423          	sd	a2,-56(s0)
   13122:	fcd43023          	sd	a3,-64(s0)
   13126:	fae43c23          	sd	a4,-72(s0)
   1312a:	faf42a23          	sw	a5,-76(s0)
   1312e:	11f00893          	li	a7,287
   13132:	00000073          	ecall
   13136:	87aa                	mv	a5,a0
   13138:	fef42623          	sw	a5,-20(s0)
   1313c:	fec42783          	lw	a5,-20(s0)
   13140:	853e                	mv	a0,a5
   13142:	6426                	ld	s0,72(sp)
   13144:	6161                	add	sp,sp,80
   13146:	8082                	ret

0000000000013148 <rev_pkey_mprotect>:
   13148:	7139                	add	sp,sp,-64
   1314a:	fc22                	sd	s0,56(sp)
   1314c:	0080                	add	s0,sp,64
   1314e:	fca43c23          	sd	a0,-40(s0)
   13152:	fcb43823          	sd	a1,-48(s0)
   13156:	fcc43423          	sd	a2,-56(s0)
   1315a:	12000893          	li	a7,288
   1315e:	00000073          	ecall
   13162:	87aa                	mv	a5,a0
   13164:	fef42623          	sw	a5,-20(s0)
   13168:	fec42783          	lw	a5,-20(s0)
   1316c:	853e                	mv	a0,a5
   1316e:	7462                	ld	s0,56(sp)
   13170:	6121                	add	sp,sp,64
   13172:	8082                	ret

0000000000013174 <rev_pkey_alloc>:
   13174:	7179                	add	sp,sp,-48
   13176:	f422                	sd	s0,40(sp)
   13178:	1800                	add	s0,sp,48
   1317a:	fca43c23          	sd	a0,-40(s0)
   1317e:	fcb43823          	sd	a1,-48(s0)
   13182:	12100893          	li	a7,289
   13186:	00000073          	ecall
   1318a:	87aa                	mv	a5,a0
   1318c:	fef42623          	sw	a5,-20(s0)
   13190:	fec42783          	lw	a5,-20(s0)
   13194:	853e                	mv	a0,a5
   13196:	7422                	ld	s0,40(sp)
   13198:	6145                	add	sp,sp,48
   1319a:	8082                	ret

000000000001319c <rev_pkey_free>:
   1319c:	7179                	add	sp,sp,-48
   1319e:	f422                	sd	s0,40(sp)
   131a0:	1800                	add	s0,sp,48
   131a2:	87aa                	mv	a5,a0
   131a4:	fcf42e23          	sw	a5,-36(s0)
   131a8:	12200893          	li	a7,290
   131ac:	00000073          	ecall
   131b0:	87aa                	mv	a5,a0
   131b2:	fef42623          	sw	a5,-20(s0)
   131b6:	fec42783          	lw	a5,-20(s0)
   131ba:	853e                	mv	a0,a5
   131bc:	7422                	ld	s0,40(sp)
   131be:	6145                	add	sp,sp,48
   131c0:	8082                	ret

00000000000131c2 <rev_statx>:
   131c2:	7139                	add	sp,sp,-64
   131c4:	fc22                	sd	s0,56(sp)
   131c6:	0080                	add	s0,sp,64
   131c8:	87aa                	mv	a5,a0
   131ca:	fcb43823          	sd	a1,-48(s0)
   131ce:	fce43023          	sd	a4,-64(s0)
   131d2:	fcf42e23          	sw	a5,-36(s0)
   131d6:	87b2                	mv	a5,a2
   131d8:	fcf42c23          	sw	a5,-40(s0)
   131dc:	87b6                	mv	a5,a3
   131de:	fcf42623          	sw	a5,-52(s0)
   131e2:	12300893          	li	a7,291
   131e6:	00000073          	ecall
   131ea:	87aa                	mv	a5,a0
   131ec:	fef42623          	sw	a5,-20(s0)
   131f0:	fec42783          	lw	a5,-20(s0)
   131f4:	853e                	mv	a0,a5
   131f6:	7462                	ld	s0,56(sp)
   131f8:	6121                	add	sp,sp,64
   131fa:	8082                	ret

00000000000131fc <rev_io_pgetevents>:
   131fc:	715d                	add	sp,sp,-80
   131fe:	e4a2                	sd	s0,72(sp)
   13200:	0880                	add	s0,sp,80
   13202:	fca43c23          	sd	a0,-40(s0)
   13206:	fcb43823          	sd	a1,-48(s0)
   1320a:	fcc43423          	sd	a2,-56(s0)
   1320e:	fcd43023          	sd	a3,-64(s0)
   13212:	fae43c23          	sd	a4,-72(s0)
   13216:	faf43823          	sd	a5,-80(s0)
   1321a:	12400893          	li	a7,292
   1321e:	00000073          	ecall
   13222:	87aa                	mv	a5,a0
   13224:	fef42623          	sw	a5,-20(s0)
   13228:	fec42783          	lw	a5,-20(s0)
   1322c:	853e                	mv	a0,a5
   1322e:	6426                	ld	s0,72(sp)
   13230:	6161                	add	sp,sp,80
   13232:	8082                	ret

0000000000013234 <rev_rseq>:
   13234:	7139                	add	sp,sp,-64
   13236:	fc22                	sd	s0,56(sp)
   13238:	0080                	add	s0,sp,64
   1323a:	fca43c23          	sd	a0,-40(s0)
   1323e:	87ae                	mv	a5,a1
   13240:	8736                	mv	a4,a3
   13242:	fcf42a23          	sw	a5,-44(s0)
   13246:	87b2                	mv	a5,a2
   13248:	fcf42823          	sw	a5,-48(s0)
   1324c:	87ba                	mv	a5,a4
   1324e:	fcf42623          	sw	a5,-52(s0)
   13252:	12500893          	li	a7,293
   13256:	00000073          	ecall
   1325a:	87aa                	mv	a5,a0
   1325c:	fef42623          	sw	a5,-20(s0)
   13260:	fec42783          	lw	a5,-20(s0)
   13264:	853e                	mv	a0,a5
   13266:	7462                	ld	s0,56(sp)
   13268:	6121                	add	sp,sp,64
   1326a:	8082                	ret

000000000001326c <rev_kexec_file_load>:
   1326c:	7139                	add	sp,sp,-64
   1326e:	fc22                	sd	s0,56(sp)
   13270:	0080                	add	s0,sp,64
   13272:	87aa                	mv	a5,a0
   13274:	fcc43823          	sd	a2,-48(s0)
   13278:	fcd43423          	sd	a3,-56(s0)
   1327c:	fce43023          	sd	a4,-64(s0)
   13280:	fcf42e23          	sw	a5,-36(s0)
   13284:	87ae                	mv	a5,a1
   13286:	fcf42c23          	sw	a5,-40(s0)
   1328a:	12600893          	li	a7,294
   1328e:	00000073          	ecall
   13292:	87aa                	mv	a5,a0
   13294:	fef42623          	sw	a5,-20(s0)
   13298:	fec42783          	lw	a5,-20(s0)
   1329c:	853e                	mv	a0,a5
   1329e:	7462                	ld	s0,56(sp)
   132a0:	6121                	add	sp,sp,64
   132a2:	8082                	ret

00000000000132a4 <rev_pidfd_send_signal>:
   132a4:	7139                	add	sp,sp,-64
   132a6:	fc22                	sd	s0,56(sp)
   132a8:	0080                	add	s0,sp,64
   132aa:	87aa                	mv	a5,a0
   132ac:	fcc43823          	sd	a2,-48(s0)
   132b0:	8736                	mv	a4,a3
   132b2:	fcf42e23          	sw	a5,-36(s0)
   132b6:	87ae                	mv	a5,a1
   132b8:	fcf42c23          	sw	a5,-40(s0)
   132bc:	87ba                	mv	a5,a4
   132be:	fcf42623          	sw	a5,-52(s0)
   132c2:	1a800893          	li	a7,424
   132c6:	00000073          	ecall
   132ca:	87aa                	mv	a5,a0
   132cc:	fef42623          	sw	a5,-20(s0)
   132d0:	fec42783          	lw	a5,-20(s0)
   132d4:	853e                	mv	a0,a5
   132d6:	7462                	ld	s0,56(sp)
   132d8:	6121                	add	sp,sp,64
   132da:	8082                	ret

00000000000132dc <rev_io_uring_setup>:
   132dc:	7179                	add	sp,sp,-48
   132de:	f422                	sd	s0,40(sp)
   132e0:	1800                	add	s0,sp,48
   132e2:	87aa                	mv	a5,a0
   132e4:	fcb43823          	sd	a1,-48(s0)
   132e8:	fcf42e23          	sw	a5,-36(s0)
   132ec:	1a900893          	li	a7,425
   132f0:	00000073          	ecall
   132f4:	87aa                	mv	a5,a0
   132f6:	fef42623          	sw	a5,-20(s0)
   132fa:	fec42783          	lw	a5,-20(s0)
   132fe:	853e                	mv	a0,a5
   13300:	7422                	ld	s0,40(sp)
   13302:	6145                	add	sp,sp,48
   13304:	8082                	ret

0000000000013306 <rev_io_uring_enter>:
   13306:	7139                	add	sp,sp,-64
   13308:	fc22                	sd	s0,56(sp)
   1330a:	0080                	add	s0,sp,64
   1330c:	fce43423          	sd	a4,-56(s0)
   13310:	fcf43023          	sd	a5,-64(s0)
   13314:	87aa                	mv	a5,a0
   13316:	fcf42e23          	sw	a5,-36(s0)
   1331a:	87ae                	mv	a5,a1
   1331c:	fcf42c23          	sw	a5,-40(s0)
   13320:	87b2                	mv	a5,a2
   13322:	fcf42a23          	sw	a5,-44(s0)
   13326:	87b6                	mv	a5,a3
   13328:	fcf42823          	sw	a5,-48(s0)
   1332c:	1aa00893          	li	a7,426
   13330:	00000073          	ecall
   13334:	87aa                	mv	a5,a0
   13336:	fef42623          	sw	a5,-20(s0)
   1333a:	fec42783          	lw	a5,-20(s0)
   1333e:	853e                	mv	a0,a5
   13340:	7462                	ld	s0,56(sp)
   13342:	6121                	add	sp,sp,64
   13344:	8082                	ret

0000000000013346 <rev_io_uring_register>:
   13346:	7139                	add	sp,sp,-64
   13348:	fc22                	sd	s0,56(sp)
   1334a:	0080                	add	s0,sp,64
   1334c:	87aa                	mv	a5,a0
   1334e:	fcc43823          	sd	a2,-48(s0)
   13352:	8736                	mv	a4,a3
   13354:	fcf42e23          	sw	a5,-36(s0)
   13358:	87ae                	mv	a5,a1
   1335a:	fcf42c23          	sw	a5,-40(s0)
   1335e:	87ba                	mv	a5,a4
   13360:	fcf42623          	sw	a5,-52(s0)
   13364:	1ab00893          	li	a7,427
   13368:	00000073          	ecall
   1336c:	87aa                	mv	a5,a0
   1336e:	fef42623          	sw	a5,-20(s0)
   13372:	fec42783          	lw	a5,-20(s0)
   13376:	853e                	mv	a0,a5
   13378:	7462                	ld	s0,56(sp)
   1337a:	6121                	add	sp,sp,64
   1337c:	8082                	ret

000000000001337e <rev_open_tree>:
   1337e:	7179                	add	sp,sp,-48
   13380:	f422                	sd	s0,40(sp)
   13382:	1800                	add	s0,sp,48
   13384:	87aa                	mv	a5,a0
   13386:	fcb43823          	sd	a1,-48(s0)
   1338a:	8732                	mv	a4,a2
   1338c:	fcf42e23          	sw	a5,-36(s0)
   13390:	87ba                	mv	a5,a4
   13392:	fcf42c23          	sw	a5,-40(s0)
   13396:	1ac00893          	li	a7,428
   1339a:	00000073          	ecall
   1339e:	87aa                	mv	a5,a0
   133a0:	fef42623          	sw	a5,-20(s0)
   133a4:	fec42783          	lw	a5,-20(s0)
   133a8:	853e                	mv	a0,a5
   133aa:	7422                	ld	s0,40(sp)
   133ac:	6145                	add	sp,sp,48
   133ae:	8082                	ret

00000000000133b0 <rev_move_mount>:
   133b0:	7139                	add	sp,sp,-64
   133b2:	fc22                	sd	s0,56(sp)
   133b4:	0080                	add	s0,sp,64
   133b6:	87aa                	mv	a5,a0
   133b8:	fcb43823          	sd	a1,-48(s0)
   133bc:	fcd43423          	sd	a3,-56(s0)
   133c0:	fcf42e23          	sw	a5,-36(s0)
   133c4:	87b2                	mv	a5,a2
   133c6:	fcf42c23          	sw	a5,-40(s0)
   133ca:	87ba                	mv	a5,a4
   133cc:	fcf42223          	sw	a5,-60(s0)
   133d0:	1ad00893          	li	a7,429
   133d4:	00000073          	ecall
   133d8:	87aa                	mv	a5,a0
   133da:	fef42623          	sw	a5,-20(s0)
   133de:	fec42783          	lw	a5,-20(s0)
   133e2:	853e                	mv	a0,a5
   133e4:	7462                	ld	s0,56(sp)
   133e6:	6121                	add	sp,sp,64
   133e8:	8082                	ret

00000000000133ea <rev_fsopen>:
   133ea:	7179                	add	sp,sp,-48
   133ec:	f422                	sd	s0,40(sp)
   133ee:	1800                	add	s0,sp,48
   133f0:	fca43c23          	sd	a0,-40(s0)
   133f4:	87ae                	mv	a5,a1
   133f6:	fcf42a23          	sw	a5,-44(s0)
   133fa:	1ae00893          	li	a7,430
   133fe:	00000073          	ecall
   13402:	87aa                	mv	a5,a0
   13404:	fef42623          	sw	a5,-20(s0)
   13408:	fec42783          	lw	a5,-20(s0)
   1340c:	853e                	mv	a0,a5
   1340e:	7422                	ld	s0,40(sp)
   13410:	6145                	add	sp,sp,48
   13412:	8082                	ret

0000000000013414 <rev_fsconfig>:
   13414:	7139                	add	sp,sp,-64
   13416:	fc22                	sd	s0,56(sp)
   13418:	0080                	add	s0,sp,64
   1341a:	87aa                	mv	a5,a0
   1341c:	fcc43823          	sd	a2,-48(s0)
   13420:	fcd43423          	sd	a3,-56(s0)
   13424:	fcf42e23          	sw	a5,-36(s0)
   13428:	87ae                	mv	a5,a1
   1342a:	fcf42c23          	sw	a5,-40(s0)
   1342e:	87ba                	mv	a5,a4
   13430:	fcf42223          	sw	a5,-60(s0)
   13434:	1af00893          	li	a7,431
   13438:	00000073          	ecall
   1343c:	87aa                	mv	a5,a0
   1343e:	fef42623          	sw	a5,-20(s0)
   13442:	fec42783          	lw	a5,-20(s0)
   13446:	853e                	mv	a0,a5
   13448:	7462                	ld	s0,56(sp)
   1344a:	6121                	add	sp,sp,64
   1344c:	8082                	ret

000000000001344e <rev_fsmount>:
   1344e:	7179                	add	sp,sp,-48
   13450:	f422                	sd	s0,40(sp)
   13452:	1800                	add	s0,sp,48
   13454:	87aa                	mv	a5,a0
   13456:	86ae                	mv	a3,a1
   13458:	8732                	mv	a4,a2
   1345a:	fcf42e23          	sw	a5,-36(s0)
   1345e:	87b6                	mv	a5,a3
   13460:	fcf42c23          	sw	a5,-40(s0)
   13464:	87ba                	mv	a5,a4
   13466:	fcf42a23          	sw	a5,-44(s0)
   1346a:	1b000893          	li	a7,432
   1346e:	00000073          	ecall
   13472:	87aa                	mv	a5,a0
   13474:	fef42623          	sw	a5,-20(s0)
   13478:	fec42783          	lw	a5,-20(s0)
   1347c:	853e                	mv	a0,a5
   1347e:	7422                	ld	s0,40(sp)
   13480:	6145                	add	sp,sp,48
   13482:	8082                	ret

0000000000013484 <rev_fspick>:
   13484:	7179                	add	sp,sp,-48
   13486:	f422                	sd	s0,40(sp)
   13488:	1800                	add	s0,sp,48
   1348a:	87aa                	mv	a5,a0
   1348c:	fcb43823          	sd	a1,-48(s0)
   13490:	8732                	mv	a4,a2
   13492:	fcf42e23          	sw	a5,-36(s0)
   13496:	87ba                	mv	a5,a4
   13498:	fcf42c23          	sw	a5,-40(s0)
   1349c:	1b100893          	li	a7,433
   134a0:	00000073          	ecall
   134a4:	87aa                	mv	a5,a0
   134a6:	fef42623          	sw	a5,-20(s0)
   134aa:	fec42783          	lw	a5,-20(s0)
   134ae:	853e                	mv	a0,a5
   134b0:	7422                	ld	s0,40(sp)
   134b2:	6145                	add	sp,sp,48
   134b4:	8082                	ret

00000000000134b6 <rev_pidfd_open>:
   134b6:	7179                	add	sp,sp,-48
   134b8:	f422                	sd	s0,40(sp)
   134ba:	1800                	add	s0,sp,48
   134bc:	87aa                	mv	a5,a0
   134be:	872e                	mv	a4,a1
   134c0:	fcf42e23          	sw	a5,-36(s0)
   134c4:	87ba                	mv	a5,a4
   134c6:	fcf42c23          	sw	a5,-40(s0)
   134ca:	1b200893          	li	a7,434
   134ce:	00000073          	ecall
   134d2:	87aa                	mv	a5,a0
   134d4:	fef42623          	sw	a5,-20(s0)
   134d8:	fec42783          	lw	a5,-20(s0)
   134dc:	853e                	mv	a0,a5
   134de:	7422                	ld	s0,40(sp)
   134e0:	6145                	add	sp,sp,48
   134e2:	8082                	ret

00000000000134e4 <rev_clone3>:
   134e4:	7179                	add	sp,sp,-48
   134e6:	f422                	sd	s0,40(sp)
   134e8:	1800                	add	s0,sp,48
   134ea:	fca43c23          	sd	a0,-40(s0)
   134ee:	fcb43823          	sd	a1,-48(s0)
   134f2:	1b300893          	li	a7,435
   134f6:	00000073          	ecall
   134fa:	87aa                	mv	a5,a0
   134fc:	fef42623          	sw	a5,-20(s0)
   13500:	fec42783          	lw	a5,-20(s0)
   13504:	853e                	mv	a0,a5
   13506:	7422                	ld	s0,40(sp)
   13508:	6145                	add	sp,sp,48
   1350a:	8082                	ret

000000000001350c <rev_close_range>:
   1350c:	7179                	add	sp,sp,-48
   1350e:	f422                	sd	s0,40(sp)
   13510:	1800                	add	s0,sp,48
   13512:	87aa                	mv	a5,a0
   13514:	86ae                	mv	a3,a1
   13516:	8732                	mv	a4,a2
   13518:	fcf42e23          	sw	a5,-36(s0)
   1351c:	87b6                	mv	a5,a3
   1351e:	fcf42c23          	sw	a5,-40(s0)
   13522:	87ba                	mv	a5,a4
   13524:	fcf42a23          	sw	a5,-44(s0)
   13528:	1b400893          	li	a7,436
   1352c:	00000073          	ecall
   13530:	87aa                	mv	a5,a0
   13532:	fef42623          	sw	a5,-20(s0)
   13536:	fec42783          	lw	a5,-20(s0)
   1353a:	853e                	mv	a0,a5
   1353c:	7422                	ld	s0,40(sp)
   1353e:	6145                	add	sp,sp,48
   13540:	8082                	ret

0000000000013542 <rev_openat2>:
   13542:	7139                	add	sp,sp,-64
   13544:	fc22                	sd	s0,56(sp)
   13546:	0080                	add	s0,sp,64
   13548:	87aa                	mv	a5,a0
   1354a:	fcb43823          	sd	a1,-48(s0)
   1354e:	fcc43423          	sd	a2,-56(s0)
   13552:	fcd43023          	sd	a3,-64(s0)
   13556:	fcf42e23          	sw	a5,-36(s0)
   1355a:	1b500893          	li	a7,437
   1355e:	00000073          	ecall
   13562:	87aa                	mv	a5,a0
   13564:	fef42623          	sw	a5,-20(s0)
   13568:	fec42783          	lw	a5,-20(s0)
   1356c:	853e                	mv	a0,a5
   1356e:	7462                	ld	s0,56(sp)
   13570:	6121                	add	sp,sp,64
   13572:	8082                	ret

0000000000013574 <rev_pidfd_getfd>:
   13574:	7179                	add	sp,sp,-48
   13576:	f422                	sd	s0,40(sp)
   13578:	1800                	add	s0,sp,48
   1357a:	87aa                	mv	a5,a0
   1357c:	86ae                	mv	a3,a1
   1357e:	8732                	mv	a4,a2
   13580:	fcf42e23          	sw	a5,-36(s0)
   13584:	87b6                	mv	a5,a3
   13586:	fcf42c23          	sw	a5,-40(s0)
   1358a:	87ba                	mv	a5,a4
   1358c:	fcf42a23          	sw	a5,-44(s0)
   13590:	1b600893          	li	a7,438
   13594:	00000073          	ecall
   13598:	87aa                	mv	a5,a0
   1359a:	fef42623          	sw	a5,-20(s0)
   1359e:	fec42783          	lw	a5,-20(s0)
   135a2:	853e                	mv	a0,a5
   135a4:	7422                	ld	s0,40(sp)
   135a6:	6145                	add	sp,sp,48
   135a8:	8082                	ret

00000000000135aa <rev_faccessat2>:
   135aa:	7139                	add	sp,sp,-64
   135ac:	fc22                	sd	s0,56(sp)
   135ae:	0080                	add	s0,sp,64
   135b0:	87aa                	mv	a5,a0
   135b2:	fcb43823          	sd	a1,-48(s0)
   135b6:	8736                	mv	a4,a3
   135b8:	fcf42e23          	sw	a5,-36(s0)
   135bc:	87b2                	mv	a5,a2
   135be:	fcf42c23          	sw	a5,-40(s0)
   135c2:	87ba                	mv	a5,a4
   135c4:	fcf42623          	sw	a5,-52(s0)
   135c8:	1b700893          	li	a7,439
   135cc:	00000073          	ecall
   135d0:	87aa                	mv	a5,a0
   135d2:	fef42623          	sw	a5,-20(s0)
   135d6:	fec42783          	lw	a5,-20(s0)
   135da:	853e                	mv	a0,a5
   135dc:	7462                	ld	s0,56(sp)
   135de:	6121                	add	sp,sp,64
   135e0:	8082                	ret

00000000000135e2 <rev_process_madvise>:
   135e2:	7139                	add	sp,sp,-64
   135e4:	fc22                	sd	s0,56(sp)
   135e6:	0080                	add	s0,sp,64
   135e8:	87aa                	mv	a5,a0
   135ea:	fcb43823          	sd	a1,-48(s0)
   135ee:	fcc43423          	sd	a2,-56(s0)
   135f2:	fcf42e23          	sw	a5,-36(s0)
   135f6:	87b6                	mv	a5,a3
   135f8:	fcf42c23          	sw	a5,-40(s0)
   135fc:	87ba                	mv	a5,a4
   135fe:	fcf42223          	sw	a5,-60(s0)
   13602:	1b800893          	li	a7,440
   13606:	00000073          	ecall
   1360a:	87aa                	mv	a5,a0
   1360c:	fef42623          	sw	a5,-20(s0)
   13610:	fec42783          	lw	a5,-20(s0)
   13614:	853e                	mv	a0,a5
   13616:	7462                	ld	s0,56(sp)
   13618:	6121                	add	sp,sp,64
   1361a:	8082                	ret

000000000001361c <rev_cpuinfo>:
   1361c:	7179                	add	sp,sp,-48
   1361e:	f422                	sd	s0,40(sp)
   13620:	1800                	add	s0,sp,48
   13622:	fca43c23          	sd	a0,-40(s0)
   13626:	1f400893          	li	a7,500
   1362a:	00000073          	ecall
   1362e:	87aa                	mv	a5,a0
   13630:	fef42623          	sw	a5,-20(s0)
   13634:	fec42783          	lw	a5,-20(s0)
   13638:	853e                	mv	a0,a5
   1363a:	7422                	ld	s0,40(sp)
   1363c:	6145                	add	sp,sp,48
   1363e:	8082                	ret

0000000000013640 <rev_perf_stats>:
   13640:	7179                	add	sp,sp,-48
   13642:	f422                	sd	s0,40(sp)
   13644:	1800                	add	s0,sp,48
   13646:	fca43c23          	sd	a0,-40(s0)
   1364a:	1f500893          	li	a7,501
   1364e:	00000073          	ecall
   13652:	87aa                	mv	a5,a0
   13654:	fef42623          	sw	a5,-20(s0)
   13658:	fec42783          	lw	a5,-20(s0)
   1365c:	853e                	mv	a0,a5
   1365e:	7422                	ld	s0,40(sp)
   13660:	6145                	add	sp,sp,48
   13662:	8082                	ret

0000000000013664 <rev_pthread_create>:
   13664:	7139                	add	sp,sp,-64
   13666:	fc22                	sd	s0,56(sp)
   13668:	0080                	add	s0,sp,64
   1366a:	fca43c23          	sd	a0,-40(s0)
   1366e:	fcb43823          	sd	a1,-48(s0)
   13672:	fcc43423          	sd	a2,-56(s0)
   13676:	fcd43023          	sd	a3,-64(s0)
   1367a:	3e800893          	li	a7,1000
   1367e:	00000073          	ecall
   13682:	87aa                	mv	a5,a0
   13684:	fef42623          	sw	a5,-20(s0)
   13688:	fec42783          	lw	a5,-20(s0)
   1368c:	853e                	mv	a0,a5
   1368e:	7462                	ld	s0,56(sp)
   13690:	6121                	add	sp,sp,64
   13692:	8082                	ret

0000000000013694 <rev_pthread_join>:
   13694:	7179                	add	sp,sp,-48
   13696:	f422                	sd	s0,40(sp)
   13698:	1800                	add	s0,sp,48
   1369a:	fca43c23          	sd	a0,-40(s0)
   1369e:	3e900893          	li	a7,1001
   136a2:	00000073          	ecall
   136a6:	87aa                	mv	a5,a0
   136a8:	fef42623          	sw	a5,-20(s0)
   136ac:	fec42783          	lw	a5,-20(s0)
   136b0:	853e                	mv	a0,a5
   136b2:	7422                	ld	s0,40(sp)
   136b4:	6145                	add	sp,sp,48
   136b6:	8082                	ret

00000000000136b8 <printstr>:
   136b8:	7179                	add	sp,sp,-48
   136ba:	f406                	sd	ra,40(sp)
   136bc:	f022                	sd	s0,32(sp)
   136be:	1800                	add	s0,sp,48
   136c0:	fca43c23          	sd	a0,-40(s0)
   136c4:	fd843503          	ld	a0,-40(s0)
   136c8:	1fd000ef          	jal	140c4 <strlen>
   136cc:	87aa                	mv	a5,a0
   136ce:	863e                	mv	a2,a5
   136d0:	fd843583          	ld	a1,-40(s0)
   136d4:	4505                	li	a0,1
   136d6:	e02fd0ef          	jal	10cd8 <rev_write>
   136da:	87aa                	mv	a5,a0
   136dc:	fef43423          	sd	a5,-24(s0)
   136e0:	0001                	nop
   136e2:	70a2                	ld	ra,40(sp)
   136e4:	7402                	ld	s0,32(sp)
   136e6:	6145                	add	sp,sp,48
   136e8:	8082                	ret

00000000000136ea <putchar>:
   136ea:	7179                	add	sp,sp,-48
   136ec:	f406                	sd	ra,40(sp)
   136ee:	f022                	sd	s0,32(sp)
   136f0:	1800                	add	s0,sp,48
   136f2:	87aa                	mv	a5,a0
   136f4:	fcf42e23          	sw	a5,-36(s0)
   136f8:	04022783          	lw	a5,64(tp) # 40 <buflen.1>
   136fc:	0017871b          	addw	a4,a5,1
   13700:	0007069b          	sext.w	a3,a4
   13704:	04d22023          	sw	a3,64(tp) # 40 <buflen.1>
   13708:	fdc42703          	lw	a4,-36(s0)
   1370c:	0ff77713          	zext.b	a4,a4
   13710:	00020693          	mv	a3,tp
   13714:	97b6                	add	a5,a5,a3
   13716:	00e78023          	sb	a4,0(a5)
   1371a:	fdc42783          	lw	a5,-36(s0)
   1371e:	0007871b          	sext.w	a4,a5
   13722:	47a9                	li	a5,10
   13724:	00f70963          	beq	a4,a5,13736 <putchar+0x4c>
   13728:	04022783          	lw	a5,64(tp) # 40 <buflen.1>
   1372c:	873e                	mv	a4,a5
   1372e:	04000793          	li	a5,64
   13732:	02f71163          	bne	a4,a5,13754 <putchar+0x6a>
   13736:	04022783          	lw	a5,64(tp) # 40 <buflen.1>
   1373a:	873e                	mv	a4,a5
   1373c:	00020793          	mv	a5,tp
   13740:	863a                	mv	a2,a4
   13742:	85be                	mv	a1,a5
   13744:	4505                	li	a0,1
   13746:	d92fd0ef          	jal	10cd8 <rev_write>
   1374a:	87aa                	mv	a5,a0
   1374c:	fef43423          	sd	a5,-24(s0)
   13750:	04022023          	sw	zero,64(tp) # 40 <buflen.1>
   13754:	4781                	li	a5,0
   13756:	853e                	mv	a0,a5
   13758:	70a2                	ld	ra,40(sp)
   1375a:	7402                	ld	s0,32(sp)
   1375c:	6145                	add	sp,sp,48
   1375e:	8082                	ret

0000000000013760 <printhex>:
   13760:	7139                	add	sp,sp,-64
   13762:	fc06                	sd	ra,56(sp)
   13764:	f822                	sd	s0,48(sp)
   13766:	0080                	add	s0,sp,64
   13768:	fca43423          	sd	a0,-56(s0)
   1376c:	fe042623          	sw	zero,-20(s0)
   13770:	a899                	j	137c6 <printhex+0x66>
   13772:	fc843783          	ld	a5,-56(s0)
   13776:	0ff7f793          	zext.b	a5,a5
   1377a:	8bbd                	and	a5,a5,15
   1377c:	0ff7f713          	zext.b	a4,a5
   13780:	fc843783          	ld	a5,-56(s0)
   13784:	00f7f693          	and	a3,a5,15
   13788:	47a5                	li	a5,9
   1378a:	00d7e563          	bltu	a5,a3,13794 <printhex+0x34>
   1378e:	03000793          	li	a5,48
   13792:	a019                	j	13798 <printhex+0x38>
   13794:	05700793          	li	a5,87
   13798:	46bd                	li	a3,15
   1379a:	fec42603          	lw	a2,-20(s0)
   1379e:	9e91                	subw	a3,a3,a2
   137a0:	2681                	sext.w	a3,a3
   137a2:	9fb9                	addw	a5,a5,a4
   137a4:	0ff7f713          	zext.b	a4,a5
   137a8:	ff068793          	add	a5,a3,-16
   137ac:	97a2                	add	a5,a5,s0
   137ae:	fee78423          	sb	a4,-24(a5)
   137b2:	fc843783          	ld	a5,-56(s0)
   137b6:	8391                	srl	a5,a5,0x4
   137b8:	fcf43423          	sd	a5,-56(s0)
   137bc:	fec42783          	lw	a5,-20(s0)
   137c0:	2785                	addw	a5,a5,1
   137c2:	fef42623          	sw	a5,-20(s0)
   137c6:	fec42783          	lw	a5,-20(s0)
   137ca:	0007871b          	sext.w	a4,a5
   137ce:	47bd                	li	a5,15
   137d0:	fae7d1e3          	bge	a5,a4,13772 <printhex+0x12>
   137d4:	fe040423          	sb	zero,-24(s0)
   137d8:	fd840793          	add	a5,s0,-40
   137dc:	853e                	mv	a0,a5
   137de:	edbff0ef          	jal	136b8 <printstr>
   137e2:	0001                	nop
   137e4:	70e2                	ld	ra,56(sp)
   137e6:	7442                	ld	s0,48(sp)
   137e8:	6121                	add	sp,sp,64
   137ea:	8082                	ret

00000000000137ec <printnum>:
   137ec:	714d                	add	sp,sp,-336
   137ee:	e686                	sd	ra,328(sp)
   137f0:	e2a2                	sd	s0,320(sp)
   137f2:	0a80                	add	s0,sp,336
   137f4:	eca43c23          	sd	a0,-296(s0)
   137f8:	ecb43823          	sd	a1,-304(s0)
   137fc:	ecc43423          	sd	a2,-312(s0)
   13800:	8636                	mv	a2,a3
   13802:	86ba                	mv	a3,a4
   13804:	873e                	mv	a4,a5
   13806:	87b2                	mv	a5,a2
   13808:	ecf42223          	sw	a5,-316(s0)
   1380c:	87b6                	mv	a5,a3
   1380e:	ecf42023          	sw	a5,-320(s0)
   13812:	87ba                	mv	a5,a4
   13814:	eaf42e23          	sw	a5,-324(s0)
   13818:	fe042623          	sw	zero,-20(s0)
   1381c:	ec446783          	lwu	a5,-316(s0)
   13820:	ec843703          	ld	a4,-312(s0)
   13824:	02f776b3          	remu	a3,a4,a5
   13828:	fec42783          	lw	a5,-20(s0)
   1382c:	0017871b          	addw	a4,a5,1
   13830:	fee42623          	sw	a4,-20(s0)
   13834:	0006871b          	sext.w	a4,a3
   13838:	078a                	sll	a5,a5,0x2
   1383a:	17c1                	add	a5,a5,-16
   1383c:	97a2                	add	a5,a5,s0
   1383e:	eee7ac23          	sw	a4,-264(a5)
   13842:	ec446783          	lwu	a5,-316(s0)
   13846:	ec843703          	ld	a4,-312(s0)
   1384a:	00f76b63          	bltu	a4,a5,13860 <printnum+0x74>
   1384e:	ec446783          	lwu	a5,-316(s0)
   13852:	ec843703          	ld	a4,-312(s0)
   13856:	02f757b3          	divu	a5,a4,a5
   1385a:	ecf43423          	sd	a5,-312(s0)
   1385e:	bf7d                	j	1381c <printnum+0x30>
   13860:	0001                	nop
   13862:	a809                	j	13874 <printnum+0x88>
   13864:	ebc42703          	lw	a4,-324(s0)
   13868:	ed843783          	ld	a5,-296(s0)
   1386c:	ed043583          	ld	a1,-304(s0)
   13870:	853a                	mv	a0,a4
   13872:	9782                	jalr	a5
   13874:	ec042783          	lw	a5,-320(s0)
   13878:	fff7871b          	addw	a4,a5,-1
   1387c:	ece42023          	sw	a4,-320(s0)
   13880:	fec42703          	lw	a4,-20(s0)
   13884:	2701                	sext.w	a4,a4
   13886:	fcf74fe3          	blt	a4,a5,13864 <printnum+0x78>
   1388a:	a091                	j	138ce <printnum+0xe2>
   1388c:	fec42783          	lw	a5,-20(s0)
   13890:	078a                	sll	a5,a5,0x2
   13892:	17c1                	add	a5,a5,-16
   13894:	97a2                	add	a5,a5,s0
   13896:	ef87a703          	lw	a4,-264(a5)
   1389a:	fec42783          	lw	a5,-20(s0)
   1389e:	078a                	sll	a5,a5,0x2
   138a0:	17c1                	add	a5,a5,-16
   138a2:	97a2                	add	a5,a5,s0
   138a4:	ef87a783          	lw	a5,-264(a5)
   138a8:	86be                	mv	a3,a5
   138aa:	47a5                	li	a5,9
   138ac:	00d7f563          	bgeu	a5,a3,138b6 <printnum+0xca>
   138b0:	05700793          	li	a5,87
   138b4:	a019                	j	138ba <printnum+0xce>
   138b6:	03000793          	li	a5,48
   138ba:	9fb9                	addw	a5,a5,a4
   138bc:	2781                	sext.w	a5,a5
   138be:	0007871b          	sext.w	a4,a5
   138c2:	ed843783          	ld	a5,-296(s0)
   138c6:	ed043583          	ld	a1,-304(s0)
   138ca:	853a                	mv	a0,a4
   138cc:	9782                	jalr	a5
   138ce:	fec42783          	lw	a5,-20(s0)
   138d2:	fff7871b          	addw	a4,a5,-1
   138d6:	fee42623          	sw	a4,-20(s0)
   138da:	faf049e3          	bgtz	a5,1388c <printnum+0xa0>
   138de:	0001                	nop
   138e0:	0001                	nop
   138e2:	60b6                	ld	ra,328(sp)
   138e4:	6416                	ld	s0,320(sp)
   138e6:	6171                	add	sp,sp,336
   138e8:	8082                	ret

00000000000138ea <getuint>:
   138ea:	1101                	add	sp,sp,-32
   138ec:	ec22                	sd	s0,24(sp)
   138ee:	1000                	add	s0,sp,32
   138f0:	fea43423          	sd	a0,-24(s0)
   138f4:	87ae                	mv	a5,a1
   138f6:	fef42223          	sw	a5,-28(s0)
   138fa:	fe442783          	lw	a5,-28(s0)
   138fe:	0007871b          	sext.w	a4,a5
   13902:	4785                	li	a5,1
   13904:	00e7dc63          	bge	a5,a4,1391c <getuint+0x32>
   13908:	fe843783          	ld	a5,-24(s0)
   1390c:	639c                	ld	a5,0(a5)
   1390e:	00878693          	add	a3,a5,8
   13912:	fe843703          	ld	a4,-24(s0)
   13916:	e314                	sd	a3,0(a4)
   13918:	639c                	ld	a5,0(a5)
   1391a:	a815                	j	1394e <getuint+0x64>
   1391c:	fe442783          	lw	a5,-28(s0)
   13920:	2781                	sext.w	a5,a5
   13922:	cb99                	beqz	a5,13938 <getuint+0x4e>
   13924:	fe843783          	ld	a5,-24(s0)
   13928:	639c                	ld	a5,0(a5)
   1392a:	00878693          	add	a3,a5,8
   1392e:	fe843703          	ld	a4,-24(s0)
   13932:	e314                	sd	a3,0(a4)
   13934:	639c                	ld	a5,0(a5)
   13936:	a821                	j	1394e <getuint+0x64>
   13938:	fe843783          	ld	a5,-24(s0)
   1393c:	639c                	ld	a5,0(a5)
   1393e:	00878693          	add	a3,a5,8
   13942:	fe843703          	ld	a4,-24(s0)
   13946:	e314                	sd	a3,0(a4)
   13948:	439c                	lw	a5,0(a5)
   1394a:	1782                	sll	a5,a5,0x20
   1394c:	9381                	srl	a5,a5,0x20
   1394e:	853e                	mv	a0,a5
   13950:	6462                	ld	s0,24(sp)
   13952:	6105                	add	sp,sp,32
   13954:	8082                	ret

0000000000013956 <getint>:
   13956:	1101                	add	sp,sp,-32
   13958:	ec22                	sd	s0,24(sp)
   1395a:	1000                	add	s0,sp,32
   1395c:	fea43423          	sd	a0,-24(s0)
   13960:	87ae                	mv	a5,a1
   13962:	fef42223          	sw	a5,-28(s0)
   13966:	fe442783          	lw	a5,-28(s0)
   1396a:	0007871b          	sext.w	a4,a5
   1396e:	4785                	li	a5,1
   13970:	00e7dc63          	bge	a5,a4,13988 <getint+0x32>
   13974:	fe843783          	ld	a5,-24(s0)
   13978:	639c                	ld	a5,0(a5)
   1397a:	00878693          	add	a3,a5,8
   1397e:	fe843703          	ld	a4,-24(s0)
   13982:	e314                	sd	a3,0(a4)
   13984:	639c                	ld	a5,0(a5)
   13986:	a805                	j	139b6 <getint+0x60>
   13988:	fe442783          	lw	a5,-28(s0)
   1398c:	2781                	sext.w	a5,a5
   1398e:	cb99                	beqz	a5,139a4 <getint+0x4e>
   13990:	fe843783          	ld	a5,-24(s0)
   13994:	639c                	ld	a5,0(a5)
   13996:	00878693          	add	a3,a5,8
   1399a:	fe843703          	ld	a4,-24(s0)
   1399e:	e314                	sd	a3,0(a4)
   139a0:	639c                	ld	a5,0(a5)
   139a2:	a811                	j	139b6 <getint+0x60>
   139a4:	fe843783          	ld	a5,-24(s0)
   139a8:	639c                	ld	a5,0(a5)
   139aa:	00878693          	add	a3,a5,8
   139ae:	fe843703          	ld	a4,-24(s0)
   139b2:	e314                	sd	a3,0(a4)
   139b4:	439c                	lw	a5,0(a5)
   139b6:	853e                	mv	a0,a5
   139b8:	6462                	ld	s0,24(sp)
   139ba:	6105                	add	sp,sp,32
   139bc:	8082                	ret

00000000000139be <vprintfmt>:
   139be:	7159                	add	sp,sp,-112
   139c0:	f486                	sd	ra,104(sp)
   139c2:	f0a2                	sd	s0,96(sp)
   139c4:	eca6                	sd	s1,88(sp)
   139c6:	e8ca                	sd	s2,80(sp)
   139c8:	1880                	add	s0,sp,112
   139ca:	faa43423          	sd	a0,-88(s0)
   139ce:	fab43023          	sd	a1,-96(s0)
   139d2:	f8c43c23          	sd	a2,-104(s0)
   139d6:	f8d43823          	sd	a3,-112(s0)
   139da:	a831                	j	139f6 <vprintfmt+0x38>
   139dc:	32048b63          	beqz	s1,13d12 <vprintfmt+0x354>
   139e0:	f9843783          	ld	a5,-104(s0)
   139e4:	0785                	add	a5,a5,1
   139e6:	f8f43c23          	sd	a5,-104(s0)
   139ea:	fa843783          	ld	a5,-88(s0)
   139ee:	fa043583          	ld	a1,-96(s0)
   139f2:	8526                	mv	a0,s1
   139f4:	9782                	jalr	a5
   139f6:	f9843783          	ld	a5,-104(s0)
   139fa:	0007c783          	lbu	a5,0(a5)
   139fe:	0007849b          	sext.w	s1,a5
   13a02:	8726                	mv	a4,s1
   13a04:	02500793          	li	a5,37
   13a08:	fcf71ae3          	bne	a4,a5,139dc <vprintfmt+0x1e>
   13a0c:	f9843783          	ld	a5,-104(s0)
   13a10:	0785                	add	a5,a5,1
   13a12:	f8f43c23          	sd	a5,-104(s0)
   13a16:	f9843783          	ld	a5,-104(s0)
   13a1a:	faf43c23          	sd	a5,-72(s0)
   13a1e:	02000793          	li	a5,32
   13a22:	fcf403a3          	sb	a5,-57(s0)
   13a26:	57fd                	li	a5,-1
   13a28:	fcf42623          	sw	a5,-52(s0)
   13a2c:	57fd                	li	a5,-1
   13a2e:	fcf42423          	sw	a5,-56(s0)
   13a32:	fc042823          	sw	zero,-48(s0)
   13a36:	fa042a23          	sw	zero,-76(s0)
   13a3a:	f9843783          	ld	a5,-104(s0)
   13a3e:	00178713          	add	a4,a5,1
   13a42:	f8e43c23          	sd	a4,-104(s0)
   13a46:	0007c783          	lbu	a5,0(a5)
   13a4a:	0007849b          	sext.w	s1,a5
   13a4e:	fdd4869b          	addw	a3,s1,-35
   13a52:	0006871b          	sext.w	a4,a3
   13a56:	05500793          	li	a5,85
   13a5a:	28e7ef63          	bltu	a5,a4,13cf8 <vprintfmt+0x33a>
   13a5e:	02069793          	sll	a5,a3,0x20
   13a62:	9381                	srl	a5,a5,0x20
   13a64:	00279713          	sll	a4,a5,0x2
   13a68:	00001797          	auipc	a5,0x1
   13a6c:	8b878793          	add	a5,a5,-1864 # 14320 <__errno+0xe>
   13a70:	97ba                	add	a5,a5,a4
   13a72:	439c                	lw	a5,0(a5)
   13a74:	0007871b          	sext.w	a4,a5
   13a78:	00001797          	auipc	a5,0x1
   13a7c:	8a878793          	add	a5,a5,-1880 # 14320 <__errno+0xe>
   13a80:	97ba                	add	a5,a5,a4
   13a82:	8782                	jr	a5
   13a84:	02d00793          	li	a5,45
   13a88:	fcf403a3          	sb	a5,-57(s0)
   13a8c:	b77d                	j	13a3a <vprintfmt+0x7c>
   13a8e:	03000793          	li	a5,48
   13a92:	fcf403a3          	sb	a5,-57(s0)
   13a96:	b755                	j	13a3a <vprintfmt+0x7c>
   13a98:	fc042423          	sw	zero,-56(s0)
   13a9c:	fc842783          	lw	a5,-56(s0)
   13aa0:	873e                	mv	a4,a5
   13aa2:	87ba                	mv	a5,a4
   13aa4:	0027979b          	sllw	a5,a5,0x2
   13aa8:	9fb9                	addw	a5,a5,a4
   13aaa:	0017979b          	sllw	a5,a5,0x1
   13aae:	2781                	sext.w	a5,a5
   13ab0:	9fa5                	addw	a5,a5,s1
   13ab2:	2781                	sext.w	a5,a5
   13ab4:	fd07879b          	addw	a5,a5,-48
   13ab8:	fcf42423          	sw	a5,-56(s0)
   13abc:	f9843783          	ld	a5,-104(s0)
   13ac0:	0007c783          	lbu	a5,0(a5)
   13ac4:	0007849b          	sext.w	s1,a5
   13ac8:	8726                	mv	a4,s1
   13aca:	02f00793          	li	a5,47
   13ace:	04e7d363          	bge	a5,a4,13b14 <vprintfmt+0x156>
   13ad2:	8726                	mv	a4,s1
   13ad4:	03900793          	li	a5,57
   13ad8:	02e7ce63          	blt	a5,a4,13b14 <vprintfmt+0x156>
   13adc:	f9843783          	ld	a5,-104(s0)
   13ae0:	0785                	add	a5,a5,1
   13ae2:	f8f43c23          	sd	a5,-104(s0)
   13ae6:	bf5d                	j	13a9c <vprintfmt+0xde>
   13ae8:	f9043783          	ld	a5,-112(s0)
   13aec:	00878713          	add	a4,a5,8
   13af0:	f8e43823          	sd	a4,-112(s0)
   13af4:	439c                	lw	a5,0(a5)
   13af6:	fcf42423          	sw	a5,-56(s0)
   13afa:	a831                	j	13b16 <vprintfmt+0x158>
   13afc:	fcc42783          	lw	a5,-52(s0)
   13b00:	2781                	sext.w	a5,a5
   13b02:	f207dce3          	bgez	a5,13a3a <vprintfmt+0x7c>
   13b06:	fc042623          	sw	zero,-52(s0)
   13b0a:	bf05                	j	13a3a <vprintfmt+0x7c>
   13b0c:	4785                	li	a5,1
   13b0e:	faf42a23          	sw	a5,-76(s0)
   13b12:	b725                	j	13a3a <vprintfmt+0x7c>
   13b14:	0001                	nop
   13b16:	fcc42783          	lw	a5,-52(s0)
   13b1a:	2781                	sext.w	a5,a5
   13b1c:	f007dfe3          	bgez	a5,13a3a <vprintfmt+0x7c>
   13b20:	fc842783          	lw	a5,-56(s0)
   13b24:	fcf42623          	sw	a5,-52(s0)
   13b28:	57fd                	li	a5,-1
   13b2a:	fcf42423          	sw	a5,-56(s0)
   13b2e:	b731                	j	13a3a <vprintfmt+0x7c>
   13b30:	fd042783          	lw	a5,-48(s0)
   13b34:	2785                	addw	a5,a5,1
   13b36:	fcf42823          	sw	a5,-48(s0)
   13b3a:	b701                	j	13a3a <vprintfmt+0x7c>
   13b3c:	f9043783          	ld	a5,-112(s0)
   13b40:	00878713          	add	a4,a5,8
   13b44:	f8e43823          	sd	a4,-112(s0)
   13b48:	4398                	lw	a4,0(a5)
   13b4a:	fa843783          	ld	a5,-88(s0)
   13b4e:	fa043583          	ld	a1,-96(s0)
   13b52:	853a                	mv	a0,a4
   13b54:	9782                	jalr	a5
   13b56:	aa6d                	j	13d10 <vprintfmt+0x352>
   13b58:	f9043783          	ld	a5,-112(s0)
   13b5c:	00878713          	add	a4,a5,8
   13b60:	f8e43823          	sd	a4,-112(s0)
   13b64:	0007b903          	ld	s2,0(a5)
   13b68:	00091663          	bnez	s2,13b74 <vprintfmt+0x1b6>
   13b6c:	00000917          	auipc	s2,0x0
   13b70:	7ac90913          	add	s2,s2,1964 # 14318 <__errno+0x6>
   13b74:	fcc42783          	lw	a5,-52(s0)
   13b78:	2781                	sext.w	a5,a5
   13b7a:	06f05b63          	blez	a5,13bf0 <vprintfmt+0x232>
   13b7e:	fc744783          	lbu	a5,-57(s0)
   13b82:	0ff7f713          	zext.b	a4,a5
   13b86:	02d00793          	li	a5,45
   13b8a:	06f70363          	beq	a4,a5,13bf0 <vprintfmt+0x232>
   13b8e:	fcc42483          	lw	s1,-52(s0)
   13b92:	fc842783          	lw	a5,-56(s0)
   13b96:	85be                	mv	a1,a5
   13b98:	854a                	mv	a0,s2
   13b9a:	5ba000ef          	jal	14154 <strnlen>
   13b9e:	87aa                	mv	a5,a0
   13ba0:	2781                	sext.w	a5,a5
   13ba2:	40f487bb          	subw	a5,s1,a5
   13ba6:	2781                	sext.w	a5,a5
   13ba8:	fcf42623          	sw	a5,-52(s0)
   13bac:	a005                	j	13bcc <vprintfmt+0x20e>
   13bae:	fc744783          	lbu	a5,-57(s0)
   13bb2:	0007871b          	sext.w	a4,a5
   13bb6:	fa843783          	ld	a5,-88(s0)
   13bba:	fa043583          	ld	a1,-96(s0)
   13bbe:	853a                	mv	a0,a4
   13bc0:	9782                	jalr	a5
   13bc2:	fcc42783          	lw	a5,-52(s0)
   13bc6:	37fd                	addw	a5,a5,-1
   13bc8:	fcf42623          	sw	a5,-52(s0)
   13bcc:	fcc42783          	lw	a5,-52(s0)
   13bd0:	2781                	sext.w	a5,a5
   13bd2:	fcf04ee3          	bgtz	a5,13bae <vprintfmt+0x1f0>
   13bd6:	a829                	j	13bf0 <vprintfmt+0x232>
   13bd8:	fa843783          	ld	a5,-88(s0)
   13bdc:	fa043583          	ld	a1,-96(s0)
   13be0:	8526                	mv	a0,s1
   13be2:	9782                	jalr	a5
   13be4:	0905                	add	s2,s2,1
   13be6:	fcc42783          	lw	a5,-52(s0)
   13bea:	37fd                	addw	a5,a5,-1
   13bec:	fcf42623          	sw	a5,-52(s0)
   13bf0:	00094783          	lbu	a5,0(s2)
   13bf4:	0007849b          	sext.w	s1,a5
   13bf8:	cc8d                	beqz	s1,13c32 <vprintfmt+0x274>
   13bfa:	fc842783          	lw	a5,-56(s0)
   13bfe:	2781                	sext.w	a5,a5
   13c00:	fc07cce3          	bltz	a5,13bd8 <vprintfmt+0x21a>
   13c04:	fc842783          	lw	a5,-56(s0)
   13c08:	37fd                	addw	a5,a5,-1
   13c0a:	fcf42423          	sw	a5,-56(s0)
   13c0e:	fc842783          	lw	a5,-56(s0)
   13c12:	2781                	sext.w	a5,a5
   13c14:	fc07d2e3          	bgez	a5,13bd8 <vprintfmt+0x21a>
   13c18:	a829                	j	13c32 <vprintfmt+0x274>
   13c1a:	fa843783          	ld	a5,-88(s0)
   13c1e:	fa043583          	ld	a1,-96(s0)
   13c22:	02000513          	li	a0,32
   13c26:	9782                	jalr	a5
   13c28:	fcc42783          	lw	a5,-52(s0)
   13c2c:	37fd                	addw	a5,a5,-1
   13c2e:	fcf42623          	sw	a5,-52(s0)
   13c32:	fcc42783          	lw	a5,-52(s0)
   13c36:	2781                	sext.w	a5,a5
   13c38:	fef041e3          	bgtz	a5,13c1a <vprintfmt+0x25c>
   13c3c:	a8d1                	j	13d10 <vprintfmt+0x352>
   13c3e:	fd042703          	lw	a4,-48(s0)
   13c42:	f9040793          	add	a5,s0,-112
   13c46:	85ba                	mv	a1,a4
   13c48:	853e                	mv	a0,a5
   13c4a:	d0dff0ef          	jal	13956 <getint>
   13c4e:	87aa                	mv	a5,a0
   13c50:	fcf43c23          	sd	a5,-40(s0)
   13c54:	fd843783          	ld	a5,-40(s0)
   13c58:	0007df63          	bgez	a5,13c76 <vprintfmt+0x2b8>
   13c5c:	fa843783          	ld	a5,-88(s0)
   13c60:	fa043583          	ld	a1,-96(s0)
   13c64:	02d00513          	li	a0,45
   13c68:	9782                	jalr	a5
   13c6a:	fd843783          	ld	a5,-40(s0)
   13c6e:	40f007b3          	neg	a5,a5
   13c72:	fcf43c23          	sd	a5,-40(s0)
   13c76:	47a9                	li	a5,10
   13c78:	fcf42a23          	sw	a5,-44(s0)
   13c7c:	a0b9                	j	13cca <vprintfmt+0x30c>
   13c7e:	47a9                	li	a5,10
   13c80:	fcf42a23          	sw	a5,-44(s0)
   13c84:	a80d                	j	13cb6 <vprintfmt+0x2f8>
   13c86:	47a1                	li	a5,8
   13c88:	fcf42a23          	sw	a5,-44(s0)
   13c8c:	a02d                	j	13cb6 <vprintfmt+0x2f8>
   13c8e:	4785                	li	a5,1
   13c90:	fcf42823          	sw	a5,-48(s0)
   13c94:	fa843783          	ld	a5,-88(s0)
   13c98:	fa043583          	ld	a1,-96(s0)
   13c9c:	03000513          	li	a0,48
   13ca0:	9782                	jalr	a5
   13ca2:	fa843783          	ld	a5,-88(s0)
   13ca6:	fa043583          	ld	a1,-96(s0)
   13caa:	07800513          	li	a0,120
   13cae:	9782                	jalr	a5
   13cb0:	47c1                	li	a5,16
   13cb2:	fcf42a23          	sw	a5,-44(s0)
   13cb6:	fd042703          	lw	a4,-48(s0)
   13cba:	f9040793          	add	a5,s0,-112
   13cbe:	85ba                	mv	a1,a4
   13cc0:	853e                	mv	a0,a5
   13cc2:	c29ff0ef          	jal	138ea <getuint>
   13cc6:	fca43c23          	sd	a0,-40(s0)
   13cca:	fd442683          	lw	a3,-44(s0)
   13cce:	fc744783          	lbu	a5,-57(s0)
   13cd2:	2781                	sext.w	a5,a5
   13cd4:	fcc42703          	lw	a4,-52(s0)
   13cd8:	fd843603          	ld	a2,-40(s0)
   13cdc:	fa043583          	ld	a1,-96(s0)
   13ce0:	fa843503          	ld	a0,-88(s0)
   13ce4:	b09ff0ef          	jal	137ec <printnum>
   13ce8:	a025                	j	13d10 <vprintfmt+0x352>
   13cea:	fa843783          	ld	a5,-88(s0)
   13cee:	fa043583          	ld	a1,-96(s0)
   13cf2:	8526                	mv	a0,s1
   13cf4:	9782                	jalr	a5
   13cf6:	a829                	j	13d10 <vprintfmt+0x352>
   13cf8:	fa843783          	ld	a5,-88(s0)
   13cfc:	fa043583          	ld	a1,-96(s0)
   13d00:	02500513          	li	a0,37
   13d04:	9782                	jalr	a5
   13d06:	fb843783          	ld	a5,-72(s0)
   13d0a:	f8f43c23          	sd	a5,-104(s0)
   13d0e:	0001                	nop
   13d10:	b1dd                	j	139f6 <vprintfmt+0x38>
   13d12:	0001                	nop
   13d14:	70a6                	ld	ra,104(sp)
   13d16:	7406                	ld	s0,96(sp)
   13d18:	64e6                	ld	s1,88(sp)
   13d1a:	6946                	ld	s2,80(sp)
   13d1c:	6165                	add	sp,sp,112
   13d1e:	8082                	ret

0000000000013d20 <printf>:
   13d20:	7159                	add	sp,sp,-112
   13d22:	f406                	sd	ra,40(sp)
   13d24:	f022                	sd	s0,32(sp)
   13d26:	1800                	add	s0,sp,48
   13d28:	fca43c23          	sd	a0,-40(s0)
   13d2c:	e40c                	sd	a1,8(s0)
   13d2e:	e810                	sd	a2,16(s0)
   13d30:	ec14                	sd	a3,24(s0)
   13d32:	f018                	sd	a4,32(s0)
   13d34:	f41c                	sd	a5,40(s0)
   13d36:	03043823          	sd	a6,48(s0)
   13d3a:	03143c23          	sd	a7,56(s0)
   13d3e:	04040793          	add	a5,s0,64
   13d42:	fcf43823          	sd	a5,-48(s0)
   13d46:	fd043783          	ld	a5,-48(s0)
   13d4a:	fc878793          	add	a5,a5,-56
   13d4e:	fef43423          	sd	a5,-24(s0)
   13d52:	fe843783          	ld	a5,-24(s0)
   13d56:	86be                	mv	a3,a5
   13d58:	fd843603          	ld	a2,-40(s0)
   13d5c:	4581                	li	a1,0
   13d5e:	00000517          	auipc	a0,0x0
   13d62:	98c50513          	add	a0,a0,-1652 # 136ea <putchar>
   13d66:	c59ff0ef          	jal	139be <vprintfmt>
   13d6a:	4781                	li	a5,0
   13d6c:	853e                	mv	a0,a5
   13d6e:	70a2                	ld	ra,40(sp)
   13d70:	7402                	ld	s0,32(sp)
   13d72:	6165                	add	sp,sp,112
   13d74:	8082                	ret

0000000000013d76 <sprintf_putch.0>:
   13d76:	7139                	add	sp,sp,-64
   13d78:	fc22                	sd	s0,56(sp)
   13d7a:	0080                	add	s0,sp,64
   13d7c:	87aa                	mv	a5,a0
   13d7e:	fcb43823          	sd	a1,-48(s0)
   13d82:	fcf42e23          	sw	a5,-36(s0)
   13d86:	fc743423          	sd	t2,-56(s0)
   13d8a:	fd043783          	ld	a5,-48(s0)
   13d8e:	fef43423          	sd	a5,-24(s0)
   13d92:	fe843783          	ld	a5,-24(s0)
   13d96:	639c                	ld	a5,0(a5)
   13d98:	fdc42703          	lw	a4,-36(s0)
   13d9c:	0ff77713          	zext.b	a4,a4
   13da0:	00e78023          	sb	a4,0(a5)
   13da4:	fe843783          	ld	a5,-24(s0)
   13da8:	639c                	ld	a5,0(a5)
   13daa:	00178713          	add	a4,a5,1
   13dae:	fe843783          	ld	a5,-24(s0)
   13db2:	e398                	sd	a4,0(a5)
   13db4:	0001                	nop
   13db6:	7462                	ld	s0,56(sp)
   13db8:	6121                	add	sp,sp,64
   13dba:	8082                	ret

0000000000013dbc <sprintf>:
   13dbc:	716d                	add	sp,sp,-272
   13dbe:	ed86                	sd	ra,216(sp)
   13dc0:	e9a2                	sd	s0,208(sp)
   13dc2:	1180                	add	s0,sp,224
   13dc4:	f2a43c23          	sd	a0,-200(s0)
   13dc8:	f2b43823          	sd	a1,-208(s0)
   13dcc:	e010                	sd	a2,0(s0)
   13dce:	e414                	sd	a3,8(s0)
   13dd0:	e818                	sd	a4,16(s0)
   13dd2:	ec1c                	sd	a5,24(s0)
   13dd4:	03043023          	sd	a6,32(s0)
   13dd8:	03143423          	sd	a7,40(s0)
   13ddc:	03040793          	add	a5,s0,48
   13de0:	f2f43423          	sd	a5,-216(s0)
   13de4:	f2843783          	ld	a5,-216(s0)
   13de8:	fcf43c23          	sd	a5,-40(s0)
   13dec:	f4840793          	add	a5,s0,-184
   13df0:	f4840713          	add	a4,s0,-184
   13df4:	39700693          	li	a3,919
   13df8:	c394                	sw	a3,0(a5)
   13dfa:	0183b6b7          	lui	a3,0x183b
   13dfe:	28368693          	add	a3,a3,643 # 183b283 <__global_pointer$+0x182556b>
   13e02:	c3d4                	sw	a3,4(a5)
   13e04:	0103b6b7          	lui	a3,0x103b
   13e08:	38368693          	add	a3,a3,899 # 103b383 <__global_pointer$+0x102566b>
   13e0c:	c794                	sw	a3,8(a5)
   13e0e:	000286b7          	lui	a3,0x28
   13e12:	06768693          	add	a3,a3,103 # 28067 <__global_pointer$+0x1234f>
   13e16:	c7d4                	sw	a3,12(a5)
   13e18:	eb98                	sd	a4,16(a5)
   13e1a:	00000717          	auipc	a4,0x0
   13e1e:	f5c70713          	add	a4,a4,-164 # 13d76 <sprintf_putch.0>
   13e22:	ef98                	sd	a4,24(a5)
   13e24:	f3843783          	ld	a5,-200(s0)
   13e28:	fef43423          	sd	a5,-24(s0)
   13e2c:	03040793          	add	a5,s0,48
   13e30:	f2f43423          	sd	a5,-216(s0)
   13e34:	f2843783          	ld	a5,-216(s0)
   13e38:	fd078793          	add	a5,a5,-48
   13e3c:	fef43023          	sd	a5,-32(s0)
   13e40:	fe043703          	ld	a4,-32(s0)
   13e44:	f4840793          	add	a5,s0,-184
   13e48:	853e                	mv	a0,a5
   13e4a:	f3840793          	add	a5,s0,-200
   13e4e:	86ba                	mv	a3,a4
   13e50:	f3043603          	ld	a2,-208(s0)
   13e54:	85be                	mv	a1,a5
   13e56:	b69ff0ef          	jal	139be <vprintfmt>
   13e5a:	f3843783          	ld	a5,-200(s0)
   13e5e:	00078023          	sb	zero,0(a5)
   13e62:	f3843703          	ld	a4,-200(s0)
   13e66:	fe843783          	ld	a5,-24(s0)
   13e6a:	40f707b3          	sub	a5,a4,a5
   13e6e:	2781                	sext.w	a5,a5
   13e70:	853e                	mv	a0,a5
   13e72:	60ee                	ld	ra,216(sp)
   13e74:	644e                	ld	s0,208(sp)
   13e76:	6151                	add	sp,sp,272
   13e78:	8082                	ret

0000000000013e7a <main>:
   13e7a:	715d                	add	sp,sp,-80
   13e7c:	e486                	sd	ra,72(sp)
   13e7e:	e0a2                	sd	s0,64(sp)
   13e80:	0880                	add	s0,sp,80
   13e82:	87aa                	mv	a5,a0
   13e84:	fab43823          	sd	a1,-80(s0)
   13e88:	faf42e23          	sw	a5,-68(s0)
   13e8c:	114000ef          	jal	13fa0 <__xbrtime_asm_get_id>
   13e90:	87aa                	mv	a5,a0
   13e92:	fef42223          	sw	a5,-28(s0)
   13e96:	112000ef          	jal	13fa8 <__xbrtime_asm_get_npes>
   13e9a:	87aa                	mv	a5,a0
   13e9c:	fef42023          	sw	a5,-32(s0)
   13ea0:	fe042703          	lw	a4,-32(s0)
   13ea4:	fe442783          	lw	a5,-28(s0)
   13ea8:	863a                	mv	a2,a4
   13eaa:	85be                	mv	a1,a5
   13eac:	00000517          	auipc	a0,0x0
   13eb0:	5cc50513          	add	a0,a0,1484 # 14478 <__errno+0x166>
   13eb4:	e6dff0ef          	jal	13d20 <printf>
   13eb8:	00000797          	auipc	a5,0x0
   13ebc:	60878793          	add	a5,a5,1544 # 144c0 <__errno+0x1ae>
   13ec0:	639c                	ld	a5,0(a5)
   13ec2:	fcf43823          	sd	a5,-48(s0)
   13ec6:	00000797          	auipc	a5,0x0
   13eca:	60278793          	add	a5,a5,1538 # 144c8 <__errno+0x1b6>
   13ece:	639c                	ld	a5,0(a5)
   13ed0:	fcf43423          	sd	a5,-56(s0)
   13ed4:	fe442783          	lw	a5,-28(s0)
   13ed8:	2781                	sext.w	a5,a5
   13eda:	e789                	bnez	a5,13ee4 <main+0x6a>
   13edc:	4789                	li	a5,2
   13ede:	fef43423          	sd	a5,-24(s0)
   13ee2:	a819                	j	13ef8 <main+0x7e>
   13ee4:	fe442783          	lw	a5,-28(s0)
   13ee8:	0007871b          	sext.w	a4,a5
   13eec:	4785                	li	a5,1
   13eee:	00f71563          	bne	a4,a5,13ef8 <main+0x7e>
   13ef2:	4785                	li	a5,1
   13ef4:	fef43423          	sd	a5,-24(s0)
   13ef8:	fe843783          	ld	a5,-24(s0)
   13efc:	0007f2fb          	eaddie	e5,a5,0
   13f00:	fe442783          	lw	a5,-28(s0)
   13f04:	2781                	sext.w	a5,a5
   13f06:	e789                	bnez	a5,13f10 <main+0x96>
   13f08:	fc840793          	add	a5,s0,-56
   13f0c:	82be                	mv	t0,a5
   13f0e:	a819                	j	13f24 <main+0xaa>
   13f10:	fe442783          	lw	a5,-28(s0)
   13f14:	0007871b          	sext.w	a4,a5
   13f18:	4785                	li	a5,1
   13f1a:	00f71563          	bne	a4,a5,13f24 <main+0xaa>
   13f1e:	fd040793          	add	a5,s0,-48
   13f22:	82be                	mv	t0,a5
   13f24:	0002b7f7          	eld	a5,0(t0)
   13f28:	873e                	mv	a4,a5
   13f2a:	fce43c23          	sd	a4,-40(s0)
   13f2e:	fe442783          	lw	a5,-28(s0)
   13f32:	2781                	sext.w	a5,a5
   13f34:	e78d                	bnez	a5,13f5e <main+0xe4>
   13f36:	fc843783          	ld	a5,-56(s0)
   13f3a:	fd843703          	ld	a4,-40(s0)
   13f3e:	00f71963          	bne	a4,a5,13f50 <main+0xd6>
   13f42:	00000517          	auipc	a0,0x0
   13f46:	54e50513          	add	a0,a0,1358 # 14490 <__errno+0x17e>
   13f4a:	dd7ff0ef          	jal	13d20 <printf>
   13f4e:	a091                	j	13f92 <main+0x118>
   13f50:	00000517          	auipc	a0,0x0
   13f54:	55850513          	add	a0,a0,1368 # 144a8 <__errno+0x196>
   13f58:	dc9ff0ef          	jal	13d20 <printf>
   13f5c:	a81d                	j	13f92 <main+0x118>
   13f5e:	fe442783          	lw	a5,-28(s0)
   13f62:	0007871b          	sext.w	a4,a5
   13f66:	4785                	li	a5,1
   13f68:	02f71563          	bne	a4,a5,13f92 <main+0x118>
   13f6c:	fd043783          	ld	a5,-48(s0)
   13f70:	fd843703          	ld	a4,-40(s0)
   13f74:	00f71963          	bne	a4,a5,13f86 <main+0x10c>
   13f78:	00000517          	auipc	a0,0x0
   13f7c:	51850513          	add	a0,a0,1304 # 14490 <__errno+0x17e>
   13f80:	da1ff0ef          	jal	13d20 <printf>
   13f84:	a039                	j	13f92 <main+0x118>
   13f86:	00000517          	auipc	a0,0x0
   13f8a:	52250513          	add	a0,a0,1314 # 144a8 <__errno+0x196>
   13f8e:	d93ff0ef          	jal	13d20 <printf>
   13f92:	4781                	li	a5,0
   13f94:	853e                	mv	a0,a5
   13f96:	60a6                	ld	ra,72(sp)
   13f98:	6406                	ld	s0,64(sp)
   13f9a:	6161                	add	sp,sp,80
   13f9c:	8082                	ret
	...

0000000000013fa0 <__xbrtime_asm_get_id>:
   13fa0:	0005657b          	eaddi	a0,e10,0
   13fa4:	00008067          	ret

0000000000013fa8 <__xbrtime_asm_get_npes>:
   13fa8:	0005e57b          	eaddi	a0,e11,0
   13fac:	00008067          	ret

0000000000013fb0 <__libc_init_array>:
   13fb0:	1101                	add	sp,sp,-32
   13fb2:	e822                	sd	s0,16(sp)
   13fb4:	67d5                	lui	a5,0x15
   13fb6:	6455                	lui	s0,0x15
   13fb8:	e04a                	sd	s2,0(sp)
   13fba:	50078793          	add	a5,a5,1280 # 15500 <__init_array_start>
   13fbe:	50040713          	add	a4,s0,1280 # 15500 <__init_array_start>
   13fc2:	ec06                	sd	ra,24(sp)
   13fc4:	e426                	sd	s1,8(sp)
   13fc6:	40e78933          	sub	s2,a5,a4
   13fca:	00e78d63          	beq	a5,a4,13fe4 <__libc_init_array+0x34>
   13fce:	40395913          	sra	s2,s2,0x3
   13fd2:	50040413          	add	s0,s0,1280
   13fd6:	4481                	li	s1,0
   13fd8:	601c                	ld	a5,0(s0)
   13fda:	0485                	add	s1,s1,1
   13fdc:	0421                	add	s0,s0,8
   13fde:	9782                	jalr	a5
   13fe0:	ff24ece3          	bltu	s1,s2,13fd8 <__libc_init_array+0x28>
   13fe4:	6455                	lui	s0,0x15
   13fe6:	67d5                	lui	a5,0x15
   13fe8:	51078793          	add	a5,a5,1296 # 15510 <__do_global_dtors_aux_fini_array_entry>
   13fec:	50040713          	add	a4,s0,1280 # 15500 <__init_array_start>
   13ff0:	40e78933          	sub	s2,a5,a4
   13ff4:	40395913          	sra	s2,s2,0x3
   13ff8:	00e78b63          	beq	a5,a4,1400e <__libc_init_array+0x5e>
   13ffc:	50040413          	add	s0,s0,1280
   14000:	4481                	li	s1,0
   14002:	601c                	ld	a5,0(s0)
   14004:	0485                	add	s1,s1,1
   14006:	0421                	add	s0,s0,8
   14008:	9782                	jalr	a5
   1400a:	ff24ece3          	bltu	s1,s2,14002 <__libc_init_array+0x52>
   1400e:	60e2                	ld	ra,24(sp)
   14010:	6442                	ld	s0,16(sp)
   14012:	64a2                	ld	s1,8(sp)
   14014:	6902                	ld	s2,0(sp)
   14016:	6105                	add	sp,sp,32
   14018:	8082                	ret

000000000001401a <memset>:
   1401a:	433d                	li	t1,15
   1401c:	872a                	mv	a4,a0
   1401e:	02c37163          	bgeu	t1,a2,14040 <memset+0x26>
   14022:	00f77793          	and	a5,a4,15
   14026:	e3c1                	bnez	a5,140a6 <memset+0x8c>
   14028:	e1bd                	bnez	a1,1408e <memset+0x74>
   1402a:	ff067693          	and	a3,a2,-16
   1402e:	8a3d                	and	a2,a2,15
   14030:	96ba                	add	a3,a3,a4
   14032:	e30c                	sd	a1,0(a4)
   14034:	e70c                	sd	a1,8(a4)
   14036:	0741                	add	a4,a4,16
   14038:	fed76de3          	bltu	a4,a3,14032 <memset+0x18>
   1403c:	e211                	bnez	a2,14040 <memset+0x26>
   1403e:	8082                	ret
   14040:	40c306b3          	sub	a3,t1,a2
   14044:	068a                	sll	a3,a3,0x2
   14046:	00000297          	auipc	t0,0x0
   1404a:	9696                	add	a3,a3,t0
   1404c:	00a68067          	jr	10(a3)
   14050:	00b70723          	sb	a1,14(a4)
   14054:	00b706a3          	sb	a1,13(a4)
   14058:	00b70623          	sb	a1,12(a4)
   1405c:	00b705a3          	sb	a1,11(a4)
   14060:	00b70523          	sb	a1,10(a4)
   14064:	00b704a3          	sb	a1,9(a4)
   14068:	00b70423          	sb	a1,8(a4)
   1406c:	00b703a3          	sb	a1,7(a4)
   14070:	00b70323          	sb	a1,6(a4)
   14074:	00b702a3          	sb	a1,5(a4)
   14078:	00b70223          	sb	a1,4(a4)
   1407c:	00b701a3          	sb	a1,3(a4)
   14080:	00b70123          	sb	a1,2(a4)
   14084:	00b700a3          	sb	a1,1(a4)
   14088:	00b70023          	sb	a1,0(a4)
   1408c:	8082                	ret
   1408e:	0ff5f593          	zext.b	a1,a1
   14092:	00859693          	sll	a3,a1,0x8
