
xfer_get.exe:     file format elf64-littleriscv


Disassembly of section .text:

00000000000100b0 <_start>:
   100b0:	00009197          	auipc	gp,0x9
   100b4:	ea818193          	addi	gp,gp,-344 # 18f58 <__global_pointer$>
   100b8:	8b018513          	addi	a0,gp,-1872 # 18808 <_edata>
   100bc:	90818613          	addi	a2,gp,-1784 # 18860 <_end>
   100c0:	8e09                	sub	a2,a2,a0
   100c2:	4581                	li	a1,0
   100c4:	28e070ef          	jal	ra,17352 <memset>
   100c8:	00007517          	auipc	a0,0x7
   100cc:	1d450513          	addi	a0,a0,468 # 1729c <__libc_fini_array>
   100d0:	00007097          	auipc	ra,0x7
   100d4:	192080e7          	jalr	402(ra) # 17262 <atexit>
   100d8:	00007097          	auipc	ra,0x7
   100dc:	212080e7          	jalr	530(ra) # 172ea <__libc_init_array>
   100e0:	4502                	lw	a0,0(sp)
   100e2:	002c                	addi	a1,sp,8
   100e4:	4601                	li	a2,0
   100e6:	00000097          	auipc	ra,0x0
   100ea:	0c6080e7          	jalr	198(ra) # 101ac <main>
   100ee:	00007317          	auipc	t1,0x7
   100f2:	18a30067          	jr	394(t1) # 17278 <exit>

00000000000100f6 <_fini>:
   100f6:	8082                	ret

00000000000100f8 <deregister_tm_clones>:
   100f8:	6561                	lui	a0,0x18
   100fa:	67e1                	lui	a5,0x18
   100fc:	75850713          	addi	a4,a0,1880 # 18758 <__TMC_END__>
   10100:	75878793          	addi	a5,a5,1880 # 18758 <__TMC_END__>
   10104:	00e78b63          	beq	a5,a4,1011a <deregister_tm_clones+0x22>
   10108:	00000337          	lui	t1,0x0
   1010c:	00030313          	mv	t1,t1
   10110:	00030563          	beqz	t1,1011a <deregister_tm_clones+0x22>
   10114:	75850513          	addi	a0,a0,1880
   10118:	8302                	jr	t1
   1011a:	8082                	ret

000000000001011c <register_tm_clones>:
   1011c:	67e1                	lui	a5,0x18
   1011e:	6561                	lui	a0,0x18
   10120:	75878593          	addi	a1,a5,1880 # 18758 <__TMC_END__>
   10124:	75850793          	addi	a5,a0,1880 # 18758 <__TMC_END__>
   10128:	8d9d                	sub	a1,a1,a5
   1012a:	858d                	srai	a1,a1,0x3
   1012c:	4789                	li	a5,2
   1012e:	02f5c5b3          	div	a1,a1,a5
   10132:	c991                	beqz	a1,10146 <register_tm_clones+0x2a>
   10134:	00000337          	lui	t1,0x0
   10138:	00030313          	mv	t1,t1
   1013c:	00030563          	beqz	t1,10146 <register_tm_clones+0x2a>
   10140:	75850513          	addi	a0,a0,1880
   10144:	8302                	jr	t1
   10146:	8082                	ret

0000000000010148 <__do_global_dtors_aux>:
   10148:	8c01c703          	lbu	a4,-1856(gp) # 18818 <completed.5184>
   1014c:	eb15                	bnez	a4,10180 <__do_global_dtors_aux+0x38>
   1014e:	1141                	addi	sp,sp,-16
   10150:	e022                	sd	s0,0(sp)
   10152:	e406                	sd	ra,8(sp)
   10154:	843e                	mv	s0,a5
   10156:	fa3ff0ef          	jal	ra,100f8 <deregister_tm_clones>
   1015a:	000007b7          	lui	a5,0x0
   1015e:	00078793          	mv	a5,a5
   10162:	cb81                	beqz	a5,10172 <__do_global_dtors_aux+0x2a>
   10164:	6561                	lui	a0,0x18
   10166:	a3050513          	addi	a0,a0,-1488 # 17a30 <__EH_FRAME_BEGIN__>
   1016a:	ffff0097          	auipc	ra,0xffff0
   1016e:	e96080e7          	jalr	-362(ra) # 0 <_start-0x100b0>
   10172:	4785                	li	a5,1
   10174:	8cf18023          	sb	a5,-1856(gp) # 18818 <completed.5184>
   10178:	60a2                	ld	ra,8(sp)
   1017a:	6402                	ld	s0,0(sp)
   1017c:	0141                	addi	sp,sp,16
   1017e:	8082                	ret
   10180:	8082                	ret

0000000000010182 <frame_dummy>:
   10182:	000007b7          	lui	a5,0x0
   10186:	00078793          	mv	a5,a5
   1018a:	cf91                	beqz	a5,101a6 <frame_dummy+0x24>
   1018c:	6561                	lui	a0,0x18
   1018e:	1141                	addi	sp,sp,-16
   10190:	8c818593          	addi	a1,gp,-1848 # 18820 <object.5189>
   10194:	a3050513          	addi	a0,a0,-1488 # 17a30 <__EH_FRAME_BEGIN__>
   10198:	e406                	sd	ra,8(sp)
   1019a:	ffff0097          	auipc	ra,0xffff0
   1019e:	e66080e7          	jalr	-410(ra) # 0 <_start-0x100b0>
   101a2:	60a2                	ld	ra,8(sp)
   101a4:	0141                	addi	sp,sp,16
   101a6:	f77ff06f          	j	1011c <register_tm_clones>
	...

00000000000101ac <main>:
   101ac:	fc010113          	addi	sp,sp,-64
   101b0:	02113c23          	sd	ra,56(sp)
   101b4:	02813823          	sd	s0,48(sp)
   101b8:	04010413          	addi	s0,sp,64
   101bc:	00050793          	mv	a5,a0
   101c0:	fcb43023          	sd	a1,-64(s0)
   101c4:	fcf42623          	sw	a5,-52(s0)
   101c8:	fe043423          	sd	zero,-24(s0)
   101cc:	00800793          	li	a5,8
   101d0:	fef43023          	sd	a5,-32(s0)
   101d4:	000187b7          	lui	a5,0x18
   101d8:	91878513          	addi	a0,a5,-1768 # 17918 <_exit+0x1c>
   101dc:	00007097          	auipc	ra,0x7
   101e0:	a54080e7          	jalr	-1452(ra) # 16c30 <revprintf>
   101e4:	765050ef          	jal	ra,16148 <xbrtime_init>
   101e8:	17c060ef          	jal	ra,16364 <xbrtime_mype>
   101ec:	00050793          	mv	a5,a0
   101f0:	fcf42e23          	sw	a5,-36(s0)
   101f4:	00006097          	auipc	ra,0x6
   101f8:	186080e7          	jalr	390(ra) # 1637a <xbrtime_num_pes>
   101fc:	00050793          	mv	a5,a0
   10200:	fcf42c23          	sw	a5,-40(s0)
   10204:	00100793          	li	a5,1
   10208:	fcf42a23          	sw	a5,-44(s0)
   1020c:	fe043503          	ld	a0,-32(s0)
   10210:	5a4000ef          	jal	ra,107b4 <xbrtime_malloc>
   10214:	fea43423          	sd	a0,-24(s0)
   10218:	fdc42783          	lw	a5,-36(s0)
   1021c:	00a7879b          	addiw	a5,a5,10
   10220:	0007871b          	sext.w	a4,a5
   10224:	fe843783          	ld	a5,-24(s0)
   10228:	00e7a023          	sw	a4,0(a5)
   1022c:	fe843783          	ld	a5,-24(s0)
   10230:	0007a703          	lw	a4,0(a5)
   10234:	fdc42783          	lw	a5,-36(s0)
   10238:	00070613          	mv	a2,a4
   1023c:	00078593          	mv	a1,a5
   10240:	000187b7          	lui	a5,0x18
   10244:	93878513          	addi	a0,a5,-1736 # 17938 <_exit+0x3c>
   10248:	00007097          	auipc	ra,0x7
   1024c:	9e8080e7          	jalr	-1560(ra) # 16c30 <revprintf>
   10250:	539050ef          	jal	ra,15f88 <xbrtime_barrier>
   10254:	110060ef          	jal	ra,16364 <xbrtime_mype>
   10258:	00050793          	mv	a5,a0
   1025c:	04079463          	bnez	a5,102a4 <main+0xf8>
   10260:	104060ef          	jal	ra,16364 <xbrtime_mype>
   10264:	00050793          	mv	a5,a0
   10268:	00078713          	mv	a4,a5
   1026c:	fd442783          	lw	a5,-44(s0)
   10270:	00078613          	mv	a2,a5
   10274:	00070593          	mv	a1,a4
   10278:	000187b7          	lui	a5,0x18
   1027c:	95878513          	addi	a0,a5,-1704 # 17958 <_exit+0x5c>
   10280:	00007097          	auipc	ra,0x7
   10284:	9b0080e7          	jalr	-1616(ra) # 16c30 <revprintf>
   10288:	fd442783          	lw	a5,-44(s0)
   1028c:	00078713          	mv	a4,a5
   10290:	00100693          	li	a3,1
   10294:	00100613          	li	a2,1
   10298:	fe843583          	ld	a1,-24(s0)
   1029c:	fe843503          	ld	a0,-24(s0)
   102a0:	10d040ef          	jal	ra,14bac <xbrtime_ulonglong_get>
   102a4:	4e5050ef          	jal	ra,15f88 <xbrtime_barrier>
   102a8:	fe843783          	ld	a5,-24(s0)
   102ac:	0007a703          	lw	a4,0(a5)
   102b0:	fdc42783          	lw	a5,-36(s0)
   102b4:	00070613          	mv	a2,a4
   102b8:	00078593          	mv	a1,a5
   102bc:	000187b7          	lui	a5,0x18
   102c0:	97878513          	addi	a0,a5,-1672 # 17978 <_exit+0x7c>
   102c4:	00007097          	auipc	ra,0x7
   102c8:	96c080e7          	jalr	-1684(ra) # 16c30 <revprintf>
   102cc:	fe843503          	ld	a0,-24(s0)
   102d0:	00000097          	auipc	ra,0x0
   102d4:	51c080e7          	jalr	1308(ra) # 107ec <xbrtime_free>
   102d8:	00006097          	auipc	ra,0x6
   102dc:	004080e7          	jalr	4(ra) # 162dc <xbrtime_close>
   102e0:	00000793          	li	a5,0
   102e4:	00078513          	mv	a0,a5
   102e8:	03813083          	ld	ra,56(sp)
   102ec:	03013403          	ld	s0,48(sp)
   102f0:	04010113          	addi	sp,sp,64
   102f4:	00008067          	ret
	...

00000000000102fa <revmalloc>:
   102fa:	7139                	addi	sp,sp,-64
   102fc:	fc06                	sd	ra,56(sp)
   102fe:	f822                	sd	s0,48(sp)
   10300:	0080                	addi	s0,sp,64
   10302:	fca43423          	sd	a0,-56(s0)
   10306:	200007b7          	lui	a5,0x20000
   1030a:	fef42223          	sw	a5,-28(s0)
   1030e:	8b01b783          	ld	a5,-1872(gp) # 18808 <_edata>
   10312:	c7f1                	beqz	a5,103de <revmalloc+0xe4>
   10314:	8b01b783          	ld	a5,-1872(gp) # 18808 <_edata>
   10318:	fef43423          	sd	a5,-24(s0)
   1031c:	a055                	j	103c0 <revmalloc+0xc6>
   1031e:	fe843783          	ld	a5,-24(s0)
   10322:	4f9c                	lw	a5,24(a5)
   10324:	cbc9                	beqz	a5,103b6 <revmalloc+0xbc>
   10326:	fe843783          	ld	a5,-24(s0)
   1032a:	6b9c                	ld	a5,16(a5)
   1032c:	fc843703          	ld	a4,-56(s0)
   10330:	08e7e363          	bltu	a5,a4,103b6 <revmalloc+0xbc>
   10334:	fe843783          	ld	a5,-24(s0)
   10338:	6b98                	ld	a4,16(a5)
   1033a:	fc843783          	ld	a5,-56(s0)
   1033e:	02078793          	addi	a5,a5,32 # 20000020 <__global_pointer$+0x1ffe70c8>
   10342:	06e7f163          	bleu	a4,a5,103a4 <revmalloc+0xaa>
   10346:	fc843783          	ld	a5,-56(s0)
   1034a:	02078793          	addi	a5,a5,32
   1034e:	0796                	slli	a5,a5,0x5
   10350:	fe843703          	ld	a4,-24(s0)
   10354:	97ba                	add	a5,a5,a4
   10356:	fcf43c23          	sd	a5,-40(s0)
   1035a:	fe843783          	ld	a5,-24(s0)
   1035e:	6b98                	ld	a4,16(a5)
   10360:	fc843783          	ld	a5,-56(s0)
   10364:	40f707b3          	sub	a5,a4,a5
   10368:	fe078713          	addi	a4,a5,-32
   1036c:	fd843783          	ld	a5,-40(s0)
   10370:	eb98                	sd	a4,16(a5)
   10372:	fd843783          	ld	a5,-40(s0)
   10376:	4705                	li	a4,1
   10378:	cf98                	sw	a4,24(a5)
   1037a:	fd843783          	ld	a5,-40(s0)
   1037e:	fe843703          	ld	a4,-24(s0)
   10382:	e798                	sd	a4,8(a5)
   10384:	fe843783          	ld	a5,-24(s0)
   10388:	6398                	ld	a4,0(a5)
   1038a:	fd843783          	ld	a5,-40(s0)
   1038e:	e398                	sd	a4,0(a5)
   10390:	fe843783          	ld	a5,-24(s0)
   10394:	fc843703          	ld	a4,-56(s0)
   10398:	eb98                	sd	a4,16(a5)
   1039a:	fe843783          	ld	a5,-24(s0)
   1039e:	fd843703          	ld	a4,-40(s0)
   103a2:	e398                	sd	a4,0(a5)
   103a4:	fe843783          	ld	a5,-24(s0)
   103a8:	0007ac23          	sw	zero,24(a5)
   103ac:	fe843783          	ld	a5,-24(s0)
   103b0:	02078793          	addi	a5,a5,32
   103b4:	a865                	j	1046c <revmalloc+0x172>
   103b6:	fe843783          	ld	a5,-24(s0)
   103ba:	639c                	ld	a5,0(a5)
   103bc:	fef43423          	sd	a5,-24(s0)
   103c0:	fe843783          	ld	a5,-24(s0)
   103c4:	ffa9                	bnez	a5,1031e <revmalloc+0x24>
   103c6:	fe843783          	ld	a5,-24(s0)
   103ca:	e3cd                	bnez	a5,1046c <revmalloc+0x172>
   103cc:	67e1                	lui	a5,0x18
   103ce:	99878513          	addi	a0,a5,-1640 # 17998 <_exit+0x9c>
   103d2:	00007097          	auipc	ra,0x7
   103d6:	85e080e7          	jalr	-1954(ra) # 16c30 <revprintf>
   103da:	4781                	li	a5,0
   103dc:	a841                	j	1046c <revmalloc+0x172>
   103de:	3fffd7b7          	lui	a5,0x3fffd
   103e2:	0d878793          	addi	a5,a5,216 # 3fffd0d8 <__global_pointer$+0x3ffe4180>
   103e6:	639c                	ld	a5,0(a5)
   103e8:	fef43423          	sd	a5,-24(s0)
   103ec:	fe843783          	ld	a5,-24(s0)
   103f0:	fc843703          	ld	a4,-56(s0)
   103f4:	eb98                	sd	a4,16(a5)
   103f6:	fe843783          	ld	a5,-24(s0)
   103fa:	0007ac23          	sw	zero,24(a5)
   103fe:	fe843783          	ld	a5,-24(s0)
   10402:	0007b423          	sd	zero,8(a5)
   10406:	fc843783          	ld	a5,-56(s0)
   1040a:	02078793          	addi	a5,a5,32
   1040e:	fe843703          	ld	a4,-24(s0)
   10412:	97ba                	add	a5,a5,a4
   10414:	fcf43c23          	sd	a5,-40(s0)
   10418:	fe442703          	lw	a4,-28(s0)
   1041c:	fc843783          	ld	a5,-56(s0)
   10420:	2781                	sext.w	a5,a5
   10422:	40f707bb          	subw	a5,a4,a5
   10426:	2781                	sext.w	a5,a5
   10428:	3781                	addiw	a5,a5,-32
   1042a:	2781                	sext.w	a5,a5
   1042c:	2781                	sext.w	a5,a5
   1042e:	873e                	mv	a4,a5
   10430:	fd843783          	ld	a5,-40(s0)
   10434:	eb98                	sd	a4,16(a5)
   10436:	fd843783          	ld	a5,-40(s0)
   1043a:	4705                	li	a4,1
   1043c:	cf98                	sw	a4,24(a5)
   1043e:	fd843783          	ld	a5,-40(s0)
   10442:	fe843703          	ld	a4,-24(s0)
   10446:	e798                	sd	a4,8(a5)
   10448:	fd843783          	ld	a5,-40(s0)
   1044c:	0007b023          	sd	zero,0(a5)
   10450:	fe843783          	ld	a5,-24(s0)
   10454:	fd843703          	ld	a4,-40(s0)
   10458:	e398                	sd	a4,0(a5)
   1045a:	fe843703          	ld	a4,-24(s0)
   1045e:	8ae1b823          	sd	a4,-1872(gp) # 18808 <_edata>
   10462:	fe843783          	ld	a5,-24(s0)
   10466:	02078793          	addi	a5,a5,32
   1046a:	a009                	j	1046c <revmalloc+0x172>
   1046c:	853e                	mv	a0,a5
   1046e:	70e2                	ld	ra,56(sp)
   10470:	7442                	ld	s0,48(sp)
   10472:	6121                	addi	sp,sp,64
   10474:	8082                	ret

0000000000010476 <revfree>:
   10476:	7139                	addi	sp,sp,-64
   10478:	fc22                	sd	s0,56(sp)
   1047a:	0080                	addi	s0,sp,64
   1047c:	fca43423          	sd	a0,-56(s0)
   10480:	fc843783          	ld	a5,-56(s0)
   10484:	fef43023          	sd	a5,-32(s0)
   10488:	fc843783          	ld	a5,-56(s0)
   1048c:	c3f1                	beqz	a5,10550 <revfree+0xda>
   1048e:	8b01b783          	ld	a5,-1872(gp) # 18808 <_edata>
   10492:	c3e9                	beqz	a5,10554 <revfree+0xde>
   10494:	fe043783          	ld	a5,-32(s0)
   10498:	1781                	addi	a5,a5,-32
   1049a:	fcf43c23          	sd	a5,-40(s0)
   1049e:	fd843783          	ld	a5,-40(s0)
   104a2:	679c                	ld	a5,8(a5)
   104a4:	fcf43823          	sd	a5,-48(s0)
   104a8:	fd843783          	ld	a5,-40(s0)
   104ac:	4705                	li	a4,1
   104ae:	cf98                	sw	a4,24(a5)
   104b0:	fe043423          	sd	zero,-24(s0)
   104b4:	a829                	j	104ce <revfree+0x58>
   104b6:	fe043703          	ld	a4,-32(s0)
   104ba:	fe843783          	ld	a5,-24(s0)
   104be:	97ba                	add	a5,a5,a4
   104c0:	00078023          	sb	zero,0(a5)
   104c4:	fe843783          	ld	a5,-24(s0)
   104c8:	0785                	addi	a5,a5,1
   104ca:	fef43423          	sd	a5,-24(s0)
   104ce:	fd843783          	ld	a5,-40(s0)
   104d2:	6b9c                	ld	a5,16(a5)
   104d4:	2781                	sext.w	a5,a5
   104d6:	873e                	mv	a4,a5
   104d8:	fe843783          	ld	a5,-24(s0)
   104dc:	fce7ede3          	bltu	a5,a4,104b6 <revfree+0x40>
   104e0:	a02d                	j	1050a <revfree+0x94>
   104e2:	fd843783          	ld	a5,-40(s0)
   104e6:	6b98                	ld	a4,16(a5)
   104e8:	fd843783          	ld	a5,-40(s0)
   104ec:	639c                	ld	a5,0(a5)
   104ee:	6b9c                	ld	a5,16(a5)
   104f0:	97ba                	add	a5,a5,a4
   104f2:	02078713          	addi	a4,a5,32
   104f6:	fd843783          	ld	a5,-40(s0)
   104fa:	eb98                	sd	a4,16(a5)
   104fc:	fd843783          	ld	a5,-40(s0)
   10500:	639c                	ld	a5,0(a5)
   10502:	6398                	ld	a4,0(a5)
   10504:	fd843783          	ld	a5,-40(s0)
   10508:	e398                	sd	a4,0(a5)
   1050a:	fd843783          	ld	a5,-40(s0)
   1050e:	639c                	ld	a5,0(a5)
   10510:	c791                	beqz	a5,1051c <revfree+0xa6>
   10512:	fd843783          	ld	a5,-40(s0)
   10516:	639c                	ld	a5,0(a5)
   10518:	4f9c                	lw	a5,24(a5)
   1051a:	f7e1                	bnez	a5,104e2 <revfree+0x6c>
   1051c:	fd043783          	ld	a5,-48(s0)
   10520:	cb9d                	beqz	a5,10556 <revfree+0xe0>
   10522:	fd043783          	ld	a5,-48(s0)
   10526:	4f9c                	lw	a5,24(a5)
   10528:	c79d                	beqz	a5,10556 <revfree+0xe0>
   1052a:	fd043783          	ld	a5,-48(s0)
   1052e:	6b98                	ld	a4,16(a5)
   10530:	fd843783          	ld	a5,-40(s0)
   10534:	6b9c                	ld	a5,16(a5)
   10536:	97ba                	add	a5,a5,a4
   10538:	02078713          	addi	a4,a5,32
   1053c:	fd043783          	ld	a5,-48(s0)
   10540:	eb98                	sd	a4,16(a5)
   10542:	fd843783          	ld	a5,-40(s0)
   10546:	6398                	ld	a4,0(a5)
   10548:	fd043783          	ld	a5,-48(s0)
   1054c:	e398                	sd	a4,0(a5)
   1054e:	a021                	j	10556 <revfree+0xe0>
   10550:	0001                	nop
   10552:	a011                	j	10556 <revfree+0xe0>
   10554:	0001                	nop
   10556:	7462                	ld	s0,56(sp)
   10558:	6121                	addi	sp,sp,64
   1055a:	8082                	ret

000000000001055c <__xbrtime_shared_malloc>:
   1055c:	7139                	addi	sp,sp,-64
   1055e:	fc06                	sd	ra,56(sp)
   10560:	f822                	sd	s0,48(sp)
   10562:	0080                	addi	s0,sp,64
   10564:	fca43423          	sd	a0,-56(s0)
   10568:	fc043c23          	sd	zero,-40(s0)
   1056c:	57fd                	li	a5,-1
   1056e:	fef42623          	sw	a5,-20(s0)
   10572:	fe042423          	sw	zero,-24(s0)
   10576:	fe042223          	sw	zero,-28(s0)
   1057a:	fc843783          	ld	a5,-56(s0)
   1057e:	079d                	addi	a5,a5,7
   10580:	9be1                	andi	a5,a5,-8
   10582:	fcf43423          	sd	a5,-56(s0)
   10586:	a0a9                	j	105d0 <__xbrtime_shared_malloc+0x74>
   10588:	fe842783          	lw	a5,-24(s0)
   1058c:	0047979b          	slliw	a5,a5,0x4
   10590:	2781                	sext.w	a5,a5
   10592:	27a1                	addiw	a5,a5,8
   10594:	2781                	sext.w	a5,a5
   10596:	873e                	mv	a4,a5
   10598:	3fff07b7          	lui	a5,0x3fff0
   1059c:	0c878793          	addi	a5,a5,200 # 3fff00c8 <__global_pointer$+0x3ffd7170>
   105a0:	97ba                	add	a5,a5,a4
   105a2:	639c                	ld	a5,0(a5)
   105a4:	eb81                	bnez	a5,105b4 <__xbrtime_shared_malloc+0x58>
   105a6:	fe842783          	lw	a5,-24(s0)
   105aa:	fef42623          	sw	a5,-20(s0)
   105ae:	4785                	li	a5,1
   105b0:	fef42223          	sw	a5,-28(s0)
   105b4:	fe842783          	lw	a5,-24(s0)
   105b8:	2785                	addiw	a5,a5,1
   105ba:	fef42423          	sw	a5,-24(s0)
   105be:	fe842783          	lw	a5,-24(s0)
   105c2:	8007879b          	addiw	a5,a5,-2048
   105c6:	2781                	sext.w	a5,a5
   105c8:	e781                	bnez	a5,105d0 <__xbrtime_shared_malloc+0x74>
   105ca:	4785                	li	a5,1
   105cc:	fef42223          	sw	a5,-28(s0)
   105d0:	fec42783          	lw	a5,-20(s0)
   105d4:	0007871b          	sext.w	a4,a5
   105d8:	57fd                	li	a5,-1
   105da:	00f71963          	bne	a4,a5,105ec <__xbrtime_shared_malloc+0x90>
   105de:	fe442783          	lw	a5,-28(s0)
   105e2:	0007871b          	sext.w	a4,a5
   105e6:	4785                	li	a5,1
   105e8:	faf710e3          	bne	a4,a5,10588 <__xbrtime_shared_malloc+0x2c>
   105ec:	fec42783          	lw	a5,-20(s0)
   105f0:	0007871b          	sext.w	a4,a5
   105f4:	57fd                	li	a5,-1
   105f6:	00f71463          	bne	a4,a5,105fe <__xbrtime_shared_malloc+0xa2>
   105fa:	4781                	li	a5,0
   105fc:	a059                	j	10682 <__xbrtime_shared_malloc+0x126>
   105fe:	fc843503          	ld	a0,-56(s0)
   10602:	cf9ff0ef          	jal	ra,102fa <revmalloc>
   10606:	fca43c23          	sd	a0,-40(s0)
   1060a:	fd843783          	ld	a5,-40(s0)
   1060e:	e399                	bnez	a5,10614 <__xbrtime_shared_malloc+0xb8>
   10610:	4781                	li	a5,0
   10612:	a885                	j	10682 <__xbrtime_shared_malloc+0x126>
   10614:	fec42783          	lw	a5,-20(s0)
   10618:	0047979b          	slliw	a5,a5,0x4
   1061c:	2781                	sext.w	a5,a5
   1061e:	27a1                	addiw	a5,a5,8
   10620:	2781                	sext.w	a5,a5
   10622:	873e                	mv	a4,a5
   10624:	3fff07b7          	lui	a5,0x3fff0
   10628:	0c878793          	addi	a5,a5,200 # 3fff00c8 <__global_pointer$+0x3ffd7170>
   1062c:	97ba                	add	a5,a5,a4
   1062e:	873e                	mv	a4,a5
   10630:	fc843783          	ld	a5,-56(s0)
   10634:	e31c                	sd	a5,0(a4)
   10636:	fec42783          	lw	a5,-20(s0)
   1063a:	0047979b          	slliw	a5,a5,0x4
   1063e:	2781                	sext.w	a5,a5
   10640:	873e                	mv	a4,a5
   10642:	3fff07b7          	lui	a5,0x3fff0
   10646:	0c878793          	addi	a5,a5,200 # 3fff00c8 <__global_pointer$+0x3ffd7170>
   1064a:	97ba                	add	a5,a5,a4
   1064c:	873e                	mv	a4,a5
   1064e:	fd843783          	ld	a5,-40(s0)
   10652:	e31c                	sd	a5,0(a4)
   10654:	3fff07b7          	lui	a5,0x3fff0
   10658:	07c1                	addi	a5,a5,16
   1065a:	639c                	ld	a5,0(a5)
   1065c:	fcf43823          	sd	a5,-48(s0)
   10660:	fc843703          	ld	a4,-56(s0)
   10664:	fd043783          	ld	a5,-48(s0)
   10668:	973e                	add	a4,a4,a5
   1066a:	3fff07b7          	lui	a5,0x3fff0
   1066e:	07c1                	addi	a5,a5,16
   10670:	e398                	sd	a4,0(a5)
   10672:	3fff07b7          	lui	a5,0x3fff0
   10676:	07e1                	addi	a5,a5,24
   10678:	fd843703          	ld	a4,-40(s0)
   1067c:	e398                	sd	a4,0(a5)
   1067e:	fd843783          	ld	a5,-40(s0)
   10682:	853e                	mv	a0,a5
   10684:	70e2                	ld	ra,56(sp)
   10686:	7442                	ld	s0,48(sp)
   10688:	6121                	addi	sp,sp,64
   1068a:	8082                	ret

000000000001068c <__xbrtime_shared_free>:
   1068c:	7139                	addi	sp,sp,-64
   1068e:	fc06                	sd	ra,56(sp)
   10690:	f822                	sd	s0,48(sp)
   10692:	0080                	addi	s0,sp,64
   10694:	fca43423          	sd	a0,-56(s0)
   10698:	fc843783          	ld	a5,-56(s0)
   1069c:	fef43023          	sd	a5,-32(s0)
   106a0:	fe042623          	sw	zero,-20(s0)
   106a4:	fe042623          	sw	zero,-20(s0)
   106a8:	a8d5                	j	1079c <__xbrtime_shared_free+0x110>
   106aa:	fec42783          	lw	a5,-20(s0)
   106ae:	0047979b          	slliw	a5,a5,0x4
   106b2:	2781                	sext.w	a5,a5
   106b4:	873e                	mv	a4,a5
   106b6:	3fff07b7          	lui	a5,0x3fff0
   106ba:	0c878793          	addi	a5,a5,200 # 3fff00c8 <__global_pointer$+0x3ffd7170>
   106be:	97ba                	add	a5,a5,a4
   106c0:	639c                	ld	a5,0(a5)
   106c2:	fe043703          	ld	a4,-32(s0)
   106c6:	0cf76663          	bltu	a4,a5,10792 <__xbrtime_shared_free+0x106>
   106ca:	fec42783          	lw	a5,-20(s0)
   106ce:	0047979b          	slliw	a5,a5,0x4
   106d2:	2781                	sext.w	a5,a5
   106d4:	873e                	mv	a4,a5
   106d6:	3fff07b7          	lui	a5,0x3fff0
   106da:	0c878793          	addi	a5,a5,200 # 3fff00c8 <__global_pointer$+0x3ffd7170>
   106de:	97ba                	add	a5,a5,a4
   106e0:	6398                	ld	a4,0(a5)
   106e2:	fec42783          	lw	a5,-20(s0)
   106e6:	0047979b          	slliw	a5,a5,0x4
   106ea:	2781                	sext.w	a5,a5
   106ec:	27a1                	addiw	a5,a5,8
   106ee:	2781                	sext.w	a5,a5
   106f0:	86be                	mv	a3,a5
   106f2:	3fff07b7          	lui	a5,0x3fff0
   106f6:	0c878793          	addi	a5,a5,200 # 3fff00c8 <__global_pointer$+0x3ffd7170>
   106fa:	97b6                	add	a5,a5,a3
   106fc:	639c                	ld	a5,0(a5)
   106fe:	97ba                	add	a5,a5,a4
   10700:	fe043703          	ld	a4,-32(s0)
   10704:	08f77763          	bleu	a5,a4,10792 <__xbrtime_shared_free+0x106>
   10708:	fc843503          	ld	a0,-56(s0)
   1070c:	d6bff0ef          	jal	ra,10476 <revfree>
   10710:	3fff07b7          	lui	a5,0x3fff0
   10714:	07c1                	addi	a5,a5,16
   10716:	639c                	ld	a5,0(a5)
   10718:	fcf43c23          	sd	a5,-40(s0)
   1071c:	fec42783          	lw	a5,-20(s0)
   10720:	0047979b          	slliw	a5,a5,0x4
   10724:	2781                	sext.w	a5,a5
   10726:	27a1                	addiw	a5,a5,8
   10728:	2781                	sext.w	a5,a5
   1072a:	873e                	mv	a4,a5
   1072c:	3fff07b7          	lui	a5,0x3fff0
   10730:	0c878793          	addi	a5,a5,200 # 3fff00c8 <__global_pointer$+0x3ffd7170>
   10734:	97ba                	add	a5,a5,a4
   10736:	639c                	ld	a5,0(a5)
   10738:	fcf43823          	sd	a5,-48(s0)
   1073c:	fd843703          	ld	a4,-40(s0)
   10740:	fd043783          	ld	a5,-48(s0)
   10744:	8f1d                	sub	a4,a4,a5
   10746:	3fff07b7          	lui	a5,0x3fff0
   1074a:	07c1                	addi	a5,a5,16
   1074c:	e398                	sd	a4,0(a5)
   1074e:	3fff07b7          	lui	a5,0x3fff0
   10752:	07e1                	addi	a5,a5,24
   10754:	0007b023          	sd	zero,0(a5) # 3fff0000 <__global_pointer$+0x3ffd70a8>
   10758:	fec42783          	lw	a5,-20(s0)
   1075c:	0047979b          	slliw	a5,a5,0x4
   10760:	2781                	sext.w	a5,a5
   10762:	873e                	mv	a4,a5
   10764:	3fff07b7          	lui	a5,0x3fff0
   10768:	0c878793          	addi	a5,a5,200 # 3fff00c8 <__global_pointer$+0x3ffd7170>
   1076c:	97ba                	add	a5,a5,a4
   1076e:	0007b023          	sd	zero,0(a5)
   10772:	fec42783          	lw	a5,-20(s0)
   10776:	0047979b          	slliw	a5,a5,0x4
   1077a:	2781                	sext.w	a5,a5
   1077c:	27a1                	addiw	a5,a5,8
   1077e:	2781                	sext.w	a5,a5
   10780:	873e                	mv	a4,a5
   10782:	3fff07b7          	lui	a5,0x3fff0
   10786:	0c878793          	addi	a5,a5,200 # 3fff00c8 <__global_pointer$+0x3ffd7170>
   1078a:	97ba                	add	a5,a5,a4
   1078c:	0007b023          	sd	zero,0(a5)
   10790:	a831                	j	107ac <__xbrtime_shared_free+0x120>
   10792:	fec42783          	lw	a5,-20(s0)
   10796:	2785                	addiw	a5,a5,1
   10798:	fef42623          	sw	a5,-20(s0)
   1079c:	fec42783          	lw	a5,-20(s0)
   107a0:	0007871b          	sext.w	a4,a5
   107a4:	7ff00793          	li	a5,2047
   107a8:	f0e7d1e3          	ble	a4,a5,106aa <__xbrtime_shared_free+0x1e>
   107ac:	70e2                	ld	ra,56(sp)
   107ae:	7442                	ld	s0,48(sp)
   107b0:	6121                	addi	sp,sp,64
   107b2:	8082                	ret

00000000000107b4 <xbrtime_malloc>:
   107b4:	7179                	addi	sp,sp,-48
   107b6:	f406                	sd	ra,40(sp)
   107b8:	f022                	sd	s0,32(sp)
   107ba:	1800                	addi	s0,sp,48
   107bc:	fca43c23          	sd	a0,-40(s0)
   107c0:	fe043423          	sd	zero,-24(s0)
   107c4:	fd843783          	ld	a5,-40(s0)
   107c8:	e399                	bnez	a5,107ce <xbrtime_malloc+0x1a>
   107ca:	4781                	li	a5,0
   107cc:	a819                	j	107e2 <xbrtime_malloc+0x2e>
   107ce:	fd843503          	ld	a0,-40(s0)
   107d2:	d8bff0ef          	jal	ra,1055c <__xbrtime_shared_malloc>
   107d6:	fea43423          	sd	a0,-24(s0)
   107da:	77a060ef          	jal	ra,16f54 <__xbrtime_asm_quiet_fence>
   107de:	fe843783          	ld	a5,-24(s0)
   107e2:	853e                	mv	a0,a5
   107e4:	70a2                	ld	ra,40(sp)
   107e6:	7402                	ld	s0,32(sp)
   107e8:	6145                	addi	sp,sp,48
   107ea:	8082                	ret

00000000000107ec <xbrtime_free>:
   107ec:	1101                	addi	sp,sp,-32
   107ee:	ec06                	sd	ra,24(sp)
   107f0:	e822                	sd	s0,16(sp)
   107f2:	1000                	addi	s0,sp,32
   107f4:	fea43423          	sd	a0,-24(s0)
   107f8:	fe843783          	ld	a5,-24(s0)
   107fc:	cb91                	beqz	a5,10810 <xbrtime_free+0x24>
   107fe:	fe843503          	ld	a0,-24(s0)
   10802:	e8bff0ef          	jal	ra,1068c <__xbrtime_shared_free>
   10806:	00006097          	auipc	ra,0x6
   1080a:	74e080e7          	jalr	1870(ra) # 16f54 <__xbrtime_asm_quiet_fence>
   1080e:	a011                	j	10812 <xbrtime_free+0x26>
   10810:	0001                	nop
   10812:	60e2                	ld	ra,24(sp)
   10814:	6442                	ld	s0,16(sp)
   10816:	6105                	addi	sp,sp,32
   10818:	8082                	ret

000000000001081a <__xbrtime_ltor>:
   1081a:	7139                	addi	sp,sp,-64
   1081c:	fc06                	sd	ra,56(sp)
   1081e:	f822                	sd	s0,48(sp)
   10820:	0080                	addi	s0,sp,64
   10822:	fca43423          	sd	a0,-56(s0)
   10826:	87ae                	mv	a5,a1
   10828:	fcf42223          	sw	a5,-60(s0)
   1082c:	fe042623          	sw	zero,-20(s0)
   10830:	fe043023          	sd	zero,-32(s0)
   10834:	fc043c23          	sd	zero,-40(s0)
   10838:	fc043823          	sd	zero,-48(s0)
   1083c:	329050ef          	jal	ra,16364 <xbrtime_mype>
   10840:	87aa                	mv	a5,a0
   10842:	873e                	mv	a4,a5
   10844:	fc442783          	lw	a5,-60(s0)
   10848:	2781                	sext.w	a5,a5
   1084a:	00e79563          	bne	a5,a4,10854 <__xbrtime_ltor+0x3a>
   1084e:	fc843783          	ld	a5,-56(s0)
   10852:	a0e5                	j	1093a <__xbrtime_ltor+0x120>
   10854:	fe042623          	sw	zero,-20(s0)
   10858:	a8c1                	j	10928 <__xbrtime_ltor+0x10e>
   1085a:	fec42783          	lw	a5,-20(s0)
   1085e:	0047979b          	slliw	a5,a5,0x4
   10862:	2781                	sext.w	a5,a5
   10864:	873e                	mv	a4,a5
   10866:	3fff07b7          	lui	a5,0x3fff0
   1086a:	0c878793          	addi	a5,a5,200 # 3fff00c8 <__global_pointer$+0x3ffd7170>
   1086e:	97ba                	add	a5,a5,a4
   10870:	639c                	ld	a5,0(a5)
   10872:	fc843703          	ld	a4,-56(s0)
   10876:	0af76463          	bltu	a4,a5,1091e <__xbrtime_ltor+0x104>
   1087a:	fec42783          	lw	a5,-20(s0)
   1087e:	0047979b          	slliw	a5,a5,0x4
   10882:	2781                	sext.w	a5,a5
   10884:	873e                	mv	a4,a5
   10886:	3fff07b7          	lui	a5,0x3fff0
   1088a:	0c878793          	addi	a5,a5,200 # 3fff00c8 <__global_pointer$+0x3ffd7170>
   1088e:	97ba                	add	a5,a5,a4
   10890:	6398                	ld	a4,0(a5)
   10892:	fec42783          	lw	a5,-20(s0)
   10896:	0047979b          	slliw	a5,a5,0x4
   1089a:	2781                	sext.w	a5,a5
   1089c:	27a1                	addiw	a5,a5,8
   1089e:	2781                	sext.w	a5,a5
   108a0:	86be                	mv	a3,a5
   108a2:	3fff07b7          	lui	a5,0x3fff0
   108a6:	0c878793          	addi	a5,a5,200 # 3fff00c8 <__global_pointer$+0x3ffd7170>
   108aa:	97b6                	add	a5,a5,a3
   108ac:	639c                	ld	a5,0(a5)
   108ae:	97ba                	add	a5,a5,a4
   108b0:	fc843703          	ld	a4,-56(s0)
   108b4:	06f77563          	bleu	a5,a4,1091e <__xbrtime_ltor+0x104>
   108b8:	fec42783          	lw	a5,-20(s0)
   108bc:	0047979b          	slliw	a5,a5,0x4
   108c0:	2781                	sext.w	a5,a5
   108c2:	873e                	mv	a4,a5
   108c4:	3fff07b7          	lui	a5,0x3fff0
   108c8:	0c878793          	addi	a5,a5,200 # 3fff00c8 <__global_pointer$+0x3ffd7170>
   108cc:	97ba                	add	a5,a5,a4
   108ce:	fef43023          	sd	a5,-32(s0)
   108d2:	fec42783          	lw	a5,-20(s0)
   108d6:	0047979b          	slliw	a5,a5,0x4
   108da:	2781                	sext.w	a5,a5
   108dc:	873e                	mv	a4,a5
   108de:	3fff07b7          	lui	a5,0x3fff0
   108e2:	0c878793          	addi	a5,a5,200 # 3fff00c8 <__global_pointer$+0x3ffd7170>
   108e6:	97ba                	add	a5,a5,a4
   108e8:	639c                	ld	a5,0(a5)
   108ea:	fc843703          	ld	a4,-56(s0)
   108ee:	40f707b3          	sub	a5,a4,a5
   108f2:	fcf43c23          	sd	a5,-40(s0)
   108f6:	fc442783          	lw	a5,-60(s0)
   108fa:	853e                	mv	a0,a5
   108fc:	297050ef          	jal	ra,16392 <xbrtime_decode_pe>
   10900:	87aa                	mv	a5,a0
   10902:	85be                	mv	a1,a5
   10904:	fe043503          	ld	a0,-32(s0)
   10908:	652060ef          	jal	ra,16f5a <__xbrtime_get_remote_alloc>
   1090c:	872a                	mv	a4,a0
   1090e:	fd843783          	ld	a5,-40(s0)
   10912:	97ba                	add	a5,a5,a4
   10914:	fcf43823          	sd	a5,-48(s0)
   10918:	fd043783          	ld	a5,-48(s0)
   1091c:	a839                	j	1093a <__xbrtime_ltor+0x120>
   1091e:	fec42783          	lw	a5,-20(s0)
   10922:	2785                	addiw	a5,a5,1
   10924:	fef42623          	sw	a5,-20(s0)
   10928:	fec42783          	lw	a5,-20(s0)
   1092c:	0007871b          	sext.w	a4,a5
   10930:	7ff00793          	li	a5,2047
   10934:	f2e7d3e3          	ble	a4,a5,1085a <__xbrtime_ltor+0x40>
   10938:	4781                	li	a5,0
   1093a:	853e                	mv	a0,a5
   1093c:	70e2                	ld	ra,56(sp)
   1093e:	7442                	ld	s0,48(sp)
   10940:	6121                	addi	sp,sp,64
   10942:	8082                	ret
	...

0000000000010946 <xbrtime_float_put>:
   10946:	7139                	addi	sp,sp,-64
   10948:	fc06                	sd	ra,56(sp)
   1094a:	f822                	sd	s0,48(sp)
   1094c:	f426                	sd	s1,40(sp)
   1094e:	f04a                	sd	s2,32(sp)
   10950:	0080                	addi	s0,sp,64
   10952:	fca43c23          	sd	a0,-40(s0)
   10956:	fcb43823          	sd	a1,-48(s0)
   1095a:	fcc43423          	sd	a2,-56(s0)
   1095e:	87b6                	mv	a5,a3
   10960:	fcf42223          	sw	a5,-60(s0)
   10964:	87ba                	mv	a5,a4
   10966:	fcf42023          	sw	a5,-64(s0)
   1096a:	fc843783          	ld	a5,-56(s0)
   1096e:	c7cd                	beqz	a5,10a18 <xbrtime_float_put+0xd2>
   10970:	fc442783          	lw	a5,-60(s0)
   10974:	0007871b          	sext.w	a4,a5
   10978:	4785                	li	a5,1
   1097a:	00f71763          	bne	a4,a5,10988 <xbrtime_float_put+0x42>
   1097e:	fc843703          	ld	a4,-56(s0)
   10982:	4785                	li	a5,1
   10984:	04f71563          	bne	a4,a5,109ce <xbrtime_float_put+0x88>
   10988:	fd043483          	ld	s1,-48(s0)
   1098c:	fd843783          	ld	a5,-40(s0)
   10990:	fc042703          	lw	a4,-64(s0)
   10994:	85ba                	mv	a1,a4
   10996:	853e                	mv	a0,a5
   10998:	e83ff0ef          	jal	ra,1081a <__xbrtime_ltor>
   1099c:	892a                	mv	s2,a0
   1099e:	fc042783          	lw	a5,-64(s0)
   109a2:	853e                	mv	a0,a5
   109a4:	1ef050ef          	jal	ra,16392 <xbrtime_decode_pe>
   109a8:	87aa                	mv	a5,a0
   109aa:	0007861b          	sext.w	a2,a5
   109ae:	fc843783          	ld	a5,-56(s0)
   109b2:	0007869b          	sext.w	a3,a5
   109b6:	fc442783          	lw	a5,-60(s0)
   109ba:	2781                	sext.w	a5,a5
   109bc:	0027979b          	slliw	a5,a5,0x2
   109c0:	2781                	sext.w	a5,a5
   109c2:	873e                	mv	a4,a5
   109c4:	85ca                	mv	a1,s2
   109c6:	8526                	mv	a0,s1
   109c8:	470060ef          	jal	ra,16e38 <__xbrtime_put_u4_seq>
   109cc:	a099                	j	10a12 <xbrtime_float_put+0xcc>
   109ce:	fd043483          	ld	s1,-48(s0)
   109d2:	fd843783          	ld	a5,-40(s0)
   109d6:	fc042703          	lw	a4,-64(s0)
   109da:	85ba                	mv	a1,a4
   109dc:	853e                	mv	a0,a5
   109de:	e3dff0ef          	jal	ra,1081a <__xbrtime_ltor>
   109e2:	892a                	mv	s2,a0
   109e4:	fc042783          	lw	a5,-64(s0)
   109e8:	853e                	mv	a0,a5
   109ea:	1a9050ef          	jal	ra,16392 <xbrtime_decode_pe>
   109ee:	87aa                	mv	a5,a0
   109f0:	0007861b          	sext.w	a2,a5
   109f4:	fc843783          	ld	a5,-56(s0)
   109f8:	0007869b          	sext.w	a3,a5
   109fc:	fc442783          	lw	a5,-60(s0)
   10a00:	2781                	sext.w	a5,a5
   10a02:	0027979b          	slliw	a5,a5,0x2
   10a06:	2781                	sext.w	a5,a5
   10a08:	873e                	mv	a4,a5
   10a0a:	85ca                	mv	a1,s2
   10a0c:	8526                	mv	a0,s1
   10a0e:	446060ef          	jal	ra,16e54 <__xbrtime_put_u4_agg>
   10a12:	53c060ef          	jal	ra,16f4e <__xbrtime_asm_fence>
   10a16:	a011                	j	10a1a <xbrtime_float_put+0xd4>
   10a18:	0001                	nop
   10a1a:	70e2                	ld	ra,56(sp)
   10a1c:	7442                	ld	s0,48(sp)
   10a1e:	74a2                	ld	s1,40(sp)
   10a20:	7902                	ld	s2,32(sp)
   10a22:	6121                	addi	sp,sp,64
   10a24:	8082                	ret

0000000000010a26 <xbrtime_float_put_nb>:
   10a26:	7139                	addi	sp,sp,-64
   10a28:	fc06                	sd	ra,56(sp)
   10a2a:	f822                	sd	s0,48(sp)
   10a2c:	f426                	sd	s1,40(sp)
   10a2e:	f04a                	sd	s2,32(sp)
   10a30:	0080                	addi	s0,sp,64
   10a32:	fca43c23          	sd	a0,-40(s0)
   10a36:	fcb43823          	sd	a1,-48(s0)
   10a3a:	fcc43423          	sd	a2,-56(s0)
   10a3e:	87b6                	mv	a5,a3
   10a40:	fcf42223          	sw	a5,-60(s0)
   10a44:	87ba                	mv	a5,a4
   10a46:	fcf42023          	sw	a5,-64(s0)
   10a4a:	fc843783          	ld	a5,-56(s0)
   10a4e:	cfdd                	beqz	a5,10b0c <xbrtime_float_put_nb+0xe6>
   10a50:	fc442783          	lw	a5,-60(s0)
   10a54:	0007871b          	sext.w	a4,a5
   10a58:	4785                	li	a5,1
   10a5a:	00f71763          	bne	a4,a5,10a68 <xbrtime_float_put_nb+0x42>
   10a5e:	fc843703          	ld	a4,-56(s0)
   10a62:	4785                	li	a5,1
   10a64:	04f71b63          	bne	a4,a5,10aba <xbrtime_float_put_nb+0x94>
   10a68:	fd043483          	ld	s1,-48(s0)
   10a6c:	fd843783          	ld	a5,-40(s0)
   10a70:	fc042703          	lw	a4,-64(s0)
   10a74:	85ba                	mv	a1,a4
   10a76:	853e                	mv	a0,a5
   10a78:	00000097          	auipc	ra,0x0
   10a7c:	da2080e7          	jalr	-606(ra) # 1081a <__xbrtime_ltor>
   10a80:	892a                	mv	s2,a0
   10a82:	fc042783          	lw	a5,-64(s0)
   10a86:	853e                	mv	a0,a5
   10a88:	00006097          	auipc	ra,0x6
   10a8c:	90a080e7          	jalr	-1782(ra) # 16392 <xbrtime_decode_pe>
   10a90:	87aa                	mv	a5,a0
   10a92:	0007861b          	sext.w	a2,a5
   10a96:	fc843783          	ld	a5,-56(s0)
   10a9a:	0007869b          	sext.w	a3,a5
   10a9e:	fc442783          	lw	a5,-60(s0)
   10aa2:	2781                	sext.w	a5,a5
   10aa4:	0027979b          	slliw	a5,a5,0x2
   10aa8:	2781                	sext.w	a5,a5
   10aaa:	873e                	mv	a4,a5
   10aac:	85ca                	mv	a1,s2
   10aae:	8526                	mv	a0,s1
   10ab0:	00006097          	auipc	ra,0x6
   10ab4:	388080e7          	jalr	904(ra) # 16e38 <__xbrtime_put_u4_seq>
   10ab8:	a899                	j	10b0e <xbrtime_float_put_nb+0xe8>
   10aba:	fd043483          	ld	s1,-48(s0)
   10abe:	fd843783          	ld	a5,-40(s0)
   10ac2:	fc042703          	lw	a4,-64(s0)
   10ac6:	85ba                	mv	a1,a4
   10ac8:	853e                	mv	a0,a5
   10aca:	00000097          	auipc	ra,0x0
   10ace:	d50080e7          	jalr	-688(ra) # 1081a <__xbrtime_ltor>
   10ad2:	892a                	mv	s2,a0
   10ad4:	fc042783          	lw	a5,-64(s0)
   10ad8:	853e                	mv	a0,a5
   10ada:	00006097          	auipc	ra,0x6
   10ade:	8b8080e7          	jalr	-1864(ra) # 16392 <xbrtime_decode_pe>
   10ae2:	87aa                	mv	a5,a0
   10ae4:	0007861b          	sext.w	a2,a5
   10ae8:	fc843783          	ld	a5,-56(s0)
   10aec:	0007869b          	sext.w	a3,a5
   10af0:	fc442783          	lw	a5,-60(s0)
   10af4:	2781                	sext.w	a5,a5
   10af6:	0027979b          	slliw	a5,a5,0x2
   10afa:	2781                	sext.w	a5,a5
   10afc:	873e                	mv	a4,a5
   10afe:	85ca                	mv	a1,s2
   10b00:	8526                	mv	a0,s1
   10b02:	00006097          	auipc	ra,0x6
   10b06:	352080e7          	jalr	850(ra) # 16e54 <__xbrtime_put_u4_agg>
   10b0a:	a011                	j	10b0e <xbrtime_float_put_nb+0xe8>
   10b0c:	0001                	nop
   10b0e:	70e2                	ld	ra,56(sp)
   10b10:	7442                	ld	s0,48(sp)
   10b12:	74a2                	ld	s1,40(sp)
   10b14:	7902                	ld	s2,32(sp)
   10b16:	6121                	addi	sp,sp,64
   10b18:	8082                	ret

0000000000010b1a <xbrtime_double_put>:
   10b1a:	7139                	addi	sp,sp,-64
   10b1c:	fc06                	sd	ra,56(sp)
   10b1e:	f822                	sd	s0,48(sp)
   10b20:	f426                	sd	s1,40(sp)
   10b22:	f04a                	sd	s2,32(sp)
   10b24:	0080                	addi	s0,sp,64
   10b26:	fca43c23          	sd	a0,-40(s0)
   10b2a:	fcb43823          	sd	a1,-48(s0)
   10b2e:	fcc43423          	sd	a2,-56(s0)
   10b32:	87b6                	mv	a5,a3
   10b34:	fcf42223          	sw	a5,-60(s0)
   10b38:	87ba                	mv	a5,a4
   10b3a:	fcf42023          	sw	a5,-64(s0)
   10b3e:	fc843783          	ld	a5,-56(s0)
   10b42:	c7cd                	beqz	a5,10bec <xbrtime_double_put+0xd2>
   10b44:	fc442783          	lw	a5,-60(s0)
   10b48:	0007871b          	sext.w	a4,a5
   10b4c:	4785                	li	a5,1
   10b4e:	00f71763          	bne	a4,a5,10b5c <xbrtime_double_put+0x42>
   10b52:	fc843703          	ld	a4,-56(s0)
   10b56:	4785                	li	a5,1
   10b58:	04f71563          	bne	a4,a5,10ba2 <xbrtime_double_put+0x88>
   10b5c:	fd043483          	ld	s1,-48(s0)
   10b60:	fd843783          	ld	a5,-40(s0)
   10b64:	fc042703          	lw	a4,-64(s0)
   10b68:	85ba                	mv	a1,a4
   10b6a:	853e                	mv	a0,a5
   10b6c:	cafff0ef          	jal	ra,1081a <__xbrtime_ltor>
   10b70:	892a                	mv	s2,a0
   10b72:	fc042783          	lw	a5,-64(s0)
   10b76:	853e                	mv	a0,a5
   10b78:	01b050ef          	jal	ra,16392 <xbrtime_decode_pe>
   10b7c:	87aa                	mv	a5,a0
   10b7e:	0007861b          	sext.w	a2,a5
   10b82:	fc843783          	ld	a5,-56(s0)
   10b86:	0007869b          	sext.w	a3,a5
   10b8a:	fc442783          	lw	a5,-60(s0)
   10b8e:	2781                	sext.w	a5,a5
   10b90:	0037979b          	slliw	a5,a5,0x3
   10b94:	2781                	sext.w	a5,a5
   10b96:	873e                	mv	a4,a5
   10b98:	85ca                	mv	a1,s2
   10b9a:	8526                	mv	a0,s1
   10b9c:	2c6060ef          	jal	ra,16e62 <__xbrtime_put_u8_seq>
   10ba0:	a099                	j	10be6 <xbrtime_double_put+0xcc>
   10ba2:	fd043483          	ld	s1,-48(s0)
   10ba6:	fd843783          	ld	a5,-40(s0)
   10baa:	fc042703          	lw	a4,-64(s0)
   10bae:	85ba                	mv	a1,a4
   10bb0:	853e                	mv	a0,a5
   10bb2:	c69ff0ef          	jal	ra,1081a <__xbrtime_ltor>
   10bb6:	892a                	mv	s2,a0
   10bb8:	fc042783          	lw	a5,-64(s0)
   10bbc:	853e                	mv	a0,a5
   10bbe:	7d4050ef          	jal	ra,16392 <xbrtime_decode_pe>
   10bc2:	87aa                	mv	a5,a0
   10bc4:	0007861b          	sext.w	a2,a5
   10bc8:	fc843783          	ld	a5,-56(s0)
   10bcc:	0007869b          	sext.w	a3,a5
   10bd0:	fc442783          	lw	a5,-60(s0)
   10bd4:	2781                	sext.w	a5,a5
   10bd6:	0037979b          	slliw	a5,a5,0x3
   10bda:	2781                	sext.w	a5,a5
   10bdc:	873e                	mv	a4,a5
   10bde:	85ca                	mv	a1,s2
   10be0:	8526                	mv	a0,s1
   10be2:	29c060ef          	jal	ra,16e7e <__xbrtime_put_u8_agg>
   10be6:	368060ef          	jal	ra,16f4e <__xbrtime_asm_fence>
   10bea:	a011                	j	10bee <xbrtime_double_put+0xd4>
   10bec:	0001                	nop
   10bee:	70e2                	ld	ra,56(sp)
   10bf0:	7442                	ld	s0,48(sp)
   10bf2:	74a2                	ld	s1,40(sp)
   10bf4:	7902                	ld	s2,32(sp)
   10bf6:	6121                	addi	sp,sp,64
   10bf8:	8082                	ret

0000000000010bfa <xbrtime_double_put_nb>:
   10bfa:	7139                	addi	sp,sp,-64
   10bfc:	fc06                	sd	ra,56(sp)
   10bfe:	f822                	sd	s0,48(sp)
   10c00:	f426                	sd	s1,40(sp)
   10c02:	f04a                	sd	s2,32(sp)
   10c04:	0080                	addi	s0,sp,64
   10c06:	fca43c23          	sd	a0,-40(s0)
   10c0a:	fcb43823          	sd	a1,-48(s0)
   10c0e:	fcc43423          	sd	a2,-56(s0)
   10c12:	87b6                	mv	a5,a3
   10c14:	fcf42223          	sw	a5,-60(s0)
   10c18:	87ba                	mv	a5,a4
   10c1a:	fcf42023          	sw	a5,-64(s0)
   10c1e:	fc843783          	ld	a5,-56(s0)
   10c22:	cfdd                	beqz	a5,10ce0 <xbrtime_double_put_nb+0xe6>
   10c24:	fc442783          	lw	a5,-60(s0)
   10c28:	0007871b          	sext.w	a4,a5
   10c2c:	4785                	li	a5,1
   10c2e:	00f71763          	bne	a4,a5,10c3c <xbrtime_double_put_nb+0x42>
   10c32:	fc843703          	ld	a4,-56(s0)
   10c36:	4785                	li	a5,1
   10c38:	04f71b63          	bne	a4,a5,10c8e <xbrtime_double_put_nb+0x94>
   10c3c:	fd043483          	ld	s1,-48(s0)
   10c40:	fd843783          	ld	a5,-40(s0)
   10c44:	fc042703          	lw	a4,-64(s0)
   10c48:	85ba                	mv	a1,a4
   10c4a:	853e                	mv	a0,a5
   10c4c:	00000097          	auipc	ra,0x0
   10c50:	bce080e7          	jalr	-1074(ra) # 1081a <__xbrtime_ltor>
   10c54:	892a                	mv	s2,a0
   10c56:	fc042783          	lw	a5,-64(s0)
   10c5a:	853e                	mv	a0,a5
   10c5c:	00005097          	auipc	ra,0x5
   10c60:	736080e7          	jalr	1846(ra) # 16392 <xbrtime_decode_pe>
   10c64:	87aa                	mv	a5,a0
   10c66:	0007861b          	sext.w	a2,a5
   10c6a:	fc843783          	ld	a5,-56(s0)
   10c6e:	0007869b          	sext.w	a3,a5
   10c72:	fc442783          	lw	a5,-60(s0)
   10c76:	2781                	sext.w	a5,a5
   10c78:	0037979b          	slliw	a5,a5,0x3
   10c7c:	2781                	sext.w	a5,a5
   10c7e:	873e                	mv	a4,a5
   10c80:	85ca                	mv	a1,s2
   10c82:	8526                	mv	a0,s1
   10c84:	00006097          	auipc	ra,0x6
   10c88:	1de080e7          	jalr	478(ra) # 16e62 <__xbrtime_put_u8_seq>
   10c8c:	a899                	j	10ce2 <xbrtime_double_put_nb+0xe8>
   10c8e:	fd043483          	ld	s1,-48(s0)
   10c92:	fd843783          	ld	a5,-40(s0)
   10c96:	fc042703          	lw	a4,-64(s0)
   10c9a:	85ba                	mv	a1,a4
   10c9c:	853e                	mv	a0,a5
   10c9e:	00000097          	auipc	ra,0x0
   10ca2:	b7c080e7          	jalr	-1156(ra) # 1081a <__xbrtime_ltor>
   10ca6:	892a                	mv	s2,a0
   10ca8:	fc042783          	lw	a5,-64(s0)
   10cac:	853e                	mv	a0,a5
   10cae:	00005097          	auipc	ra,0x5
   10cb2:	6e4080e7          	jalr	1764(ra) # 16392 <xbrtime_decode_pe>
   10cb6:	87aa                	mv	a5,a0
   10cb8:	0007861b          	sext.w	a2,a5
   10cbc:	fc843783          	ld	a5,-56(s0)
   10cc0:	0007869b          	sext.w	a3,a5
   10cc4:	fc442783          	lw	a5,-60(s0)
   10cc8:	2781                	sext.w	a5,a5
   10cca:	0037979b          	slliw	a5,a5,0x3
   10cce:	2781                	sext.w	a5,a5
   10cd0:	873e                	mv	a4,a5
   10cd2:	85ca                	mv	a1,s2
   10cd4:	8526                	mv	a0,s1
   10cd6:	00006097          	auipc	ra,0x6
   10cda:	1a8080e7          	jalr	424(ra) # 16e7e <__xbrtime_put_u8_agg>
   10cde:	a011                	j	10ce2 <xbrtime_double_put_nb+0xe8>
   10ce0:	0001                	nop
   10ce2:	70e2                	ld	ra,56(sp)
   10ce4:	7442                	ld	s0,48(sp)
   10ce6:	74a2                	ld	s1,40(sp)
   10ce8:	7902                	ld	s2,32(sp)
   10cea:	6121                	addi	sp,sp,64
   10cec:	8082                	ret

0000000000010cee <xbrtime_longdouble_put>:
   10cee:	7139                	addi	sp,sp,-64
   10cf0:	fc06                	sd	ra,56(sp)
   10cf2:	f822                	sd	s0,48(sp)
   10cf4:	f426                	sd	s1,40(sp)
   10cf6:	f04a                	sd	s2,32(sp)
   10cf8:	0080                	addi	s0,sp,64
   10cfa:	fca43c23          	sd	a0,-40(s0)
   10cfe:	fcb43823          	sd	a1,-48(s0)
   10d02:	fcc43423          	sd	a2,-56(s0)
   10d06:	87b6                	mv	a5,a3
   10d08:	fcf42223          	sw	a5,-60(s0)
   10d0c:	87ba                	mv	a5,a4
   10d0e:	fcf42023          	sw	a5,-64(s0)
   10d12:	fc843783          	ld	a5,-56(s0)
   10d16:	c7cd                	beqz	a5,10dc0 <xbrtime_longdouble_put+0xd2>
   10d18:	fc442783          	lw	a5,-60(s0)
   10d1c:	0007871b          	sext.w	a4,a5
   10d20:	4785                	li	a5,1
   10d22:	00f71763          	bne	a4,a5,10d30 <xbrtime_longdouble_put+0x42>
   10d26:	fc843703          	ld	a4,-56(s0)
   10d2a:	4785                	li	a5,1
   10d2c:	04f71563          	bne	a4,a5,10d76 <xbrtime_longdouble_put+0x88>
   10d30:	fd043483          	ld	s1,-48(s0)
   10d34:	fd843783          	ld	a5,-40(s0)
   10d38:	fc042703          	lw	a4,-64(s0)
   10d3c:	85ba                	mv	a1,a4
   10d3e:	853e                	mv	a0,a5
   10d40:	adbff0ef          	jal	ra,1081a <__xbrtime_ltor>
   10d44:	892a                	mv	s2,a0
   10d46:	fc042783          	lw	a5,-64(s0)
   10d4a:	853e                	mv	a0,a5
   10d4c:	646050ef          	jal	ra,16392 <xbrtime_decode_pe>
   10d50:	87aa                	mv	a5,a0
   10d52:	0007861b          	sext.w	a2,a5
   10d56:	fc843783          	ld	a5,-56(s0)
   10d5a:	0007869b          	sext.w	a3,a5
   10d5e:	fc442783          	lw	a5,-60(s0)
   10d62:	2781                	sext.w	a5,a5
   10d64:	0047979b          	slliw	a5,a5,0x4
   10d68:	2781                	sext.w	a5,a5
   10d6a:	873e                	mv	a4,a5
   10d6c:	85ca                	mv	a1,s2
   10d6e:	8526                	mv	a0,s1
   10d70:	0f2060ef          	jal	ra,16e62 <__xbrtime_put_u8_seq>
   10d74:	a099                	j	10dba <xbrtime_longdouble_put+0xcc>
   10d76:	fd043483          	ld	s1,-48(s0)
   10d7a:	fd843783          	ld	a5,-40(s0)
   10d7e:	fc042703          	lw	a4,-64(s0)
   10d82:	85ba                	mv	a1,a4
   10d84:	853e                	mv	a0,a5
   10d86:	a95ff0ef          	jal	ra,1081a <__xbrtime_ltor>
   10d8a:	892a                	mv	s2,a0
   10d8c:	fc042783          	lw	a5,-64(s0)
   10d90:	853e                	mv	a0,a5
   10d92:	600050ef          	jal	ra,16392 <xbrtime_decode_pe>
   10d96:	87aa                	mv	a5,a0
   10d98:	0007861b          	sext.w	a2,a5
   10d9c:	fc843783          	ld	a5,-56(s0)
   10da0:	0007869b          	sext.w	a3,a5
   10da4:	fc442783          	lw	a5,-60(s0)
   10da8:	2781                	sext.w	a5,a5
   10daa:	0047979b          	slliw	a5,a5,0x4
   10dae:	2781                	sext.w	a5,a5
   10db0:	873e                	mv	a4,a5
   10db2:	85ca                	mv	a1,s2
   10db4:	8526                	mv	a0,s1
   10db6:	0c8060ef          	jal	ra,16e7e <__xbrtime_put_u8_agg>
   10dba:	194060ef          	jal	ra,16f4e <__xbrtime_asm_fence>
   10dbe:	a011                	j	10dc2 <xbrtime_longdouble_put+0xd4>
   10dc0:	0001                	nop
   10dc2:	70e2                	ld	ra,56(sp)
   10dc4:	7442                	ld	s0,48(sp)
   10dc6:	74a2                	ld	s1,40(sp)
   10dc8:	7902                	ld	s2,32(sp)
   10dca:	6121                	addi	sp,sp,64
   10dcc:	8082                	ret

0000000000010dce <xbrtime_longdouble_put_nb>:
   10dce:	7139                	addi	sp,sp,-64
   10dd0:	fc06                	sd	ra,56(sp)
   10dd2:	f822                	sd	s0,48(sp)
   10dd4:	f426                	sd	s1,40(sp)
   10dd6:	f04a                	sd	s2,32(sp)
   10dd8:	0080                	addi	s0,sp,64
   10dda:	fca43c23          	sd	a0,-40(s0)
   10dde:	fcb43823          	sd	a1,-48(s0)
   10de2:	fcc43423          	sd	a2,-56(s0)
   10de6:	87b6                	mv	a5,a3
   10de8:	fcf42223          	sw	a5,-60(s0)
   10dec:	87ba                	mv	a5,a4
   10dee:	fcf42023          	sw	a5,-64(s0)
   10df2:	fc843783          	ld	a5,-56(s0)
   10df6:	cfdd                	beqz	a5,10eb4 <xbrtime_longdouble_put_nb+0xe6>
   10df8:	fc442783          	lw	a5,-60(s0)
   10dfc:	0007871b          	sext.w	a4,a5
   10e00:	4785                	li	a5,1
   10e02:	00f71763          	bne	a4,a5,10e10 <xbrtime_longdouble_put_nb+0x42>
   10e06:	fc843703          	ld	a4,-56(s0)
   10e0a:	4785                	li	a5,1
   10e0c:	04f71b63          	bne	a4,a5,10e62 <xbrtime_longdouble_put_nb+0x94>
   10e10:	fd043483          	ld	s1,-48(s0)
   10e14:	fd843783          	ld	a5,-40(s0)
   10e18:	fc042703          	lw	a4,-64(s0)
   10e1c:	85ba                	mv	a1,a4
   10e1e:	853e                	mv	a0,a5
   10e20:	00000097          	auipc	ra,0x0
   10e24:	9fa080e7          	jalr	-1542(ra) # 1081a <__xbrtime_ltor>
   10e28:	892a                	mv	s2,a0
   10e2a:	fc042783          	lw	a5,-64(s0)
   10e2e:	853e                	mv	a0,a5
   10e30:	00005097          	auipc	ra,0x5
   10e34:	562080e7          	jalr	1378(ra) # 16392 <xbrtime_decode_pe>
   10e38:	87aa                	mv	a5,a0
   10e3a:	0007861b          	sext.w	a2,a5
   10e3e:	fc843783          	ld	a5,-56(s0)
   10e42:	0007869b          	sext.w	a3,a5
   10e46:	fc442783          	lw	a5,-60(s0)
   10e4a:	2781                	sext.w	a5,a5
   10e4c:	0047979b          	slliw	a5,a5,0x4
   10e50:	2781                	sext.w	a5,a5
   10e52:	873e                	mv	a4,a5
   10e54:	85ca                	mv	a1,s2
   10e56:	8526                	mv	a0,s1
   10e58:	00006097          	auipc	ra,0x6
   10e5c:	00a080e7          	jalr	10(ra) # 16e62 <__xbrtime_put_u8_seq>
   10e60:	a899                	j	10eb6 <xbrtime_longdouble_put_nb+0xe8>
   10e62:	fd043483          	ld	s1,-48(s0)
   10e66:	fd843783          	ld	a5,-40(s0)
   10e6a:	fc042703          	lw	a4,-64(s0)
   10e6e:	85ba                	mv	a1,a4
   10e70:	853e                	mv	a0,a5
   10e72:	00000097          	auipc	ra,0x0
   10e76:	9a8080e7          	jalr	-1624(ra) # 1081a <__xbrtime_ltor>
   10e7a:	892a                	mv	s2,a0
   10e7c:	fc042783          	lw	a5,-64(s0)
   10e80:	853e                	mv	a0,a5
   10e82:	00005097          	auipc	ra,0x5
   10e86:	510080e7          	jalr	1296(ra) # 16392 <xbrtime_decode_pe>
   10e8a:	87aa                	mv	a5,a0
   10e8c:	0007861b          	sext.w	a2,a5
   10e90:	fc843783          	ld	a5,-56(s0)
   10e94:	0007869b          	sext.w	a3,a5
   10e98:	fc442783          	lw	a5,-60(s0)
   10e9c:	2781                	sext.w	a5,a5
   10e9e:	0047979b          	slliw	a5,a5,0x4
   10ea2:	2781                	sext.w	a5,a5
   10ea4:	873e                	mv	a4,a5
   10ea6:	85ca                	mv	a1,s2
   10ea8:	8526                	mv	a0,s1
   10eaa:	00006097          	auipc	ra,0x6
   10eae:	fd4080e7          	jalr	-44(ra) # 16e7e <__xbrtime_put_u8_agg>
   10eb2:	a011                	j	10eb6 <xbrtime_longdouble_put_nb+0xe8>
   10eb4:	0001                	nop
   10eb6:	70e2                	ld	ra,56(sp)
   10eb8:	7442                	ld	s0,48(sp)
   10eba:	74a2                	ld	s1,40(sp)
   10ebc:	7902                	ld	s2,32(sp)
   10ebe:	6121                	addi	sp,sp,64
   10ec0:	8082                	ret

0000000000010ec2 <xbrtime_schar_put>:
   10ec2:	7139                	addi	sp,sp,-64
   10ec4:	fc06                	sd	ra,56(sp)
   10ec6:	f822                	sd	s0,48(sp)
   10ec8:	f426                	sd	s1,40(sp)
   10eca:	f04a                	sd	s2,32(sp)
   10ecc:	0080                	addi	s0,sp,64
   10ece:	fca43c23          	sd	a0,-40(s0)
   10ed2:	fcb43823          	sd	a1,-48(s0)
   10ed6:	fcc43423          	sd	a2,-56(s0)
   10eda:	87b6                	mv	a5,a3
   10edc:	fcf42223          	sw	a5,-60(s0)
   10ee0:	87ba                	mv	a5,a4
   10ee2:	fcf42023          	sw	a5,-64(s0)
   10ee6:	fc843783          	ld	a5,-56(s0)
   10eea:	cfc9                	beqz	a5,10f84 <xbrtime_schar_put+0xc2>
   10eec:	fc442783          	lw	a5,-60(s0)
   10ef0:	0007871b          	sext.w	a4,a5
   10ef4:	4785                	li	a5,1
   10ef6:	00f71763          	bne	a4,a5,10f04 <xbrtime_schar_put+0x42>
   10efa:	fc843703          	ld	a4,-56(s0)
   10efe:	4785                	li	a5,1
   10f00:	04f71163          	bne	a4,a5,10f42 <xbrtime_schar_put+0x80>
   10f04:	fd043483          	ld	s1,-48(s0)
   10f08:	fd843783          	ld	a5,-40(s0)
   10f0c:	fc042703          	lw	a4,-64(s0)
   10f10:	85ba                	mv	a1,a4
   10f12:	853e                	mv	a0,a5
   10f14:	907ff0ef          	jal	ra,1081a <__xbrtime_ltor>
   10f18:	892a                	mv	s2,a0
   10f1a:	fc042783          	lw	a5,-64(s0)
   10f1e:	853e                	mv	a0,a5
   10f20:	472050ef          	jal	ra,16392 <xbrtime_decode_pe>
   10f24:	87aa                	mv	a5,a0
   10f26:	2781                	sext.w	a5,a5
   10f28:	fc843703          	ld	a4,-56(s0)
   10f2c:	0007069b          	sext.w	a3,a4
   10f30:	fc442703          	lw	a4,-60(s0)
   10f34:	2701                	sext.w	a4,a4
   10f36:	863e                	mv	a2,a5
   10f38:	85ca                	mv	a1,s2
   10f3a:	8526                	mv	a0,s1
   10f3c:	751050ef          	jal	ra,16e8c <__xbrtime_put_s1_seq>
   10f40:	a83d                	j	10f7e <xbrtime_schar_put+0xbc>
   10f42:	fd043483          	ld	s1,-48(s0)
   10f46:	fd843783          	ld	a5,-40(s0)
   10f4a:	fc042703          	lw	a4,-64(s0)
   10f4e:	85ba                	mv	a1,a4
   10f50:	853e                	mv	a0,a5
   10f52:	8c9ff0ef          	jal	ra,1081a <__xbrtime_ltor>
   10f56:	892a                	mv	s2,a0
   10f58:	fc042783          	lw	a5,-64(s0)
   10f5c:	853e                	mv	a0,a5
   10f5e:	434050ef          	jal	ra,16392 <xbrtime_decode_pe>
   10f62:	87aa                	mv	a5,a0
   10f64:	2781                	sext.w	a5,a5
   10f66:	fc843703          	ld	a4,-56(s0)
   10f6a:	0007069b          	sext.w	a3,a4
   10f6e:	fc442703          	lw	a4,-60(s0)
   10f72:	2701                	sext.w	a4,a4
   10f74:	863e                	mv	a2,a5
   10f76:	85ca                	mv	a1,s2
   10f78:	8526                	mv	a0,s1
   10f7a:	72f050ef          	jal	ra,16ea8 <__xbrtime_put_s1_agg>
   10f7e:	7d1050ef          	jal	ra,16f4e <__xbrtime_asm_fence>
   10f82:	a011                	j	10f86 <xbrtime_schar_put+0xc4>
   10f84:	0001                	nop
   10f86:	70e2                	ld	ra,56(sp)
   10f88:	7442                	ld	s0,48(sp)
   10f8a:	74a2                	ld	s1,40(sp)
   10f8c:	7902                	ld	s2,32(sp)
   10f8e:	6121                	addi	sp,sp,64
   10f90:	8082                	ret

0000000000010f92 <xbrtime_schar_put_nb>:
   10f92:	7139                	addi	sp,sp,-64
   10f94:	fc06                	sd	ra,56(sp)
   10f96:	f822                	sd	s0,48(sp)
   10f98:	f426                	sd	s1,40(sp)
   10f9a:	f04a                	sd	s2,32(sp)
   10f9c:	0080                	addi	s0,sp,64
   10f9e:	fca43c23          	sd	a0,-40(s0)
   10fa2:	fcb43823          	sd	a1,-48(s0)
   10fa6:	fcc43423          	sd	a2,-56(s0)
   10faa:	87b6                	mv	a5,a3
   10fac:	fcf42223          	sw	a5,-60(s0)
   10fb0:	87ba                	mv	a5,a4
   10fb2:	fcf42023          	sw	a5,-64(s0)
   10fb6:	fc843783          	ld	a5,-56(s0)
   10fba:	c7dd                	beqz	a5,11068 <xbrtime_schar_put_nb+0xd6>
   10fbc:	fc442783          	lw	a5,-60(s0)
   10fc0:	0007871b          	sext.w	a4,a5
   10fc4:	4785                	li	a5,1
   10fc6:	00f71763          	bne	a4,a5,10fd4 <xbrtime_schar_put_nb+0x42>
   10fca:	fc843703          	ld	a4,-56(s0)
   10fce:	4785                	li	a5,1
   10fd0:	04f71763          	bne	a4,a5,1101e <xbrtime_schar_put_nb+0x8c>
   10fd4:	fd043483          	ld	s1,-48(s0)
   10fd8:	fd843783          	ld	a5,-40(s0)
   10fdc:	fc042703          	lw	a4,-64(s0)
   10fe0:	85ba                	mv	a1,a4
   10fe2:	853e                	mv	a0,a5
   10fe4:	00000097          	auipc	ra,0x0
   10fe8:	836080e7          	jalr	-1994(ra) # 1081a <__xbrtime_ltor>
   10fec:	892a                	mv	s2,a0
   10fee:	fc042783          	lw	a5,-64(s0)
   10ff2:	853e                	mv	a0,a5
   10ff4:	00005097          	auipc	ra,0x5
   10ff8:	39e080e7          	jalr	926(ra) # 16392 <xbrtime_decode_pe>
   10ffc:	87aa                	mv	a5,a0
   10ffe:	2781                	sext.w	a5,a5
   11000:	fc843703          	ld	a4,-56(s0)
   11004:	0007069b          	sext.w	a3,a4
   11008:	fc442703          	lw	a4,-60(s0)
   1100c:	2701                	sext.w	a4,a4
   1100e:	863e                	mv	a2,a5
   11010:	85ca                	mv	a1,s2
   11012:	8526                	mv	a0,s1
   11014:	00006097          	auipc	ra,0x6
   11018:	e78080e7          	jalr	-392(ra) # 16e8c <__xbrtime_put_s1_seq>
   1101c:	a0b9                	j	1106a <xbrtime_schar_put_nb+0xd8>
   1101e:	fd043483          	ld	s1,-48(s0)
   11022:	fd843783          	ld	a5,-40(s0)
   11026:	fc042703          	lw	a4,-64(s0)
   1102a:	85ba                	mv	a1,a4
   1102c:	853e                	mv	a0,a5
   1102e:	fffff097          	auipc	ra,0xfffff
   11032:	7ec080e7          	jalr	2028(ra) # 1081a <__xbrtime_ltor>
   11036:	892a                	mv	s2,a0
   11038:	fc042783          	lw	a5,-64(s0)
   1103c:	853e                	mv	a0,a5
   1103e:	00005097          	auipc	ra,0x5
   11042:	354080e7          	jalr	852(ra) # 16392 <xbrtime_decode_pe>
   11046:	87aa                	mv	a5,a0
   11048:	2781                	sext.w	a5,a5
   1104a:	fc843703          	ld	a4,-56(s0)
   1104e:	0007069b          	sext.w	a3,a4
   11052:	fc442703          	lw	a4,-60(s0)
   11056:	2701                	sext.w	a4,a4
   11058:	863e                	mv	a2,a5
   1105a:	85ca                	mv	a1,s2
   1105c:	8526                	mv	a0,s1
   1105e:	00006097          	auipc	ra,0x6
   11062:	e4a080e7          	jalr	-438(ra) # 16ea8 <__xbrtime_put_s1_agg>
   11066:	a011                	j	1106a <xbrtime_schar_put_nb+0xd8>
   11068:	0001                	nop
   1106a:	70e2                	ld	ra,56(sp)
   1106c:	7442                	ld	s0,48(sp)
   1106e:	74a2                	ld	s1,40(sp)
   11070:	7902                	ld	s2,32(sp)
   11072:	6121                	addi	sp,sp,64
   11074:	8082                	ret

0000000000011076 <xbrtime_char_put>:
   11076:	7139                	addi	sp,sp,-64
   11078:	fc06                	sd	ra,56(sp)
   1107a:	f822                	sd	s0,48(sp)
   1107c:	f426                	sd	s1,40(sp)
   1107e:	f04a                	sd	s2,32(sp)
   11080:	0080                	addi	s0,sp,64
   11082:	fca43c23          	sd	a0,-40(s0)
   11086:	fcb43823          	sd	a1,-48(s0)
   1108a:	fcc43423          	sd	a2,-56(s0)
   1108e:	87b6                	mv	a5,a3
   11090:	fcf42223          	sw	a5,-60(s0)
   11094:	87ba                	mv	a5,a4
   11096:	fcf42023          	sw	a5,-64(s0)
   1109a:	fc843783          	ld	a5,-56(s0)
   1109e:	cfc9                	beqz	a5,11138 <xbrtime_char_put+0xc2>
   110a0:	fc442783          	lw	a5,-60(s0)
   110a4:	0007871b          	sext.w	a4,a5
   110a8:	4785                	li	a5,1
   110aa:	00f71763          	bne	a4,a5,110b8 <xbrtime_char_put+0x42>
   110ae:	fc843703          	ld	a4,-56(s0)
   110b2:	4785                	li	a5,1
   110b4:	04f71163          	bne	a4,a5,110f6 <xbrtime_char_put+0x80>
   110b8:	fd043483          	ld	s1,-48(s0)
   110bc:	fd843783          	ld	a5,-40(s0)
   110c0:	fc042703          	lw	a4,-64(s0)
   110c4:	85ba                	mv	a1,a4
   110c6:	853e                	mv	a0,a5
   110c8:	f52ff0ef          	jal	ra,1081a <__xbrtime_ltor>
   110cc:	892a                	mv	s2,a0
   110ce:	fc042783          	lw	a5,-64(s0)
   110d2:	853e                	mv	a0,a5
   110d4:	2be050ef          	jal	ra,16392 <xbrtime_decode_pe>
   110d8:	87aa                	mv	a5,a0
   110da:	2781                	sext.w	a5,a5
   110dc:	fc843703          	ld	a4,-56(s0)
   110e0:	0007069b          	sext.w	a3,a4
   110e4:	fc442703          	lw	a4,-60(s0)
   110e8:	2701                	sext.w	a4,a4
   110ea:	863e                	mv	a2,a5
   110ec:	85ca                	mv	a1,s2
   110ee:	8526                	mv	a0,s1
   110f0:	4f5050ef          	jal	ra,16de4 <__xbrtime_put_u1_seq>
   110f4:	a83d                	j	11132 <xbrtime_char_put+0xbc>
   110f6:	fd043483          	ld	s1,-48(s0)
   110fa:	fd843783          	ld	a5,-40(s0)
   110fe:	fc042703          	lw	a4,-64(s0)
   11102:	85ba                	mv	a1,a4
   11104:	853e                	mv	a0,a5
   11106:	f14ff0ef          	jal	ra,1081a <__xbrtime_ltor>
   1110a:	892a                	mv	s2,a0
   1110c:	fc042783          	lw	a5,-64(s0)
   11110:	853e                	mv	a0,a5
   11112:	280050ef          	jal	ra,16392 <xbrtime_decode_pe>
   11116:	87aa                	mv	a5,a0
   11118:	2781                	sext.w	a5,a5
   1111a:	fc843703          	ld	a4,-56(s0)
   1111e:	0007069b          	sext.w	a3,a4
   11122:	fc442703          	lw	a4,-60(s0)
   11126:	2701                	sext.w	a4,a4
   11128:	863e                	mv	a2,a5
   1112a:	85ca                	mv	a1,s2
   1112c:	8526                	mv	a0,s1
   1112e:	4d3050ef          	jal	ra,16e00 <__xbrtime_put_u1_agg>
   11132:	61d050ef          	jal	ra,16f4e <__xbrtime_asm_fence>
   11136:	a011                	j	1113a <xbrtime_char_put+0xc4>
   11138:	0001                	nop
   1113a:	70e2                	ld	ra,56(sp)
   1113c:	7442                	ld	s0,48(sp)
   1113e:	74a2                	ld	s1,40(sp)
   11140:	7902                	ld	s2,32(sp)
   11142:	6121                	addi	sp,sp,64
   11144:	8082                	ret

0000000000011146 <xbrtime_char_put_nb>:
   11146:	7139                	addi	sp,sp,-64
   11148:	fc06                	sd	ra,56(sp)
   1114a:	f822                	sd	s0,48(sp)
   1114c:	f426                	sd	s1,40(sp)
   1114e:	f04a                	sd	s2,32(sp)
   11150:	0080                	addi	s0,sp,64
   11152:	fca43c23          	sd	a0,-40(s0)
   11156:	fcb43823          	sd	a1,-48(s0)
   1115a:	fcc43423          	sd	a2,-56(s0)
   1115e:	87b6                	mv	a5,a3
   11160:	fcf42223          	sw	a5,-60(s0)
   11164:	87ba                	mv	a5,a4
   11166:	fcf42023          	sw	a5,-64(s0)
   1116a:	fc843783          	ld	a5,-56(s0)
   1116e:	c7dd                	beqz	a5,1121c <xbrtime_char_put_nb+0xd6>
   11170:	fc442783          	lw	a5,-60(s0)
   11174:	0007871b          	sext.w	a4,a5
   11178:	4785                	li	a5,1
   1117a:	00f71763          	bne	a4,a5,11188 <xbrtime_char_put_nb+0x42>
   1117e:	fc843703          	ld	a4,-56(s0)
   11182:	4785                	li	a5,1
   11184:	04f71763          	bne	a4,a5,111d2 <xbrtime_char_put_nb+0x8c>
   11188:	fd043483          	ld	s1,-48(s0)
   1118c:	fd843783          	ld	a5,-40(s0)
   11190:	fc042703          	lw	a4,-64(s0)
   11194:	85ba                	mv	a1,a4
   11196:	853e                	mv	a0,a5
   11198:	fffff097          	auipc	ra,0xfffff
   1119c:	682080e7          	jalr	1666(ra) # 1081a <__xbrtime_ltor>
   111a0:	892a                	mv	s2,a0
   111a2:	fc042783          	lw	a5,-64(s0)
   111a6:	853e                	mv	a0,a5
   111a8:	00005097          	auipc	ra,0x5
   111ac:	1ea080e7          	jalr	490(ra) # 16392 <xbrtime_decode_pe>
   111b0:	87aa                	mv	a5,a0
   111b2:	2781                	sext.w	a5,a5
   111b4:	fc843703          	ld	a4,-56(s0)
   111b8:	0007069b          	sext.w	a3,a4
   111bc:	fc442703          	lw	a4,-60(s0)
   111c0:	2701                	sext.w	a4,a4
   111c2:	863e                	mv	a2,a5
   111c4:	85ca                	mv	a1,s2
   111c6:	8526                	mv	a0,s1
   111c8:	00006097          	auipc	ra,0x6
   111cc:	c1c080e7          	jalr	-996(ra) # 16de4 <__xbrtime_put_u1_seq>
   111d0:	a0b9                	j	1121e <xbrtime_char_put_nb+0xd8>
   111d2:	fd043483          	ld	s1,-48(s0)
   111d6:	fd843783          	ld	a5,-40(s0)
   111da:	fc042703          	lw	a4,-64(s0)
   111de:	85ba                	mv	a1,a4
   111e0:	853e                	mv	a0,a5
   111e2:	fffff097          	auipc	ra,0xfffff
   111e6:	638080e7          	jalr	1592(ra) # 1081a <__xbrtime_ltor>
   111ea:	892a                	mv	s2,a0
   111ec:	fc042783          	lw	a5,-64(s0)
   111f0:	853e                	mv	a0,a5
   111f2:	00005097          	auipc	ra,0x5
   111f6:	1a0080e7          	jalr	416(ra) # 16392 <xbrtime_decode_pe>
   111fa:	87aa                	mv	a5,a0
   111fc:	2781                	sext.w	a5,a5
   111fe:	fc843703          	ld	a4,-56(s0)
   11202:	0007069b          	sext.w	a3,a4
   11206:	fc442703          	lw	a4,-60(s0)
   1120a:	2701                	sext.w	a4,a4
   1120c:	863e                	mv	a2,a5
   1120e:	85ca                	mv	a1,s2
   11210:	8526                	mv	a0,s1
   11212:	00006097          	auipc	ra,0x6
   11216:	bee080e7          	jalr	-1042(ra) # 16e00 <__xbrtime_put_u1_agg>
   1121a:	a011                	j	1121e <xbrtime_char_put_nb+0xd8>
   1121c:	0001                	nop
   1121e:	70e2                	ld	ra,56(sp)
   11220:	7442                	ld	s0,48(sp)
   11222:	74a2                	ld	s1,40(sp)
   11224:	7902                	ld	s2,32(sp)
   11226:	6121                	addi	sp,sp,64
   11228:	8082                	ret

000000000001122a <xbrtime_short_put>:
   1122a:	7139                	addi	sp,sp,-64
   1122c:	fc06                	sd	ra,56(sp)
   1122e:	f822                	sd	s0,48(sp)
   11230:	f426                	sd	s1,40(sp)
   11232:	f04a                	sd	s2,32(sp)
   11234:	0080                	addi	s0,sp,64
   11236:	fca43c23          	sd	a0,-40(s0)
   1123a:	fcb43823          	sd	a1,-48(s0)
   1123e:	fcc43423          	sd	a2,-56(s0)
   11242:	87b6                	mv	a5,a3
   11244:	fcf42223          	sw	a5,-60(s0)
   11248:	87ba                	mv	a5,a4
   1124a:	fcf42023          	sw	a5,-64(s0)
   1124e:	fc843783          	ld	a5,-56(s0)
   11252:	c7cd                	beqz	a5,112fc <xbrtime_short_put+0xd2>
   11254:	fc442783          	lw	a5,-60(s0)
   11258:	0007871b          	sext.w	a4,a5
   1125c:	4785                	li	a5,1
   1125e:	00f71763          	bne	a4,a5,1126c <xbrtime_short_put+0x42>
   11262:	fc843703          	ld	a4,-56(s0)
   11266:	4785                	li	a5,1
   11268:	04f71563          	bne	a4,a5,112b2 <xbrtime_short_put+0x88>
   1126c:	fd043483          	ld	s1,-48(s0)
   11270:	fd843783          	ld	a5,-40(s0)
   11274:	fc042703          	lw	a4,-64(s0)
   11278:	85ba                	mv	a1,a4
   1127a:	853e                	mv	a0,a5
   1127c:	d9eff0ef          	jal	ra,1081a <__xbrtime_ltor>
   11280:	892a                	mv	s2,a0
   11282:	fc042783          	lw	a5,-64(s0)
   11286:	853e                	mv	a0,a5
   11288:	10a050ef          	jal	ra,16392 <xbrtime_decode_pe>
   1128c:	87aa                	mv	a5,a0
   1128e:	0007861b          	sext.w	a2,a5
   11292:	fc843783          	ld	a5,-56(s0)
   11296:	0007869b          	sext.w	a3,a5
   1129a:	fc442783          	lw	a5,-60(s0)
   1129e:	2781                	sext.w	a5,a5
   112a0:	0017979b          	slliw	a5,a5,0x1
   112a4:	2781                	sext.w	a5,a5
   112a6:	873e                	mv	a4,a5
   112a8:	85ca                	mv	a1,s2
   112aa:	8526                	mv	a0,s1
   112ac:	40b050ef          	jal	ra,16eb6 <__xbrtime_put_s2_seq>
   112b0:	a099                	j	112f6 <xbrtime_short_put+0xcc>
   112b2:	fd043483          	ld	s1,-48(s0)
   112b6:	fd843783          	ld	a5,-40(s0)
   112ba:	fc042703          	lw	a4,-64(s0)
   112be:	85ba                	mv	a1,a4
   112c0:	853e                	mv	a0,a5
   112c2:	d58ff0ef          	jal	ra,1081a <__xbrtime_ltor>
   112c6:	892a                	mv	s2,a0
   112c8:	fc042783          	lw	a5,-64(s0)
   112cc:	853e                	mv	a0,a5
   112ce:	0c4050ef          	jal	ra,16392 <xbrtime_decode_pe>
   112d2:	87aa                	mv	a5,a0
   112d4:	0007861b          	sext.w	a2,a5
   112d8:	fc843783          	ld	a5,-56(s0)
   112dc:	0007869b          	sext.w	a3,a5
   112e0:	fc442783          	lw	a5,-60(s0)
   112e4:	2781                	sext.w	a5,a5
   112e6:	0017979b          	slliw	a5,a5,0x1
   112ea:	2781                	sext.w	a5,a5
   112ec:	873e                	mv	a4,a5
   112ee:	85ca                	mv	a1,s2
   112f0:	8526                	mv	a0,s1
   112f2:	3e1050ef          	jal	ra,16ed2 <__xbrtime_put_s2_agg>
   112f6:	459050ef          	jal	ra,16f4e <__xbrtime_asm_fence>
   112fa:	a011                	j	112fe <xbrtime_short_put+0xd4>
   112fc:	0001                	nop
   112fe:	70e2                	ld	ra,56(sp)
   11300:	7442                	ld	s0,48(sp)
   11302:	74a2                	ld	s1,40(sp)
   11304:	7902                	ld	s2,32(sp)
   11306:	6121                	addi	sp,sp,64
   11308:	8082                	ret

000000000001130a <xbrtime_short_put_nb>:
   1130a:	7139                	addi	sp,sp,-64
   1130c:	fc06                	sd	ra,56(sp)
   1130e:	f822                	sd	s0,48(sp)
   11310:	f426                	sd	s1,40(sp)
   11312:	f04a                	sd	s2,32(sp)
   11314:	0080                	addi	s0,sp,64
   11316:	fca43c23          	sd	a0,-40(s0)
   1131a:	fcb43823          	sd	a1,-48(s0)
   1131e:	fcc43423          	sd	a2,-56(s0)
   11322:	87b6                	mv	a5,a3
   11324:	fcf42223          	sw	a5,-60(s0)
   11328:	87ba                	mv	a5,a4
   1132a:	fcf42023          	sw	a5,-64(s0)
   1132e:	fc843783          	ld	a5,-56(s0)
   11332:	cfdd                	beqz	a5,113f0 <xbrtime_short_put_nb+0xe6>
   11334:	fc442783          	lw	a5,-60(s0)
   11338:	0007871b          	sext.w	a4,a5
   1133c:	4785                	li	a5,1
   1133e:	00f71763          	bne	a4,a5,1134c <xbrtime_short_put_nb+0x42>
   11342:	fc843703          	ld	a4,-56(s0)
   11346:	4785                	li	a5,1
   11348:	04f71b63          	bne	a4,a5,1139e <xbrtime_short_put_nb+0x94>
   1134c:	fd043483          	ld	s1,-48(s0)
   11350:	fd843783          	ld	a5,-40(s0)
   11354:	fc042703          	lw	a4,-64(s0)
   11358:	85ba                	mv	a1,a4
   1135a:	853e                	mv	a0,a5
   1135c:	fffff097          	auipc	ra,0xfffff
   11360:	4be080e7          	jalr	1214(ra) # 1081a <__xbrtime_ltor>
   11364:	892a                	mv	s2,a0
   11366:	fc042783          	lw	a5,-64(s0)
   1136a:	853e                	mv	a0,a5
   1136c:	00005097          	auipc	ra,0x5
   11370:	026080e7          	jalr	38(ra) # 16392 <xbrtime_decode_pe>
   11374:	87aa                	mv	a5,a0
   11376:	0007861b          	sext.w	a2,a5
   1137a:	fc843783          	ld	a5,-56(s0)
   1137e:	0007869b          	sext.w	a3,a5
   11382:	fc442783          	lw	a5,-60(s0)
   11386:	2781                	sext.w	a5,a5
   11388:	0017979b          	slliw	a5,a5,0x1
   1138c:	2781                	sext.w	a5,a5
   1138e:	873e                	mv	a4,a5
   11390:	85ca                	mv	a1,s2
   11392:	8526                	mv	a0,s1
   11394:	00006097          	auipc	ra,0x6
   11398:	b22080e7          	jalr	-1246(ra) # 16eb6 <__xbrtime_put_s2_seq>
   1139c:	a899                	j	113f2 <xbrtime_short_put_nb+0xe8>
   1139e:	fd043483          	ld	s1,-48(s0)
   113a2:	fd843783          	ld	a5,-40(s0)
   113a6:	fc042703          	lw	a4,-64(s0)
   113aa:	85ba                	mv	a1,a4
   113ac:	853e                	mv	a0,a5
   113ae:	fffff097          	auipc	ra,0xfffff
   113b2:	46c080e7          	jalr	1132(ra) # 1081a <__xbrtime_ltor>
   113b6:	892a                	mv	s2,a0
   113b8:	fc042783          	lw	a5,-64(s0)
   113bc:	853e                	mv	a0,a5
   113be:	00005097          	auipc	ra,0x5
   113c2:	fd4080e7          	jalr	-44(ra) # 16392 <xbrtime_decode_pe>
   113c6:	87aa                	mv	a5,a0
   113c8:	0007861b          	sext.w	a2,a5
   113cc:	fc843783          	ld	a5,-56(s0)
   113d0:	0007869b          	sext.w	a3,a5
   113d4:	fc442783          	lw	a5,-60(s0)
   113d8:	2781                	sext.w	a5,a5
   113da:	0017979b          	slliw	a5,a5,0x1
   113de:	2781                	sext.w	a5,a5
   113e0:	873e                	mv	a4,a5
   113e2:	85ca                	mv	a1,s2
   113e4:	8526                	mv	a0,s1
   113e6:	00006097          	auipc	ra,0x6
   113ea:	aec080e7          	jalr	-1300(ra) # 16ed2 <__xbrtime_put_s2_agg>
   113ee:	a011                	j	113f2 <xbrtime_short_put_nb+0xe8>
   113f0:	0001                	nop
   113f2:	70e2                	ld	ra,56(sp)
   113f4:	7442                	ld	s0,48(sp)
   113f6:	74a2                	ld	s1,40(sp)
   113f8:	7902                	ld	s2,32(sp)
   113fa:	6121                	addi	sp,sp,64
   113fc:	8082                	ret

00000000000113fe <xbrtime_int_put>:
   113fe:	7139                	addi	sp,sp,-64
   11400:	fc06                	sd	ra,56(sp)
   11402:	f822                	sd	s0,48(sp)
   11404:	f426                	sd	s1,40(sp)
   11406:	f04a                	sd	s2,32(sp)
   11408:	0080                	addi	s0,sp,64
   1140a:	fca43c23          	sd	a0,-40(s0)
   1140e:	fcb43823          	sd	a1,-48(s0)
   11412:	fcc43423          	sd	a2,-56(s0)
   11416:	87b6                	mv	a5,a3
   11418:	fcf42223          	sw	a5,-60(s0)
   1141c:	87ba                	mv	a5,a4
   1141e:	fcf42023          	sw	a5,-64(s0)
   11422:	fc843783          	ld	a5,-56(s0)
   11426:	c7cd                	beqz	a5,114d0 <xbrtime_int_put+0xd2>
   11428:	fc442783          	lw	a5,-60(s0)
   1142c:	0007871b          	sext.w	a4,a5
   11430:	4785                	li	a5,1
   11432:	00f71763          	bne	a4,a5,11440 <xbrtime_int_put+0x42>
   11436:	fc843703          	ld	a4,-56(s0)
   1143a:	4785                	li	a5,1
   1143c:	04f71563          	bne	a4,a5,11486 <xbrtime_int_put+0x88>
   11440:	fd043483          	ld	s1,-48(s0)
   11444:	fd843783          	ld	a5,-40(s0)
   11448:	fc042703          	lw	a4,-64(s0)
   1144c:	85ba                	mv	a1,a4
   1144e:	853e                	mv	a0,a5
   11450:	bcaff0ef          	jal	ra,1081a <__xbrtime_ltor>
   11454:	892a                	mv	s2,a0
   11456:	fc042783          	lw	a5,-64(s0)
   1145a:	853e                	mv	a0,a5
   1145c:	737040ef          	jal	ra,16392 <xbrtime_decode_pe>
   11460:	87aa                	mv	a5,a0
   11462:	0007861b          	sext.w	a2,a5
   11466:	fc843783          	ld	a5,-56(s0)
   1146a:	0007869b          	sext.w	a3,a5
   1146e:	fc442783          	lw	a5,-60(s0)
   11472:	2781                	sext.w	a5,a5
   11474:	0027979b          	slliw	a5,a5,0x2
   11478:	2781                	sext.w	a5,a5
   1147a:	873e                	mv	a4,a5
   1147c:	85ca                	mv	a1,s2
   1147e:	8526                	mv	a0,s1
   11480:	261050ef          	jal	ra,16ee0 <__xbrtime_put_s4_seq>
   11484:	a099                	j	114ca <xbrtime_int_put+0xcc>
   11486:	fd043483          	ld	s1,-48(s0)
   1148a:	fd843783          	ld	a5,-40(s0)
   1148e:	fc042703          	lw	a4,-64(s0)
   11492:	85ba                	mv	a1,a4
   11494:	853e                	mv	a0,a5
   11496:	b84ff0ef          	jal	ra,1081a <__xbrtime_ltor>
   1149a:	892a                	mv	s2,a0
   1149c:	fc042783          	lw	a5,-64(s0)
   114a0:	853e                	mv	a0,a5
   114a2:	6f1040ef          	jal	ra,16392 <xbrtime_decode_pe>
   114a6:	87aa                	mv	a5,a0
   114a8:	0007861b          	sext.w	a2,a5
   114ac:	fc843783          	ld	a5,-56(s0)
   114b0:	0007869b          	sext.w	a3,a5
   114b4:	fc442783          	lw	a5,-60(s0)
   114b8:	2781                	sext.w	a5,a5
   114ba:	0027979b          	slliw	a5,a5,0x2
   114be:	2781                	sext.w	a5,a5
   114c0:	873e                	mv	a4,a5
   114c2:	85ca                	mv	a1,s2
   114c4:	8526                	mv	a0,s1
   114c6:	237050ef          	jal	ra,16efc <__xbrtime_put_s4_agg>
   114ca:	285050ef          	jal	ra,16f4e <__xbrtime_asm_fence>
   114ce:	a011                	j	114d2 <xbrtime_int_put+0xd4>
   114d0:	0001                	nop
   114d2:	70e2                	ld	ra,56(sp)
   114d4:	7442                	ld	s0,48(sp)
   114d6:	74a2                	ld	s1,40(sp)
   114d8:	7902                	ld	s2,32(sp)
   114da:	6121                	addi	sp,sp,64
   114dc:	8082                	ret

00000000000114de <xbrtime_int_put_nb>:
   114de:	7139                	addi	sp,sp,-64
   114e0:	fc06                	sd	ra,56(sp)
   114e2:	f822                	sd	s0,48(sp)
   114e4:	f426                	sd	s1,40(sp)
   114e6:	f04a                	sd	s2,32(sp)
   114e8:	0080                	addi	s0,sp,64
   114ea:	fca43c23          	sd	a0,-40(s0)
   114ee:	fcb43823          	sd	a1,-48(s0)
   114f2:	fcc43423          	sd	a2,-56(s0)
   114f6:	87b6                	mv	a5,a3
   114f8:	fcf42223          	sw	a5,-60(s0)
   114fc:	87ba                	mv	a5,a4
   114fe:	fcf42023          	sw	a5,-64(s0)
   11502:	fc843783          	ld	a5,-56(s0)
   11506:	cfdd                	beqz	a5,115c4 <xbrtime_int_put_nb+0xe6>
   11508:	fc442783          	lw	a5,-60(s0)
   1150c:	0007871b          	sext.w	a4,a5
   11510:	4785                	li	a5,1
   11512:	00f71763          	bne	a4,a5,11520 <xbrtime_int_put_nb+0x42>
   11516:	fc843703          	ld	a4,-56(s0)
   1151a:	4785                	li	a5,1
   1151c:	04f71b63          	bne	a4,a5,11572 <xbrtime_int_put_nb+0x94>
   11520:	fd043483          	ld	s1,-48(s0)
   11524:	fd843783          	ld	a5,-40(s0)
   11528:	fc042703          	lw	a4,-64(s0)
   1152c:	85ba                	mv	a1,a4
   1152e:	853e                	mv	a0,a5
   11530:	fffff097          	auipc	ra,0xfffff
   11534:	2ea080e7          	jalr	746(ra) # 1081a <__xbrtime_ltor>
   11538:	892a                	mv	s2,a0
   1153a:	fc042783          	lw	a5,-64(s0)
   1153e:	853e                	mv	a0,a5
   11540:	00005097          	auipc	ra,0x5
   11544:	e52080e7          	jalr	-430(ra) # 16392 <xbrtime_decode_pe>
   11548:	87aa                	mv	a5,a0
   1154a:	0007861b          	sext.w	a2,a5
   1154e:	fc843783          	ld	a5,-56(s0)
   11552:	0007869b          	sext.w	a3,a5
   11556:	fc442783          	lw	a5,-60(s0)
   1155a:	2781                	sext.w	a5,a5
   1155c:	0017979b          	slliw	a5,a5,0x1
   11560:	2781                	sext.w	a5,a5
   11562:	873e                	mv	a4,a5
   11564:	85ca                	mv	a1,s2
   11566:	8526                	mv	a0,s1
   11568:	00006097          	auipc	ra,0x6
   1156c:	978080e7          	jalr	-1672(ra) # 16ee0 <__xbrtime_put_s4_seq>
   11570:	a899                	j	115c6 <xbrtime_int_put_nb+0xe8>
   11572:	fd043483          	ld	s1,-48(s0)
   11576:	fd843783          	ld	a5,-40(s0)
   1157a:	fc042703          	lw	a4,-64(s0)
   1157e:	85ba                	mv	a1,a4
   11580:	853e                	mv	a0,a5
   11582:	fffff097          	auipc	ra,0xfffff
   11586:	298080e7          	jalr	664(ra) # 1081a <__xbrtime_ltor>
   1158a:	892a                	mv	s2,a0
   1158c:	fc042783          	lw	a5,-64(s0)
   11590:	853e                	mv	a0,a5
   11592:	00005097          	auipc	ra,0x5
   11596:	e00080e7          	jalr	-512(ra) # 16392 <xbrtime_decode_pe>
   1159a:	87aa                	mv	a5,a0
   1159c:	0007861b          	sext.w	a2,a5
   115a0:	fc843783          	ld	a5,-56(s0)
   115a4:	0007869b          	sext.w	a3,a5
   115a8:	fc442783          	lw	a5,-60(s0)
   115ac:	2781                	sext.w	a5,a5
   115ae:	0017979b          	slliw	a5,a5,0x1
   115b2:	2781                	sext.w	a5,a5
   115b4:	873e                	mv	a4,a5
   115b6:	85ca                	mv	a1,s2
   115b8:	8526                	mv	a0,s1
   115ba:	00006097          	auipc	ra,0x6
   115be:	942080e7          	jalr	-1726(ra) # 16efc <__xbrtime_put_s4_agg>
   115c2:	a011                	j	115c6 <xbrtime_int_put_nb+0xe8>
   115c4:	0001                	nop
   115c6:	70e2                	ld	ra,56(sp)
   115c8:	7442                	ld	s0,48(sp)
   115ca:	74a2                	ld	s1,40(sp)
   115cc:	7902                	ld	s2,32(sp)
   115ce:	6121                	addi	sp,sp,64
   115d0:	8082                	ret

00000000000115d2 <xbrtime_long_put>:
   115d2:	7139                	addi	sp,sp,-64
   115d4:	fc06                	sd	ra,56(sp)
   115d6:	f822                	sd	s0,48(sp)
   115d8:	f426                	sd	s1,40(sp)
   115da:	f04a                	sd	s2,32(sp)
   115dc:	0080                	addi	s0,sp,64
   115de:	fca43c23          	sd	a0,-40(s0)
   115e2:	fcb43823          	sd	a1,-48(s0)
   115e6:	fcc43423          	sd	a2,-56(s0)
   115ea:	87b6                	mv	a5,a3
   115ec:	fcf42223          	sw	a5,-60(s0)
   115f0:	87ba                	mv	a5,a4
   115f2:	fcf42023          	sw	a5,-64(s0)
   115f6:	fc843783          	ld	a5,-56(s0)
   115fa:	c7cd                	beqz	a5,116a4 <xbrtime_long_put+0xd2>
   115fc:	fc442783          	lw	a5,-60(s0)
   11600:	0007871b          	sext.w	a4,a5
   11604:	4785                	li	a5,1
   11606:	00f71763          	bne	a4,a5,11614 <xbrtime_long_put+0x42>
   1160a:	fc843703          	ld	a4,-56(s0)
   1160e:	4785                	li	a5,1
   11610:	04f71563          	bne	a4,a5,1165a <xbrtime_long_put+0x88>
   11614:	fd043483          	ld	s1,-48(s0)
   11618:	fd843783          	ld	a5,-40(s0)
   1161c:	fc042703          	lw	a4,-64(s0)
   11620:	85ba                	mv	a1,a4
   11622:	853e                	mv	a0,a5
   11624:	9f6ff0ef          	jal	ra,1081a <__xbrtime_ltor>
   11628:	892a                	mv	s2,a0
   1162a:	fc042783          	lw	a5,-64(s0)
   1162e:	853e                	mv	a0,a5
   11630:	563040ef          	jal	ra,16392 <xbrtime_decode_pe>
   11634:	87aa                	mv	a5,a0
   11636:	0007861b          	sext.w	a2,a5
   1163a:	fc843783          	ld	a5,-56(s0)
   1163e:	0007869b          	sext.w	a3,a5
   11642:	fc442783          	lw	a5,-60(s0)
   11646:	2781                	sext.w	a5,a5
   11648:	0037979b          	slliw	a5,a5,0x3
   1164c:	2781                	sext.w	a5,a5
   1164e:	873e                	mv	a4,a5
   11650:	85ca                	mv	a1,s2
   11652:	8526                	mv	a0,s1
   11654:	08d050ef          	jal	ra,16ee0 <__xbrtime_put_s4_seq>
   11658:	a099                	j	1169e <xbrtime_long_put+0xcc>
   1165a:	fd043483          	ld	s1,-48(s0)
   1165e:	fd843783          	ld	a5,-40(s0)
   11662:	fc042703          	lw	a4,-64(s0)
   11666:	85ba                	mv	a1,a4
   11668:	853e                	mv	a0,a5
   1166a:	9b0ff0ef          	jal	ra,1081a <__xbrtime_ltor>
   1166e:	892a                	mv	s2,a0
   11670:	fc042783          	lw	a5,-64(s0)
   11674:	853e                	mv	a0,a5
   11676:	51d040ef          	jal	ra,16392 <xbrtime_decode_pe>
   1167a:	87aa                	mv	a5,a0
   1167c:	0007861b          	sext.w	a2,a5
   11680:	fc843783          	ld	a5,-56(s0)
   11684:	0007869b          	sext.w	a3,a5
   11688:	fc442783          	lw	a5,-60(s0)
   1168c:	2781                	sext.w	a5,a5
   1168e:	0037979b          	slliw	a5,a5,0x3
   11692:	2781                	sext.w	a5,a5
   11694:	873e                	mv	a4,a5
   11696:	85ca                	mv	a1,s2
   11698:	8526                	mv	a0,s1
   1169a:	063050ef          	jal	ra,16efc <__xbrtime_put_s4_agg>
   1169e:	0b1050ef          	jal	ra,16f4e <__xbrtime_asm_fence>
   116a2:	a011                	j	116a6 <xbrtime_long_put+0xd4>
   116a4:	0001                	nop
   116a6:	70e2                	ld	ra,56(sp)
   116a8:	7442                	ld	s0,48(sp)
   116aa:	74a2                	ld	s1,40(sp)
   116ac:	7902                	ld	s2,32(sp)
   116ae:	6121                	addi	sp,sp,64
   116b0:	8082                	ret

00000000000116b2 <xbrtime_long_put_nb>:
   116b2:	7139                	addi	sp,sp,-64
   116b4:	fc06                	sd	ra,56(sp)
   116b6:	f822                	sd	s0,48(sp)
   116b8:	f426                	sd	s1,40(sp)
   116ba:	f04a                	sd	s2,32(sp)
   116bc:	0080                	addi	s0,sp,64
   116be:	fca43c23          	sd	a0,-40(s0)
   116c2:	fcb43823          	sd	a1,-48(s0)
   116c6:	fcc43423          	sd	a2,-56(s0)
   116ca:	87b6                	mv	a5,a3
   116cc:	fcf42223          	sw	a5,-60(s0)
   116d0:	87ba                	mv	a5,a4
   116d2:	fcf42023          	sw	a5,-64(s0)
   116d6:	fc843783          	ld	a5,-56(s0)
   116da:	cfdd                	beqz	a5,11798 <xbrtime_long_put_nb+0xe6>
   116dc:	fc442783          	lw	a5,-60(s0)
   116e0:	0007871b          	sext.w	a4,a5
   116e4:	4785                	li	a5,1
   116e6:	00f71763          	bne	a4,a5,116f4 <xbrtime_long_put_nb+0x42>
   116ea:	fc843703          	ld	a4,-56(s0)
   116ee:	4785                	li	a5,1
   116f0:	04f71b63          	bne	a4,a5,11746 <xbrtime_long_put_nb+0x94>
   116f4:	fd043483          	ld	s1,-48(s0)
   116f8:	fd843783          	ld	a5,-40(s0)
   116fc:	fc042703          	lw	a4,-64(s0)
   11700:	85ba                	mv	a1,a4
   11702:	853e                	mv	a0,a5
   11704:	fffff097          	auipc	ra,0xfffff
   11708:	116080e7          	jalr	278(ra) # 1081a <__xbrtime_ltor>
   1170c:	892a                	mv	s2,a0
   1170e:	fc042783          	lw	a5,-64(s0)
   11712:	853e                	mv	a0,a5
   11714:	00005097          	auipc	ra,0x5
   11718:	c7e080e7          	jalr	-898(ra) # 16392 <xbrtime_decode_pe>
   1171c:	87aa                	mv	a5,a0
   1171e:	0007861b          	sext.w	a2,a5
   11722:	fc843783          	ld	a5,-56(s0)
   11726:	0007869b          	sext.w	a3,a5
   1172a:	fc442783          	lw	a5,-60(s0)
   1172e:	2781                	sext.w	a5,a5
   11730:	0037979b          	slliw	a5,a5,0x3
   11734:	2781                	sext.w	a5,a5
   11736:	873e                	mv	a4,a5
   11738:	85ca                	mv	a1,s2
   1173a:	8526                	mv	a0,s1
   1173c:	00005097          	auipc	ra,0x5
   11740:	7a4080e7          	jalr	1956(ra) # 16ee0 <__xbrtime_put_s4_seq>
   11744:	a899                	j	1179a <xbrtime_long_put_nb+0xe8>
   11746:	fd043483          	ld	s1,-48(s0)
   1174a:	fd843783          	ld	a5,-40(s0)
   1174e:	fc042703          	lw	a4,-64(s0)
   11752:	85ba                	mv	a1,a4
   11754:	853e                	mv	a0,a5
   11756:	fffff097          	auipc	ra,0xfffff
   1175a:	0c4080e7          	jalr	196(ra) # 1081a <__xbrtime_ltor>
   1175e:	892a                	mv	s2,a0
   11760:	fc042783          	lw	a5,-64(s0)
   11764:	853e                	mv	a0,a5
   11766:	00005097          	auipc	ra,0x5
   1176a:	c2c080e7          	jalr	-980(ra) # 16392 <xbrtime_decode_pe>
   1176e:	87aa                	mv	a5,a0
   11770:	0007861b          	sext.w	a2,a5
   11774:	fc843783          	ld	a5,-56(s0)
   11778:	0007869b          	sext.w	a3,a5
   1177c:	fc442783          	lw	a5,-60(s0)
   11780:	2781                	sext.w	a5,a5
   11782:	0037979b          	slliw	a5,a5,0x3
   11786:	2781                	sext.w	a5,a5
   11788:	873e                	mv	a4,a5
   1178a:	85ca                	mv	a1,s2
   1178c:	8526                	mv	a0,s1
   1178e:	00005097          	auipc	ra,0x5
   11792:	76e080e7          	jalr	1902(ra) # 16efc <__xbrtime_put_s4_agg>
   11796:	a011                	j	1179a <xbrtime_long_put_nb+0xe8>
   11798:	0001                	nop
   1179a:	70e2                	ld	ra,56(sp)
   1179c:	7442                	ld	s0,48(sp)
   1179e:	74a2                	ld	s1,40(sp)
   117a0:	7902                	ld	s2,32(sp)
   117a2:	6121                	addi	sp,sp,64
   117a4:	8082                	ret

00000000000117a6 <xbrtime_longlong_put>:
   117a6:	7139                	addi	sp,sp,-64
   117a8:	fc06                	sd	ra,56(sp)
   117aa:	f822                	sd	s0,48(sp)
   117ac:	f426                	sd	s1,40(sp)
   117ae:	f04a                	sd	s2,32(sp)
   117b0:	0080                	addi	s0,sp,64
   117b2:	fca43c23          	sd	a0,-40(s0)
   117b6:	fcb43823          	sd	a1,-48(s0)
   117ba:	fcc43423          	sd	a2,-56(s0)
   117be:	87b6                	mv	a5,a3
   117c0:	fcf42223          	sw	a5,-60(s0)
   117c4:	87ba                	mv	a5,a4
   117c6:	fcf42023          	sw	a5,-64(s0)
   117ca:	fc843783          	ld	a5,-56(s0)
   117ce:	c7cd                	beqz	a5,11878 <xbrtime_longlong_put+0xd2>
   117d0:	fc442783          	lw	a5,-60(s0)
   117d4:	0007871b          	sext.w	a4,a5
   117d8:	4785                	li	a5,1
   117da:	00f71763          	bne	a4,a5,117e8 <xbrtime_longlong_put+0x42>
   117de:	fc843703          	ld	a4,-56(s0)
   117e2:	4785                	li	a5,1
   117e4:	04f71563          	bne	a4,a5,1182e <xbrtime_longlong_put+0x88>
   117e8:	fd043483          	ld	s1,-48(s0)
   117ec:	fd843783          	ld	a5,-40(s0)
   117f0:	fc042703          	lw	a4,-64(s0)
   117f4:	85ba                	mv	a1,a4
   117f6:	853e                	mv	a0,a5
   117f8:	822ff0ef          	jal	ra,1081a <__xbrtime_ltor>
   117fc:	892a                	mv	s2,a0
   117fe:	fc042783          	lw	a5,-64(s0)
   11802:	853e                	mv	a0,a5
   11804:	38f040ef          	jal	ra,16392 <xbrtime_decode_pe>
   11808:	87aa                	mv	a5,a0
   1180a:	0007861b          	sext.w	a2,a5
   1180e:	fc843783          	ld	a5,-56(s0)
   11812:	0007869b          	sext.w	a3,a5
   11816:	fc442783          	lw	a5,-60(s0)
   1181a:	2781                	sext.w	a5,a5
   1181c:	0037979b          	slliw	a5,a5,0x3
   11820:	2781                	sext.w	a5,a5
   11822:	873e                	mv	a4,a5
   11824:	85ca                	mv	a1,s2
   11826:	8526                	mv	a0,s1
   11828:	6e2050ef          	jal	ra,16f0a <__xbrtime_put_s8_seq>
   1182c:	a099                	j	11872 <xbrtime_longlong_put+0xcc>
   1182e:	fd043483          	ld	s1,-48(s0)
   11832:	fd843783          	ld	a5,-40(s0)
   11836:	fc042703          	lw	a4,-64(s0)
   1183a:	85ba                	mv	a1,a4
   1183c:	853e                	mv	a0,a5
   1183e:	fddfe0ef          	jal	ra,1081a <__xbrtime_ltor>
   11842:	892a                	mv	s2,a0
   11844:	fc042783          	lw	a5,-64(s0)
   11848:	853e                	mv	a0,a5
   1184a:	349040ef          	jal	ra,16392 <xbrtime_decode_pe>
   1184e:	87aa                	mv	a5,a0
   11850:	0007861b          	sext.w	a2,a5
   11854:	fc843783          	ld	a5,-56(s0)
   11858:	0007869b          	sext.w	a3,a5
   1185c:	fc442783          	lw	a5,-60(s0)
   11860:	2781                	sext.w	a5,a5
   11862:	0037979b          	slliw	a5,a5,0x3
   11866:	2781                	sext.w	a5,a5
   11868:	873e                	mv	a4,a5
   1186a:	85ca                	mv	a1,s2
   1186c:	8526                	mv	a0,s1
   1186e:	6b8050ef          	jal	ra,16f26 <__xbrtime_put_s8_agg>
   11872:	6dc050ef          	jal	ra,16f4e <__xbrtime_asm_fence>
   11876:	a011                	j	1187a <xbrtime_longlong_put+0xd4>
   11878:	0001                	nop
   1187a:	70e2                	ld	ra,56(sp)
   1187c:	7442                	ld	s0,48(sp)
   1187e:	74a2                	ld	s1,40(sp)
   11880:	7902                	ld	s2,32(sp)
   11882:	6121                	addi	sp,sp,64
   11884:	8082                	ret

0000000000011886 <xbrtime_longlong_put_nb>:
   11886:	7139                	addi	sp,sp,-64
   11888:	fc06                	sd	ra,56(sp)
   1188a:	f822                	sd	s0,48(sp)
   1188c:	f426                	sd	s1,40(sp)
   1188e:	f04a                	sd	s2,32(sp)
   11890:	0080                	addi	s0,sp,64
   11892:	fca43c23          	sd	a0,-40(s0)
   11896:	fcb43823          	sd	a1,-48(s0)
   1189a:	fcc43423          	sd	a2,-56(s0)
   1189e:	87b6                	mv	a5,a3
   118a0:	fcf42223          	sw	a5,-60(s0)
   118a4:	87ba                	mv	a5,a4
   118a6:	fcf42023          	sw	a5,-64(s0)
   118aa:	fc843783          	ld	a5,-56(s0)
   118ae:	cfdd                	beqz	a5,1196c <xbrtime_longlong_put_nb+0xe6>
   118b0:	fc442783          	lw	a5,-60(s0)
   118b4:	0007871b          	sext.w	a4,a5
   118b8:	4785                	li	a5,1
   118ba:	00f71763          	bne	a4,a5,118c8 <xbrtime_longlong_put_nb+0x42>
   118be:	fc843703          	ld	a4,-56(s0)
   118c2:	4785                	li	a5,1
   118c4:	04f71b63          	bne	a4,a5,1191a <xbrtime_longlong_put_nb+0x94>
   118c8:	fd043483          	ld	s1,-48(s0)
   118cc:	fd843783          	ld	a5,-40(s0)
   118d0:	fc042703          	lw	a4,-64(s0)
   118d4:	85ba                	mv	a1,a4
   118d6:	853e                	mv	a0,a5
   118d8:	fffff097          	auipc	ra,0xfffff
   118dc:	f42080e7          	jalr	-190(ra) # 1081a <__xbrtime_ltor>
   118e0:	892a                	mv	s2,a0
   118e2:	fc042783          	lw	a5,-64(s0)
   118e6:	853e                	mv	a0,a5
   118e8:	00005097          	auipc	ra,0x5
   118ec:	aaa080e7          	jalr	-1366(ra) # 16392 <xbrtime_decode_pe>
   118f0:	87aa                	mv	a5,a0
   118f2:	0007861b          	sext.w	a2,a5
   118f6:	fc843783          	ld	a5,-56(s0)
   118fa:	0007869b          	sext.w	a3,a5
   118fe:	fc442783          	lw	a5,-60(s0)
   11902:	2781                	sext.w	a5,a5
   11904:	0037979b          	slliw	a5,a5,0x3
   11908:	2781                	sext.w	a5,a5
   1190a:	873e                	mv	a4,a5
   1190c:	85ca                	mv	a1,s2
   1190e:	8526                	mv	a0,s1
   11910:	00005097          	auipc	ra,0x5
   11914:	5fa080e7          	jalr	1530(ra) # 16f0a <__xbrtime_put_s8_seq>
   11918:	a899                	j	1196e <xbrtime_longlong_put_nb+0xe8>
   1191a:	fd043483          	ld	s1,-48(s0)
   1191e:	fd843783          	ld	a5,-40(s0)
   11922:	fc042703          	lw	a4,-64(s0)
   11926:	85ba                	mv	a1,a4
   11928:	853e                	mv	a0,a5
   1192a:	fffff097          	auipc	ra,0xfffff
   1192e:	ef0080e7          	jalr	-272(ra) # 1081a <__xbrtime_ltor>
   11932:	892a                	mv	s2,a0
   11934:	fc042783          	lw	a5,-64(s0)
   11938:	853e                	mv	a0,a5
   1193a:	00005097          	auipc	ra,0x5
   1193e:	a58080e7          	jalr	-1448(ra) # 16392 <xbrtime_decode_pe>
   11942:	87aa                	mv	a5,a0
   11944:	0007861b          	sext.w	a2,a5
   11948:	fc843783          	ld	a5,-56(s0)
   1194c:	0007869b          	sext.w	a3,a5
   11950:	fc442783          	lw	a5,-60(s0)
   11954:	2781                	sext.w	a5,a5
   11956:	0037979b          	slliw	a5,a5,0x3
   1195a:	2781                	sext.w	a5,a5
   1195c:	873e                	mv	a4,a5
   1195e:	85ca                	mv	a1,s2
   11960:	8526                	mv	a0,s1
   11962:	00005097          	auipc	ra,0x5
   11966:	5c4080e7          	jalr	1476(ra) # 16f26 <__xbrtime_put_s8_agg>
   1196a:	a011                	j	1196e <xbrtime_longlong_put_nb+0xe8>
   1196c:	0001                	nop
   1196e:	70e2                	ld	ra,56(sp)
   11970:	7442                	ld	s0,48(sp)
   11972:	74a2                	ld	s1,40(sp)
   11974:	7902                	ld	s2,32(sp)
   11976:	6121                	addi	sp,sp,64
   11978:	8082                	ret

000000000001197a <xbrtime_uchar_put>:
   1197a:	7139                	addi	sp,sp,-64
   1197c:	fc06                	sd	ra,56(sp)
   1197e:	f822                	sd	s0,48(sp)
   11980:	f426                	sd	s1,40(sp)
   11982:	f04a                	sd	s2,32(sp)
   11984:	0080                	addi	s0,sp,64
   11986:	fca43c23          	sd	a0,-40(s0)
   1198a:	fcb43823          	sd	a1,-48(s0)
   1198e:	fcc43423          	sd	a2,-56(s0)
   11992:	87b6                	mv	a5,a3
   11994:	fcf42223          	sw	a5,-60(s0)
   11998:	87ba                	mv	a5,a4
   1199a:	fcf42023          	sw	a5,-64(s0)
   1199e:	fc843783          	ld	a5,-56(s0)
   119a2:	cfc9                	beqz	a5,11a3c <xbrtime_uchar_put+0xc2>
   119a4:	fc442783          	lw	a5,-60(s0)
   119a8:	0007871b          	sext.w	a4,a5
   119ac:	4785                	li	a5,1
   119ae:	00f71763          	bne	a4,a5,119bc <xbrtime_uchar_put+0x42>
   119b2:	fc843703          	ld	a4,-56(s0)
   119b6:	4785                	li	a5,1
   119b8:	04f71163          	bne	a4,a5,119fa <xbrtime_uchar_put+0x80>
   119bc:	fd043483          	ld	s1,-48(s0)
   119c0:	fd843783          	ld	a5,-40(s0)
   119c4:	fc042703          	lw	a4,-64(s0)
   119c8:	85ba                	mv	a1,a4
   119ca:	853e                	mv	a0,a5
   119cc:	e4ffe0ef          	jal	ra,1081a <__xbrtime_ltor>
   119d0:	892a                	mv	s2,a0
   119d2:	fc042783          	lw	a5,-64(s0)
   119d6:	853e                	mv	a0,a5
   119d8:	1bb040ef          	jal	ra,16392 <xbrtime_decode_pe>
   119dc:	87aa                	mv	a5,a0
   119de:	2781                	sext.w	a5,a5
   119e0:	fc843703          	ld	a4,-56(s0)
   119e4:	0007069b          	sext.w	a3,a4
   119e8:	fc442703          	lw	a4,-60(s0)
   119ec:	2701                	sext.w	a4,a4
   119ee:	863e                	mv	a2,a5
   119f0:	85ca                	mv	a1,s2
   119f2:	8526                	mv	a0,s1
   119f4:	3f0050ef          	jal	ra,16de4 <__xbrtime_put_u1_seq>
   119f8:	a83d                	j	11a36 <xbrtime_uchar_put+0xbc>
   119fa:	fd043483          	ld	s1,-48(s0)
   119fe:	fd843783          	ld	a5,-40(s0)
   11a02:	fc042703          	lw	a4,-64(s0)
   11a06:	85ba                	mv	a1,a4
   11a08:	853e                	mv	a0,a5
   11a0a:	e11fe0ef          	jal	ra,1081a <__xbrtime_ltor>
   11a0e:	892a                	mv	s2,a0
   11a10:	fc042783          	lw	a5,-64(s0)
   11a14:	853e                	mv	a0,a5
   11a16:	17d040ef          	jal	ra,16392 <xbrtime_decode_pe>
   11a1a:	87aa                	mv	a5,a0
   11a1c:	2781                	sext.w	a5,a5
   11a1e:	fc843703          	ld	a4,-56(s0)
   11a22:	0007069b          	sext.w	a3,a4
   11a26:	fc442703          	lw	a4,-60(s0)
   11a2a:	2701                	sext.w	a4,a4
   11a2c:	863e                	mv	a2,a5
   11a2e:	85ca                	mv	a1,s2
   11a30:	8526                	mv	a0,s1
   11a32:	3ce050ef          	jal	ra,16e00 <__xbrtime_put_u1_agg>
   11a36:	518050ef          	jal	ra,16f4e <__xbrtime_asm_fence>
   11a3a:	a011                	j	11a3e <xbrtime_uchar_put+0xc4>
   11a3c:	0001                	nop
   11a3e:	70e2                	ld	ra,56(sp)
   11a40:	7442                	ld	s0,48(sp)
   11a42:	74a2                	ld	s1,40(sp)
   11a44:	7902                	ld	s2,32(sp)
   11a46:	6121                	addi	sp,sp,64
   11a48:	8082                	ret

0000000000011a4a <xbrtime_uchar_put_nb>:
   11a4a:	7139                	addi	sp,sp,-64
   11a4c:	fc06                	sd	ra,56(sp)
   11a4e:	f822                	sd	s0,48(sp)
   11a50:	f426                	sd	s1,40(sp)
   11a52:	f04a                	sd	s2,32(sp)
   11a54:	0080                	addi	s0,sp,64
   11a56:	fca43c23          	sd	a0,-40(s0)
   11a5a:	fcb43823          	sd	a1,-48(s0)
   11a5e:	fcc43423          	sd	a2,-56(s0)
   11a62:	87b6                	mv	a5,a3
   11a64:	fcf42223          	sw	a5,-60(s0)
   11a68:	87ba                	mv	a5,a4
   11a6a:	fcf42023          	sw	a5,-64(s0)
   11a6e:	fc843783          	ld	a5,-56(s0)
   11a72:	c7dd                	beqz	a5,11b20 <xbrtime_uchar_put_nb+0xd6>
   11a74:	fc442783          	lw	a5,-60(s0)
   11a78:	0007871b          	sext.w	a4,a5
   11a7c:	4785                	li	a5,1
   11a7e:	00f71763          	bne	a4,a5,11a8c <xbrtime_uchar_put_nb+0x42>
   11a82:	fc843703          	ld	a4,-56(s0)
   11a86:	4785                	li	a5,1
   11a88:	04f71763          	bne	a4,a5,11ad6 <xbrtime_uchar_put_nb+0x8c>
   11a8c:	fd043483          	ld	s1,-48(s0)
   11a90:	fd843783          	ld	a5,-40(s0)
   11a94:	fc042703          	lw	a4,-64(s0)
   11a98:	85ba                	mv	a1,a4
   11a9a:	853e                	mv	a0,a5
   11a9c:	fffff097          	auipc	ra,0xfffff
   11aa0:	d7e080e7          	jalr	-642(ra) # 1081a <__xbrtime_ltor>
   11aa4:	892a                	mv	s2,a0
   11aa6:	fc042783          	lw	a5,-64(s0)
   11aaa:	853e                	mv	a0,a5
   11aac:	00005097          	auipc	ra,0x5
   11ab0:	8e6080e7          	jalr	-1818(ra) # 16392 <xbrtime_decode_pe>
   11ab4:	87aa                	mv	a5,a0
   11ab6:	2781                	sext.w	a5,a5
   11ab8:	fc843703          	ld	a4,-56(s0)
   11abc:	0007069b          	sext.w	a3,a4
   11ac0:	fc442703          	lw	a4,-60(s0)
   11ac4:	2701                	sext.w	a4,a4
   11ac6:	863e                	mv	a2,a5
   11ac8:	85ca                	mv	a1,s2
   11aca:	8526                	mv	a0,s1
   11acc:	00005097          	auipc	ra,0x5
   11ad0:	318080e7          	jalr	792(ra) # 16de4 <__xbrtime_put_u1_seq>
   11ad4:	a0b9                	j	11b22 <xbrtime_uchar_put_nb+0xd8>
   11ad6:	fd043483          	ld	s1,-48(s0)
   11ada:	fd843783          	ld	a5,-40(s0)
   11ade:	fc042703          	lw	a4,-64(s0)
   11ae2:	85ba                	mv	a1,a4
   11ae4:	853e                	mv	a0,a5
   11ae6:	fffff097          	auipc	ra,0xfffff
   11aea:	d34080e7          	jalr	-716(ra) # 1081a <__xbrtime_ltor>
   11aee:	892a                	mv	s2,a0
   11af0:	fc042783          	lw	a5,-64(s0)
   11af4:	853e                	mv	a0,a5
   11af6:	00005097          	auipc	ra,0x5
   11afa:	89c080e7          	jalr	-1892(ra) # 16392 <xbrtime_decode_pe>
   11afe:	87aa                	mv	a5,a0
   11b00:	2781                	sext.w	a5,a5
   11b02:	fc843703          	ld	a4,-56(s0)
   11b06:	0007069b          	sext.w	a3,a4
   11b0a:	fc442703          	lw	a4,-60(s0)
   11b0e:	2701                	sext.w	a4,a4
   11b10:	863e                	mv	a2,a5
   11b12:	85ca                	mv	a1,s2
   11b14:	8526                	mv	a0,s1
   11b16:	00005097          	auipc	ra,0x5
   11b1a:	2ea080e7          	jalr	746(ra) # 16e00 <__xbrtime_put_u1_agg>
   11b1e:	a011                	j	11b22 <xbrtime_uchar_put_nb+0xd8>
   11b20:	0001                	nop
   11b22:	70e2                	ld	ra,56(sp)
   11b24:	7442                	ld	s0,48(sp)
   11b26:	74a2                	ld	s1,40(sp)
   11b28:	7902                	ld	s2,32(sp)
   11b2a:	6121                	addi	sp,sp,64
   11b2c:	8082                	ret

0000000000011b2e <xbrtime_ushort_put>:
   11b2e:	7139                	addi	sp,sp,-64
   11b30:	fc06                	sd	ra,56(sp)
   11b32:	f822                	sd	s0,48(sp)
   11b34:	f426                	sd	s1,40(sp)
   11b36:	f04a                	sd	s2,32(sp)
   11b38:	0080                	addi	s0,sp,64
   11b3a:	fca43c23          	sd	a0,-40(s0)
   11b3e:	fcb43823          	sd	a1,-48(s0)
   11b42:	fcc43423          	sd	a2,-56(s0)
   11b46:	87b6                	mv	a5,a3
   11b48:	fcf42223          	sw	a5,-60(s0)
   11b4c:	87ba                	mv	a5,a4
   11b4e:	fcf42023          	sw	a5,-64(s0)
   11b52:	fc843783          	ld	a5,-56(s0)
   11b56:	c7cd                	beqz	a5,11c00 <xbrtime_ushort_put+0xd2>
   11b58:	fc442783          	lw	a5,-60(s0)
   11b5c:	0007871b          	sext.w	a4,a5
   11b60:	4785                	li	a5,1
   11b62:	00f71763          	bne	a4,a5,11b70 <xbrtime_ushort_put+0x42>
   11b66:	fc843703          	ld	a4,-56(s0)
   11b6a:	4785                	li	a5,1
   11b6c:	04f71563          	bne	a4,a5,11bb6 <xbrtime_ushort_put+0x88>
   11b70:	fd043483          	ld	s1,-48(s0)
   11b74:	fd843783          	ld	a5,-40(s0)
   11b78:	fc042703          	lw	a4,-64(s0)
   11b7c:	85ba                	mv	a1,a4
   11b7e:	853e                	mv	a0,a5
   11b80:	c9bfe0ef          	jal	ra,1081a <__xbrtime_ltor>
   11b84:	892a                	mv	s2,a0
   11b86:	fc042783          	lw	a5,-64(s0)
   11b8a:	853e                	mv	a0,a5
   11b8c:	007040ef          	jal	ra,16392 <xbrtime_decode_pe>
   11b90:	87aa                	mv	a5,a0
   11b92:	0007861b          	sext.w	a2,a5
   11b96:	fc843783          	ld	a5,-56(s0)
   11b9a:	0007869b          	sext.w	a3,a5
   11b9e:	fc442783          	lw	a5,-60(s0)
   11ba2:	2781                	sext.w	a5,a5
   11ba4:	0017979b          	slliw	a5,a5,0x1
   11ba8:	2781                	sext.w	a5,a5
   11baa:	873e                	mv	a4,a5
   11bac:	85ca                	mv	a1,s2
   11bae:	8526                	mv	a0,s1
   11bb0:	25e050ef          	jal	ra,16e0e <__xbrtime_put_u2_seq>
   11bb4:	a099                	j	11bfa <xbrtime_ushort_put+0xcc>
   11bb6:	fd043483          	ld	s1,-48(s0)
   11bba:	fd843783          	ld	a5,-40(s0)
   11bbe:	fc042703          	lw	a4,-64(s0)
   11bc2:	85ba                	mv	a1,a4
   11bc4:	853e                	mv	a0,a5
   11bc6:	c55fe0ef          	jal	ra,1081a <__xbrtime_ltor>
   11bca:	892a                	mv	s2,a0
   11bcc:	fc042783          	lw	a5,-64(s0)
   11bd0:	853e                	mv	a0,a5
   11bd2:	7c0040ef          	jal	ra,16392 <xbrtime_decode_pe>
   11bd6:	87aa                	mv	a5,a0
   11bd8:	0007861b          	sext.w	a2,a5
   11bdc:	fc843783          	ld	a5,-56(s0)
   11be0:	0007869b          	sext.w	a3,a5
   11be4:	fc442783          	lw	a5,-60(s0)
   11be8:	2781                	sext.w	a5,a5
   11bea:	0017979b          	slliw	a5,a5,0x1
   11bee:	2781                	sext.w	a5,a5
   11bf0:	873e                	mv	a4,a5
   11bf2:	85ca                	mv	a1,s2
   11bf4:	8526                	mv	a0,s1
   11bf6:	234050ef          	jal	ra,16e2a <__xbrtime_put_u2_agg>
   11bfa:	354050ef          	jal	ra,16f4e <__xbrtime_asm_fence>
   11bfe:	a011                	j	11c02 <xbrtime_ushort_put+0xd4>
   11c00:	0001                	nop
   11c02:	70e2                	ld	ra,56(sp)
   11c04:	7442                	ld	s0,48(sp)
   11c06:	74a2                	ld	s1,40(sp)
   11c08:	7902                	ld	s2,32(sp)
   11c0a:	6121                	addi	sp,sp,64
   11c0c:	8082                	ret

0000000000011c0e <xbrtime_ushort_put_nb>:
   11c0e:	7139                	addi	sp,sp,-64
   11c10:	fc06                	sd	ra,56(sp)
   11c12:	f822                	sd	s0,48(sp)
   11c14:	f426                	sd	s1,40(sp)
   11c16:	f04a                	sd	s2,32(sp)
   11c18:	0080                	addi	s0,sp,64
   11c1a:	fca43c23          	sd	a0,-40(s0)
   11c1e:	fcb43823          	sd	a1,-48(s0)
   11c22:	fcc43423          	sd	a2,-56(s0)
   11c26:	87b6                	mv	a5,a3
   11c28:	fcf42223          	sw	a5,-60(s0)
   11c2c:	87ba                	mv	a5,a4
   11c2e:	fcf42023          	sw	a5,-64(s0)
   11c32:	fc843783          	ld	a5,-56(s0)
   11c36:	cfdd                	beqz	a5,11cf4 <xbrtime_ushort_put_nb+0xe6>
   11c38:	fc442783          	lw	a5,-60(s0)
   11c3c:	0007871b          	sext.w	a4,a5
   11c40:	4785                	li	a5,1
   11c42:	00f71763          	bne	a4,a5,11c50 <xbrtime_ushort_put_nb+0x42>
   11c46:	fc843703          	ld	a4,-56(s0)
   11c4a:	4785                	li	a5,1
   11c4c:	04f71b63          	bne	a4,a5,11ca2 <xbrtime_ushort_put_nb+0x94>
   11c50:	fd043483          	ld	s1,-48(s0)
   11c54:	fd843783          	ld	a5,-40(s0)
   11c58:	fc042703          	lw	a4,-64(s0)
   11c5c:	85ba                	mv	a1,a4
   11c5e:	853e                	mv	a0,a5
   11c60:	fffff097          	auipc	ra,0xfffff
   11c64:	bba080e7          	jalr	-1094(ra) # 1081a <__xbrtime_ltor>
   11c68:	892a                	mv	s2,a0
   11c6a:	fc042783          	lw	a5,-64(s0)
   11c6e:	853e                	mv	a0,a5
   11c70:	00004097          	auipc	ra,0x4
   11c74:	722080e7          	jalr	1826(ra) # 16392 <xbrtime_decode_pe>
   11c78:	87aa                	mv	a5,a0
   11c7a:	0007861b          	sext.w	a2,a5
   11c7e:	fc843783          	ld	a5,-56(s0)
   11c82:	0007869b          	sext.w	a3,a5
   11c86:	fc442783          	lw	a5,-60(s0)
   11c8a:	2781                	sext.w	a5,a5
   11c8c:	0017979b          	slliw	a5,a5,0x1
   11c90:	2781                	sext.w	a5,a5
   11c92:	873e                	mv	a4,a5
   11c94:	85ca                	mv	a1,s2
   11c96:	8526                	mv	a0,s1
   11c98:	00005097          	auipc	ra,0x5
   11c9c:	176080e7          	jalr	374(ra) # 16e0e <__xbrtime_put_u2_seq>
   11ca0:	a899                	j	11cf6 <xbrtime_ushort_put_nb+0xe8>
   11ca2:	fd043483          	ld	s1,-48(s0)
   11ca6:	fd843783          	ld	a5,-40(s0)
   11caa:	fc042703          	lw	a4,-64(s0)
   11cae:	85ba                	mv	a1,a4
   11cb0:	853e                	mv	a0,a5
   11cb2:	fffff097          	auipc	ra,0xfffff
   11cb6:	b68080e7          	jalr	-1176(ra) # 1081a <__xbrtime_ltor>
   11cba:	892a                	mv	s2,a0
   11cbc:	fc042783          	lw	a5,-64(s0)
   11cc0:	853e                	mv	a0,a5
   11cc2:	00004097          	auipc	ra,0x4
   11cc6:	6d0080e7          	jalr	1744(ra) # 16392 <xbrtime_decode_pe>
   11cca:	87aa                	mv	a5,a0
   11ccc:	0007861b          	sext.w	a2,a5
   11cd0:	fc843783          	ld	a5,-56(s0)
   11cd4:	0007869b          	sext.w	a3,a5
   11cd8:	fc442783          	lw	a5,-60(s0)
   11cdc:	2781                	sext.w	a5,a5
   11cde:	0017979b          	slliw	a5,a5,0x1
   11ce2:	2781                	sext.w	a5,a5
   11ce4:	873e                	mv	a4,a5
   11ce6:	85ca                	mv	a1,s2
   11ce8:	8526                	mv	a0,s1
   11cea:	00005097          	auipc	ra,0x5
   11cee:	140080e7          	jalr	320(ra) # 16e2a <__xbrtime_put_u2_agg>
   11cf2:	a011                	j	11cf6 <xbrtime_ushort_put_nb+0xe8>
   11cf4:	0001                	nop
   11cf6:	70e2                	ld	ra,56(sp)
   11cf8:	7442                	ld	s0,48(sp)
   11cfa:	74a2                	ld	s1,40(sp)
   11cfc:	7902                	ld	s2,32(sp)
   11cfe:	6121                	addi	sp,sp,64
   11d00:	8082                	ret

0000000000011d02 <xbrtime_uint_put>:
   11d02:	7139                	addi	sp,sp,-64
   11d04:	fc06                	sd	ra,56(sp)
   11d06:	f822                	sd	s0,48(sp)
   11d08:	f426                	sd	s1,40(sp)
   11d0a:	f04a                	sd	s2,32(sp)
   11d0c:	0080                	addi	s0,sp,64
   11d0e:	fca43c23          	sd	a0,-40(s0)
   11d12:	fcb43823          	sd	a1,-48(s0)
   11d16:	fcc43423          	sd	a2,-56(s0)
   11d1a:	87b6                	mv	a5,a3
   11d1c:	fcf42223          	sw	a5,-60(s0)
   11d20:	87ba                	mv	a5,a4
   11d22:	fcf42023          	sw	a5,-64(s0)
   11d26:	fc843783          	ld	a5,-56(s0)
   11d2a:	c7cd                	beqz	a5,11dd4 <xbrtime_uint_put+0xd2>
   11d2c:	fc442783          	lw	a5,-60(s0)
   11d30:	0007871b          	sext.w	a4,a5
   11d34:	4785                	li	a5,1
   11d36:	00f71763          	bne	a4,a5,11d44 <xbrtime_uint_put+0x42>
   11d3a:	fc843703          	ld	a4,-56(s0)
   11d3e:	4785                	li	a5,1
   11d40:	04f71563          	bne	a4,a5,11d8a <xbrtime_uint_put+0x88>
   11d44:	fd043483          	ld	s1,-48(s0)
   11d48:	fd843783          	ld	a5,-40(s0)
   11d4c:	fc042703          	lw	a4,-64(s0)
   11d50:	85ba                	mv	a1,a4
   11d52:	853e                	mv	a0,a5
   11d54:	ac7fe0ef          	jal	ra,1081a <__xbrtime_ltor>
   11d58:	892a                	mv	s2,a0
   11d5a:	fc042783          	lw	a5,-64(s0)
   11d5e:	853e                	mv	a0,a5
   11d60:	632040ef          	jal	ra,16392 <xbrtime_decode_pe>
   11d64:	87aa                	mv	a5,a0
   11d66:	0007861b          	sext.w	a2,a5
   11d6a:	fc843783          	ld	a5,-56(s0)
   11d6e:	0007869b          	sext.w	a3,a5
   11d72:	fc442783          	lw	a5,-60(s0)
   11d76:	2781                	sext.w	a5,a5
   11d78:	0027979b          	slliw	a5,a5,0x2
   11d7c:	2781                	sext.w	a5,a5
   11d7e:	873e                	mv	a4,a5
   11d80:	85ca                	mv	a1,s2
   11d82:	8526                	mv	a0,s1
   11d84:	0b4050ef          	jal	ra,16e38 <__xbrtime_put_u4_seq>
   11d88:	a099                	j	11dce <xbrtime_uint_put+0xcc>
   11d8a:	fd043483          	ld	s1,-48(s0)
   11d8e:	fd843783          	ld	a5,-40(s0)
   11d92:	fc042703          	lw	a4,-64(s0)
   11d96:	85ba                	mv	a1,a4
   11d98:	853e                	mv	a0,a5
   11d9a:	a81fe0ef          	jal	ra,1081a <__xbrtime_ltor>
   11d9e:	892a                	mv	s2,a0
   11da0:	fc042783          	lw	a5,-64(s0)
   11da4:	853e                	mv	a0,a5
   11da6:	5ec040ef          	jal	ra,16392 <xbrtime_decode_pe>
   11daa:	87aa                	mv	a5,a0
   11dac:	0007861b          	sext.w	a2,a5
   11db0:	fc843783          	ld	a5,-56(s0)
   11db4:	0007869b          	sext.w	a3,a5
   11db8:	fc442783          	lw	a5,-60(s0)
   11dbc:	2781                	sext.w	a5,a5
   11dbe:	0027979b          	slliw	a5,a5,0x2
   11dc2:	2781                	sext.w	a5,a5
   11dc4:	873e                	mv	a4,a5
   11dc6:	85ca                	mv	a1,s2
   11dc8:	8526                	mv	a0,s1
   11dca:	08a050ef          	jal	ra,16e54 <__xbrtime_put_u4_agg>
   11dce:	180050ef          	jal	ra,16f4e <__xbrtime_asm_fence>
   11dd2:	a011                	j	11dd6 <xbrtime_uint_put+0xd4>
   11dd4:	0001                	nop
   11dd6:	70e2                	ld	ra,56(sp)
   11dd8:	7442                	ld	s0,48(sp)
   11dda:	74a2                	ld	s1,40(sp)
   11ddc:	7902                	ld	s2,32(sp)
   11dde:	6121                	addi	sp,sp,64
   11de0:	8082                	ret

0000000000011de2 <xbrtime_uint_put_nb>:
   11de2:	7139                	addi	sp,sp,-64
   11de4:	fc06                	sd	ra,56(sp)
   11de6:	f822                	sd	s0,48(sp)
   11de8:	f426                	sd	s1,40(sp)
   11dea:	f04a                	sd	s2,32(sp)
   11dec:	0080                	addi	s0,sp,64
   11dee:	fca43c23          	sd	a0,-40(s0)
   11df2:	fcb43823          	sd	a1,-48(s0)
   11df6:	fcc43423          	sd	a2,-56(s0)
   11dfa:	87b6                	mv	a5,a3
   11dfc:	fcf42223          	sw	a5,-60(s0)
   11e00:	87ba                	mv	a5,a4
   11e02:	fcf42023          	sw	a5,-64(s0)
   11e06:	fc843783          	ld	a5,-56(s0)
   11e0a:	cfdd                	beqz	a5,11ec8 <xbrtime_uint_put_nb+0xe6>
   11e0c:	fc442783          	lw	a5,-60(s0)
   11e10:	0007871b          	sext.w	a4,a5
   11e14:	4785                	li	a5,1
   11e16:	00f71763          	bne	a4,a5,11e24 <xbrtime_uint_put_nb+0x42>
   11e1a:	fc843703          	ld	a4,-56(s0)
   11e1e:	4785                	li	a5,1
   11e20:	04f71b63          	bne	a4,a5,11e76 <xbrtime_uint_put_nb+0x94>
   11e24:	fd043483          	ld	s1,-48(s0)
   11e28:	fd843783          	ld	a5,-40(s0)
   11e2c:	fc042703          	lw	a4,-64(s0)
   11e30:	85ba                	mv	a1,a4
   11e32:	853e                	mv	a0,a5
   11e34:	fffff097          	auipc	ra,0xfffff
   11e38:	9e6080e7          	jalr	-1562(ra) # 1081a <__xbrtime_ltor>
   11e3c:	892a                	mv	s2,a0
   11e3e:	fc042783          	lw	a5,-64(s0)
   11e42:	853e                	mv	a0,a5
   11e44:	00004097          	auipc	ra,0x4
   11e48:	54e080e7          	jalr	1358(ra) # 16392 <xbrtime_decode_pe>
   11e4c:	87aa                	mv	a5,a0
   11e4e:	0007861b          	sext.w	a2,a5
   11e52:	fc843783          	ld	a5,-56(s0)
   11e56:	0007869b          	sext.w	a3,a5
   11e5a:	fc442783          	lw	a5,-60(s0)
   11e5e:	2781                	sext.w	a5,a5
   11e60:	0027979b          	slliw	a5,a5,0x2
   11e64:	2781                	sext.w	a5,a5
   11e66:	873e                	mv	a4,a5
   11e68:	85ca                	mv	a1,s2
   11e6a:	8526                	mv	a0,s1
   11e6c:	00005097          	auipc	ra,0x5
   11e70:	fcc080e7          	jalr	-52(ra) # 16e38 <__xbrtime_put_u4_seq>
   11e74:	a899                	j	11eca <xbrtime_uint_put_nb+0xe8>
   11e76:	fd043483          	ld	s1,-48(s0)
   11e7a:	fd843783          	ld	a5,-40(s0)
   11e7e:	fc042703          	lw	a4,-64(s0)
   11e82:	85ba                	mv	a1,a4
   11e84:	853e                	mv	a0,a5
   11e86:	fffff097          	auipc	ra,0xfffff
   11e8a:	994080e7          	jalr	-1644(ra) # 1081a <__xbrtime_ltor>
   11e8e:	892a                	mv	s2,a0
   11e90:	fc042783          	lw	a5,-64(s0)
   11e94:	853e                	mv	a0,a5
   11e96:	00004097          	auipc	ra,0x4
   11e9a:	4fc080e7          	jalr	1276(ra) # 16392 <xbrtime_decode_pe>
   11e9e:	87aa                	mv	a5,a0
   11ea0:	0007861b          	sext.w	a2,a5
   11ea4:	fc843783          	ld	a5,-56(s0)
   11ea8:	0007869b          	sext.w	a3,a5
   11eac:	fc442783          	lw	a5,-60(s0)
   11eb0:	2781                	sext.w	a5,a5
   11eb2:	0027979b          	slliw	a5,a5,0x2
   11eb6:	2781                	sext.w	a5,a5
   11eb8:	873e                	mv	a4,a5
   11eba:	85ca                	mv	a1,s2
   11ebc:	8526                	mv	a0,s1
   11ebe:	00005097          	auipc	ra,0x5
   11ec2:	f96080e7          	jalr	-106(ra) # 16e54 <__xbrtime_put_u4_agg>
   11ec6:	a011                	j	11eca <xbrtime_uint_put_nb+0xe8>
   11ec8:	0001                	nop
   11eca:	70e2                	ld	ra,56(sp)
   11ecc:	7442                	ld	s0,48(sp)
   11ece:	74a2                	ld	s1,40(sp)
   11ed0:	7902                	ld	s2,32(sp)
   11ed2:	6121                	addi	sp,sp,64
   11ed4:	8082                	ret

0000000000011ed6 <xbrtime_ulong_put>:
   11ed6:	7139                	addi	sp,sp,-64
   11ed8:	fc06                	sd	ra,56(sp)
   11eda:	f822                	sd	s0,48(sp)
   11edc:	f426                	sd	s1,40(sp)
   11ede:	f04a                	sd	s2,32(sp)
   11ee0:	0080                	addi	s0,sp,64
   11ee2:	fca43c23          	sd	a0,-40(s0)
   11ee6:	fcb43823          	sd	a1,-48(s0)
   11eea:	fcc43423          	sd	a2,-56(s0)
   11eee:	87b6                	mv	a5,a3
   11ef0:	fcf42223          	sw	a5,-60(s0)
   11ef4:	87ba                	mv	a5,a4
   11ef6:	fcf42023          	sw	a5,-64(s0)
   11efa:	fc843783          	ld	a5,-56(s0)
   11efe:	c7cd                	beqz	a5,11fa8 <xbrtime_ulong_put+0xd2>
   11f00:	fc442783          	lw	a5,-60(s0)
   11f04:	0007871b          	sext.w	a4,a5
   11f08:	4785                	li	a5,1
   11f0a:	00f71763          	bne	a4,a5,11f18 <xbrtime_ulong_put+0x42>
   11f0e:	fc843703          	ld	a4,-56(s0)
   11f12:	4785                	li	a5,1
   11f14:	04f71563          	bne	a4,a5,11f5e <xbrtime_ulong_put+0x88>
   11f18:	fd043483          	ld	s1,-48(s0)
   11f1c:	fd843783          	ld	a5,-40(s0)
   11f20:	fc042703          	lw	a4,-64(s0)
   11f24:	85ba                	mv	a1,a4
   11f26:	853e                	mv	a0,a5
   11f28:	8f3fe0ef          	jal	ra,1081a <__xbrtime_ltor>
   11f2c:	892a                	mv	s2,a0
   11f2e:	fc042783          	lw	a5,-64(s0)
   11f32:	853e                	mv	a0,a5
   11f34:	45e040ef          	jal	ra,16392 <xbrtime_decode_pe>
   11f38:	87aa                	mv	a5,a0
   11f3a:	0007861b          	sext.w	a2,a5
   11f3e:	fc843783          	ld	a5,-56(s0)
   11f42:	0007869b          	sext.w	a3,a5
   11f46:	fc442783          	lw	a5,-60(s0)
   11f4a:	2781                	sext.w	a5,a5
   11f4c:	0037979b          	slliw	a5,a5,0x3
   11f50:	2781                	sext.w	a5,a5
   11f52:	873e                	mv	a4,a5
   11f54:	85ca                	mv	a1,s2
   11f56:	8526                	mv	a0,s1
   11f58:	6e1040ef          	jal	ra,16e38 <__xbrtime_put_u4_seq>
   11f5c:	a099                	j	11fa2 <xbrtime_ulong_put+0xcc>
   11f5e:	fd043483          	ld	s1,-48(s0)
   11f62:	fd843783          	ld	a5,-40(s0)
   11f66:	fc042703          	lw	a4,-64(s0)
   11f6a:	85ba                	mv	a1,a4
   11f6c:	853e                	mv	a0,a5
   11f6e:	8adfe0ef          	jal	ra,1081a <__xbrtime_ltor>
   11f72:	892a                	mv	s2,a0
   11f74:	fc042783          	lw	a5,-64(s0)
   11f78:	853e                	mv	a0,a5
   11f7a:	418040ef          	jal	ra,16392 <xbrtime_decode_pe>
   11f7e:	87aa                	mv	a5,a0
   11f80:	0007861b          	sext.w	a2,a5
   11f84:	fc843783          	ld	a5,-56(s0)
   11f88:	0007869b          	sext.w	a3,a5
   11f8c:	fc442783          	lw	a5,-60(s0)
   11f90:	2781                	sext.w	a5,a5
   11f92:	0037979b          	slliw	a5,a5,0x3
   11f96:	2781                	sext.w	a5,a5
   11f98:	873e                	mv	a4,a5
   11f9a:	85ca                	mv	a1,s2
   11f9c:	8526                	mv	a0,s1
   11f9e:	6b7040ef          	jal	ra,16e54 <__xbrtime_put_u4_agg>
   11fa2:	7ad040ef          	jal	ra,16f4e <__xbrtime_asm_fence>
   11fa6:	a011                	j	11faa <xbrtime_ulong_put+0xd4>
   11fa8:	0001                	nop
   11faa:	70e2                	ld	ra,56(sp)
   11fac:	7442                	ld	s0,48(sp)
   11fae:	74a2                	ld	s1,40(sp)
   11fb0:	7902                	ld	s2,32(sp)
   11fb2:	6121                	addi	sp,sp,64
   11fb4:	8082                	ret

0000000000011fb6 <xbrtime_ulong_put_nb>:
   11fb6:	7139                	addi	sp,sp,-64
   11fb8:	fc06                	sd	ra,56(sp)
   11fba:	f822                	sd	s0,48(sp)
   11fbc:	f426                	sd	s1,40(sp)
   11fbe:	f04a                	sd	s2,32(sp)
   11fc0:	0080                	addi	s0,sp,64
   11fc2:	fca43c23          	sd	a0,-40(s0)
   11fc6:	fcb43823          	sd	a1,-48(s0)
   11fca:	fcc43423          	sd	a2,-56(s0)
   11fce:	87b6                	mv	a5,a3
   11fd0:	fcf42223          	sw	a5,-60(s0)
   11fd4:	87ba                	mv	a5,a4
   11fd6:	fcf42023          	sw	a5,-64(s0)
   11fda:	fc843783          	ld	a5,-56(s0)
   11fde:	cfdd                	beqz	a5,1209c <xbrtime_ulong_put_nb+0xe6>
   11fe0:	fc442783          	lw	a5,-60(s0)
   11fe4:	0007871b          	sext.w	a4,a5
   11fe8:	4785                	li	a5,1
   11fea:	00f71763          	bne	a4,a5,11ff8 <xbrtime_ulong_put_nb+0x42>
   11fee:	fc843703          	ld	a4,-56(s0)
   11ff2:	4785                	li	a5,1
   11ff4:	04f71b63          	bne	a4,a5,1204a <xbrtime_ulong_put_nb+0x94>
   11ff8:	fd043483          	ld	s1,-48(s0)
   11ffc:	fd843783          	ld	a5,-40(s0)
   12000:	fc042703          	lw	a4,-64(s0)
   12004:	85ba                	mv	a1,a4
   12006:	853e                	mv	a0,a5
   12008:	fffff097          	auipc	ra,0xfffff
   1200c:	812080e7          	jalr	-2030(ra) # 1081a <__xbrtime_ltor>
   12010:	892a                	mv	s2,a0
   12012:	fc042783          	lw	a5,-64(s0)
   12016:	853e                	mv	a0,a5
   12018:	00004097          	auipc	ra,0x4
   1201c:	37a080e7          	jalr	890(ra) # 16392 <xbrtime_decode_pe>
   12020:	87aa                	mv	a5,a0
   12022:	0007861b          	sext.w	a2,a5
   12026:	fc843783          	ld	a5,-56(s0)
   1202a:	0007869b          	sext.w	a3,a5
   1202e:	fc442783          	lw	a5,-60(s0)
   12032:	2781                	sext.w	a5,a5
   12034:	0037979b          	slliw	a5,a5,0x3
   12038:	2781                	sext.w	a5,a5
   1203a:	873e                	mv	a4,a5
   1203c:	85ca                	mv	a1,s2
   1203e:	8526                	mv	a0,s1
   12040:	00005097          	auipc	ra,0x5
   12044:	df8080e7          	jalr	-520(ra) # 16e38 <__xbrtime_put_u4_seq>
   12048:	a899                	j	1209e <xbrtime_ulong_put_nb+0xe8>
   1204a:	fd043483          	ld	s1,-48(s0)
   1204e:	fd843783          	ld	a5,-40(s0)
   12052:	fc042703          	lw	a4,-64(s0)
   12056:	85ba                	mv	a1,a4
   12058:	853e                	mv	a0,a5
   1205a:	ffffe097          	auipc	ra,0xffffe
   1205e:	7c0080e7          	jalr	1984(ra) # 1081a <__xbrtime_ltor>
   12062:	892a                	mv	s2,a0
   12064:	fc042783          	lw	a5,-64(s0)
   12068:	853e                	mv	a0,a5
   1206a:	00004097          	auipc	ra,0x4
   1206e:	328080e7          	jalr	808(ra) # 16392 <xbrtime_decode_pe>
   12072:	87aa                	mv	a5,a0
   12074:	0007861b          	sext.w	a2,a5
   12078:	fc843783          	ld	a5,-56(s0)
   1207c:	0007869b          	sext.w	a3,a5
   12080:	fc442783          	lw	a5,-60(s0)
   12084:	2781                	sext.w	a5,a5
   12086:	0037979b          	slliw	a5,a5,0x3
   1208a:	2781                	sext.w	a5,a5
   1208c:	873e                	mv	a4,a5
   1208e:	85ca                	mv	a1,s2
   12090:	8526                	mv	a0,s1
   12092:	00005097          	auipc	ra,0x5
   12096:	dc2080e7          	jalr	-574(ra) # 16e54 <__xbrtime_put_u4_agg>
   1209a:	a011                	j	1209e <xbrtime_ulong_put_nb+0xe8>
   1209c:	0001                	nop
   1209e:	70e2                	ld	ra,56(sp)
   120a0:	7442                	ld	s0,48(sp)
   120a2:	74a2                	ld	s1,40(sp)
   120a4:	7902                	ld	s2,32(sp)
   120a6:	6121                	addi	sp,sp,64
   120a8:	8082                	ret

00000000000120aa <xbrtime_ulonglong_put>:
   120aa:	7139                	addi	sp,sp,-64
   120ac:	fc06                	sd	ra,56(sp)
   120ae:	f822                	sd	s0,48(sp)
   120b0:	f426                	sd	s1,40(sp)
   120b2:	f04a                	sd	s2,32(sp)
   120b4:	0080                	addi	s0,sp,64
   120b6:	fca43c23          	sd	a0,-40(s0)
   120ba:	fcb43823          	sd	a1,-48(s0)
   120be:	fcc43423          	sd	a2,-56(s0)
   120c2:	87b6                	mv	a5,a3
   120c4:	fcf42223          	sw	a5,-60(s0)
   120c8:	87ba                	mv	a5,a4
   120ca:	fcf42023          	sw	a5,-64(s0)
   120ce:	fc843783          	ld	a5,-56(s0)
   120d2:	c7cd                	beqz	a5,1217c <xbrtime_ulonglong_put+0xd2>
   120d4:	fc442783          	lw	a5,-60(s0)
   120d8:	0007871b          	sext.w	a4,a5
   120dc:	4785                	li	a5,1
   120de:	00f71763          	bne	a4,a5,120ec <xbrtime_ulonglong_put+0x42>
   120e2:	fc843703          	ld	a4,-56(s0)
   120e6:	4785                	li	a5,1
   120e8:	04f71563          	bne	a4,a5,12132 <xbrtime_ulonglong_put+0x88>
   120ec:	fd043483          	ld	s1,-48(s0)
   120f0:	fd843783          	ld	a5,-40(s0)
   120f4:	fc042703          	lw	a4,-64(s0)
   120f8:	85ba                	mv	a1,a4
   120fa:	853e                	mv	a0,a5
   120fc:	f1efe0ef          	jal	ra,1081a <__xbrtime_ltor>
   12100:	892a                	mv	s2,a0
   12102:	fc042783          	lw	a5,-64(s0)
   12106:	853e                	mv	a0,a5
   12108:	28a040ef          	jal	ra,16392 <xbrtime_decode_pe>
   1210c:	87aa                	mv	a5,a0
   1210e:	0007861b          	sext.w	a2,a5
   12112:	fc843783          	ld	a5,-56(s0)
   12116:	0007869b          	sext.w	a3,a5
   1211a:	fc442783          	lw	a5,-60(s0)
   1211e:	2781                	sext.w	a5,a5
   12120:	0037979b          	slliw	a5,a5,0x3
   12124:	2781                	sext.w	a5,a5
   12126:	873e                	mv	a4,a5
   12128:	85ca                	mv	a1,s2
   1212a:	8526                	mv	a0,s1
   1212c:	537040ef          	jal	ra,16e62 <__xbrtime_put_u8_seq>
   12130:	a099                	j	12176 <xbrtime_ulonglong_put+0xcc>
   12132:	fd043483          	ld	s1,-48(s0)
   12136:	fd843783          	ld	a5,-40(s0)
   1213a:	fc042703          	lw	a4,-64(s0)
   1213e:	85ba                	mv	a1,a4
   12140:	853e                	mv	a0,a5
   12142:	ed8fe0ef          	jal	ra,1081a <__xbrtime_ltor>
   12146:	892a                	mv	s2,a0
   12148:	fc042783          	lw	a5,-64(s0)
   1214c:	853e                	mv	a0,a5
   1214e:	244040ef          	jal	ra,16392 <xbrtime_decode_pe>
   12152:	87aa                	mv	a5,a0
   12154:	0007861b          	sext.w	a2,a5
   12158:	fc843783          	ld	a5,-56(s0)
   1215c:	0007869b          	sext.w	a3,a5
   12160:	fc442783          	lw	a5,-60(s0)
   12164:	2781                	sext.w	a5,a5
   12166:	0037979b          	slliw	a5,a5,0x3
   1216a:	2781                	sext.w	a5,a5
   1216c:	873e                	mv	a4,a5
   1216e:	85ca                	mv	a1,s2
   12170:	8526                	mv	a0,s1
   12172:	50d040ef          	jal	ra,16e7e <__xbrtime_put_u8_agg>
   12176:	5d9040ef          	jal	ra,16f4e <__xbrtime_asm_fence>
   1217a:	a011                	j	1217e <xbrtime_ulonglong_put+0xd4>
   1217c:	0001                	nop
   1217e:	70e2                	ld	ra,56(sp)
   12180:	7442                	ld	s0,48(sp)
   12182:	74a2                	ld	s1,40(sp)
   12184:	7902                	ld	s2,32(sp)
   12186:	6121                	addi	sp,sp,64
   12188:	8082                	ret

000000000001218a <xbrtime_ulonglong_put_nb>:
   1218a:	7139                	addi	sp,sp,-64
   1218c:	fc06                	sd	ra,56(sp)
   1218e:	f822                	sd	s0,48(sp)
   12190:	f426                	sd	s1,40(sp)
   12192:	f04a                	sd	s2,32(sp)
   12194:	0080                	addi	s0,sp,64
   12196:	fca43c23          	sd	a0,-40(s0)
   1219a:	fcb43823          	sd	a1,-48(s0)
   1219e:	fcc43423          	sd	a2,-56(s0)
   121a2:	87b6                	mv	a5,a3
   121a4:	fcf42223          	sw	a5,-60(s0)
   121a8:	87ba                	mv	a5,a4
   121aa:	fcf42023          	sw	a5,-64(s0)
   121ae:	fc843783          	ld	a5,-56(s0)
   121b2:	cfdd                	beqz	a5,12270 <xbrtime_ulonglong_put_nb+0xe6>
   121b4:	fc442783          	lw	a5,-60(s0)
   121b8:	0007871b          	sext.w	a4,a5
   121bc:	4785                	li	a5,1
   121be:	00f71763          	bne	a4,a5,121cc <xbrtime_ulonglong_put_nb+0x42>
   121c2:	fc843703          	ld	a4,-56(s0)
   121c6:	4785                	li	a5,1
   121c8:	04f71b63          	bne	a4,a5,1221e <xbrtime_ulonglong_put_nb+0x94>
   121cc:	fd043483          	ld	s1,-48(s0)
   121d0:	fd843783          	ld	a5,-40(s0)
   121d4:	fc042703          	lw	a4,-64(s0)
   121d8:	85ba                	mv	a1,a4
   121da:	853e                	mv	a0,a5
   121dc:	ffffe097          	auipc	ra,0xffffe
   121e0:	63e080e7          	jalr	1598(ra) # 1081a <__xbrtime_ltor>
   121e4:	892a                	mv	s2,a0
   121e6:	fc042783          	lw	a5,-64(s0)
   121ea:	853e                	mv	a0,a5
   121ec:	00004097          	auipc	ra,0x4
   121f0:	1a6080e7          	jalr	422(ra) # 16392 <xbrtime_decode_pe>
   121f4:	87aa                	mv	a5,a0
   121f6:	0007861b          	sext.w	a2,a5
   121fa:	fc843783          	ld	a5,-56(s0)
   121fe:	0007869b          	sext.w	a3,a5
   12202:	fc442783          	lw	a5,-60(s0)
   12206:	2781                	sext.w	a5,a5
   12208:	0037979b          	slliw	a5,a5,0x3
   1220c:	2781                	sext.w	a5,a5
   1220e:	873e                	mv	a4,a5
   12210:	85ca                	mv	a1,s2
   12212:	8526                	mv	a0,s1
   12214:	00005097          	auipc	ra,0x5
   12218:	c4e080e7          	jalr	-946(ra) # 16e62 <__xbrtime_put_u8_seq>
   1221c:	a899                	j	12272 <xbrtime_ulonglong_put_nb+0xe8>
   1221e:	fd043483          	ld	s1,-48(s0)
   12222:	fd843783          	ld	a5,-40(s0)
   12226:	fc042703          	lw	a4,-64(s0)
   1222a:	85ba                	mv	a1,a4
   1222c:	853e                	mv	a0,a5
   1222e:	ffffe097          	auipc	ra,0xffffe
   12232:	5ec080e7          	jalr	1516(ra) # 1081a <__xbrtime_ltor>
   12236:	892a                	mv	s2,a0
   12238:	fc042783          	lw	a5,-64(s0)
   1223c:	853e                	mv	a0,a5
   1223e:	00004097          	auipc	ra,0x4
   12242:	154080e7          	jalr	340(ra) # 16392 <xbrtime_decode_pe>
   12246:	87aa                	mv	a5,a0
   12248:	0007861b          	sext.w	a2,a5
   1224c:	fc843783          	ld	a5,-56(s0)
   12250:	0007869b          	sext.w	a3,a5
   12254:	fc442783          	lw	a5,-60(s0)
   12258:	2781                	sext.w	a5,a5
   1225a:	0037979b          	slliw	a5,a5,0x3
   1225e:	2781                	sext.w	a5,a5
   12260:	873e                	mv	a4,a5
   12262:	85ca                	mv	a1,s2
   12264:	8526                	mv	a0,s1
   12266:	00005097          	auipc	ra,0x5
   1226a:	c18080e7          	jalr	-1000(ra) # 16e7e <__xbrtime_put_u8_agg>
   1226e:	a011                	j	12272 <xbrtime_ulonglong_put_nb+0xe8>
   12270:	0001                	nop
   12272:	70e2                	ld	ra,56(sp)
   12274:	7442                	ld	s0,48(sp)
   12276:	74a2                	ld	s1,40(sp)
   12278:	7902                	ld	s2,32(sp)
   1227a:	6121                	addi	sp,sp,64
   1227c:	8082                	ret

000000000001227e <xbrtime_int8_put>:
   1227e:	7139                	addi	sp,sp,-64
   12280:	fc06                	sd	ra,56(sp)
   12282:	f822                	sd	s0,48(sp)
   12284:	f426                	sd	s1,40(sp)
   12286:	f04a                	sd	s2,32(sp)
   12288:	0080                	addi	s0,sp,64
   1228a:	fca43c23          	sd	a0,-40(s0)
   1228e:	fcb43823          	sd	a1,-48(s0)
   12292:	fcc43423          	sd	a2,-56(s0)
   12296:	87b6                	mv	a5,a3
   12298:	fcf42223          	sw	a5,-60(s0)
   1229c:	87ba                	mv	a5,a4
   1229e:	fcf42023          	sw	a5,-64(s0)
   122a2:	fc843783          	ld	a5,-56(s0)
   122a6:	cfc9                	beqz	a5,12340 <xbrtime_int8_put+0xc2>
   122a8:	fc442783          	lw	a5,-60(s0)
   122ac:	0007871b          	sext.w	a4,a5
   122b0:	4785                	li	a5,1
   122b2:	00f71763          	bne	a4,a5,122c0 <xbrtime_int8_put+0x42>
   122b6:	fc843703          	ld	a4,-56(s0)
   122ba:	4785                	li	a5,1
   122bc:	04f71163          	bne	a4,a5,122fe <xbrtime_int8_put+0x80>
   122c0:	fd043483          	ld	s1,-48(s0)
   122c4:	fd843783          	ld	a5,-40(s0)
   122c8:	fc042703          	lw	a4,-64(s0)
   122cc:	85ba                	mv	a1,a4
   122ce:	853e                	mv	a0,a5
   122d0:	d4afe0ef          	jal	ra,1081a <__xbrtime_ltor>
   122d4:	892a                	mv	s2,a0
   122d6:	fc042783          	lw	a5,-64(s0)
   122da:	853e                	mv	a0,a5
   122dc:	0b6040ef          	jal	ra,16392 <xbrtime_decode_pe>
   122e0:	87aa                	mv	a5,a0
   122e2:	2781                	sext.w	a5,a5
   122e4:	fc843703          	ld	a4,-56(s0)
   122e8:	0007069b          	sext.w	a3,a4
   122ec:	fc442703          	lw	a4,-60(s0)
   122f0:	2701                	sext.w	a4,a4
   122f2:	863e                	mv	a2,a5
   122f4:	85ca                	mv	a1,s2
   122f6:	8526                	mv	a0,s1
   122f8:	395040ef          	jal	ra,16e8c <__xbrtime_put_s1_seq>
   122fc:	a83d                	j	1233a <xbrtime_int8_put+0xbc>
   122fe:	fd043483          	ld	s1,-48(s0)
   12302:	fd843783          	ld	a5,-40(s0)
   12306:	fc042703          	lw	a4,-64(s0)
   1230a:	85ba                	mv	a1,a4
   1230c:	853e                	mv	a0,a5
   1230e:	d0cfe0ef          	jal	ra,1081a <__xbrtime_ltor>
   12312:	892a                	mv	s2,a0
   12314:	fc042783          	lw	a5,-64(s0)
   12318:	853e                	mv	a0,a5
   1231a:	078040ef          	jal	ra,16392 <xbrtime_decode_pe>
   1231e:	87aa                	mv	a5,a0
   12320:	2781                	sext.w	a5,a5
   12322:	fc843703          	ld	a4,-56(s0)
   12326:	0007069b          	sext.w	a3,a4
   1232a:	fc442703          	lw	a4,-60(s0)
   1232e:	2701                	sext.w	a4,a4
   12330:	863e                	mv	a2,a5
   12332:	85ca                	mv	a1,s2
   12334:	8526                	mv	a0,s1
   12336:	373040ef          	jal	ra,16ea8 <__xbrtime_put_s1_agg>
   1233a:	415040ef          	jal	ra,16f4e <__xbrtime_asm_fence>
   1233e:	a011                	j	12342 <xbrtime_int8_put+0xc4>
   12340:	0001                	nop
   12342:	70e2                	ld	ra,56(sp)
   12344:	7442                	ld	s0,48(sp)
   12346:	74a2                	ld	s1,40(sp)
   12348:	7902                	ld	s2,32(sp)
   1234a:	6121                	addi	sp,sp,64
   1234c:	8082                	ret

000000000001234e <xbrtime_int8_put_nb>:
   1234e:	7139                	addi	sp,sp,-64
   12350:	fc06                	sd	ra,56(sp)
   12352:	f822                	sd	s0,48(sp)
   12354:	f426                	sd	s1,40(sp)
   12356:	f04a                	sd	s2,32(sp)
   12358:	0080                	addi	s0,sp,64
   1235a:	fca43c23          	sd	a0,-40(s0)
   1235e:	fcb43823          	sd	a1,-48(s0)
   12362:	fcc43423          	sd	a2,-56(s0)
   12366:	87b6                	mv	a5,a3
   12368:	fcf42223          	sw	a5,-60(s0)
   1236c:	87ba                	mv	a5,a4
   1236e:	fcf42023          	sw	a5,-64(s0)
   12372:	fc843783          	ld	a5,-56(s0)
   12376:	c7dd                	beqz	a5,12424 <xbrtime_int8_put_nb+0xd6>
   12378:	fc442783          	lw	a5,-60(s0)
   1237c:	0007871b          	sext.w	a4,a5
   12380:	4785                	li	a5,1
   12382:	00f71763          	bne	a4,a5,12390 <xbrtime_int8_put_nb+0x42>
   12386:	fc843703          	ld	a4,-56(s0)
   1238a:	4785                	li	a5,1
   1238c:	04f71763          	bne	a4,a5,123da <xbrtime_int8_put_nb+0x8c>
   12390:	fd043483          	ld	s1,-48(s0)
   12394:	fd843783          	ld	a5,-40(s0)
   12398:	fc042703          	lw	a4,-64(s0)
   1239c:	85ba                	mv	a1,a4
   1239e:	853e                	mv	a0,a5
   123a0:	ffffe097          	auipc	ra,0xffffe
   123a4:	47a080e7          	jalr	1146(ra) # 1081a <__xbrtime_ltor>
   123a8:	892a                	mv	s2,a0
   123aa:	fc042783          	lw	a5,-64(s0)
   123ae:	853e                	mv	a0,a5
   123b0:	00004097          	auipc	ra,0x4
   123b4:	fe2080e7          	jalr	-30(ra) # 16392 <xbrtime_decode_pe>
   123b8:	87aa                	mv	a5,a0
   123ba:	2781                	sext.w	a5,a5
   123bc:	fc843703          	ld	a4,-56(s0)
   123c0:	0007069b          	sext.w	a3,a4
   123c4:	fc442703          	lw	a4,-60(s0)
   123c8:	2701                	sext.w	a4,a4
   123ca:	863e                	mv	a2,a5
   123cc:	85ca                	mv	a1,s2
   123ce:	8526                	mv	a0,s1
   123d0:	00005097          	auipc	ra,0x5
   123d4:	abc080e7          	jalr	-1348(ra) # 16e8c <__xbrtime_put_s1_seq>
   123d8:	a0b9                	j	12426 <xbrtime_int8_put_nb+0xd8>
   123da:	fd043483          	ld	s1,-48(s0)
   123de:	fd843783          	ld	a5,-40(s0)
   123e2:	fc042703          	lw	a4,-64(s0)
   123e6:	85ba                	mv	a1,a4
   123e8:	853e                	mv	a0,a5
   123ea:	ffffe097          	auipc	ra,0xffffe
   123ee:	430080e7          	jalr	1072(ra) # 1081a <__xbrtime_ltor>
   123f2:	892a                	mv	s2,a0
   123f4:	fc042783          	lw	a5,-64(s0)
   123f8:	853e                	mv	a0,a5
   123fa:	00004097          	auipc	ra,0x4
   123fe:	f98080e7          	jalr	-104(ra) # 16392 <xbrtime_decode_pe>
   12402:	87aa                	mv	a5,a0
   12404:	2781                	sext.w	a5,a5
   12406:	fc843703          	ld	a4,-56(s0)
   1240a:	0007069b          	sext.w	a3,a4
   1240e:	fc442703          	lw	a4,-60(s0)
   12412:	2701                	sext.w	a4,a4
   12414:	863e                	mv	a2,a5
   12416:	85ca                	mv	a1,s2
   12418:	8526                	mv	a0,s1
   1241a:	00005097          	auipc	ra,0x5
   1241e:	a8e080e7          	jalr	-1394(ra) # 16ea8 <__xbrtime_put_s1_agg>
   12422:	a011                	j	12426 <xbrtime_int8_put_nb+0xd8>
   12424:	0001                	nop
   12426:	70e2                	ld	ra,56(sp)
   12428:	7442                	ld	s0,48(sp)
   1242a:	74a2                	ld	s1,40(sp)
   1242c:	7902                	ld	s2,32(sp)
   1242e:	6121                	addi	sp,sp,64
   12430:	8082                	ret

0000000000012432 <xbrtime_int16_put>:
   12432:	7139                	addi	sp,sp,-64
   12434:	fc06                	sd	ra,56(sp)
   12436:	f822                	sd	s0,48(sp)
   12438:	f426                	sd	s1,40(sp)
   1243a:	f04a                	sd	s2,32(sp)
   1243c:	0080                	addi	s0,sp,64
   1243e:	fca43c23          	sd	a0,-40(s0)
   12442:	fcb43823          	sd	a1,-48(s0)
   12446:	fcc43423          	sd	a2,-56(s0)
   1244a:	87b6                	mv	a5,a3
   1244c:	fcf42223          	sw	a5,-60(s0)
   12450:	87ba                	mv	a5,a4
   12452:	fcf42023          	sw	a5,-64(s0)
   12456:	fc843783          	ld	a5,-56(s0)
   1245a:	c7cd                	beqz	a5,12504 <xbrtime_int16_put+0xd2>
   1245c:	fc442783          	lw	a5,-60(s0)
   12460:	0007871b          	sext.w	a4,a5
   12464:	4785                	li	a5,1
   12466:	00f71763          	bne	a4,a5,12474 <xbrtime_int16_put+0x42>
   1246a:	fc843703          	ld	a4,-56(s0)
   1246e:	4785                	li	a5,1
   12470:	04f71563          	bne	a4,a5,124ba <xbrtime_int16_put+0x88>
   12474:	fd043483          	ld	s1,-48(s0)
   12478:	fd843783          	ld	a5,-40(s0)
   1247c:	fc042703          	lw	a4,-64(s0)
   12480:	85ba                	mv	a1,a4
   12482:	853e                	mv	a0,a5
   12484:	b96fe0ef          	jal	ra,1081a <__xbrtime_ltor>
   12488:	892a                	mv	s2,a0
   1248a:	fc042783          	lw	a5,-64(s0)
   1248e:	853e                	mv	a0,a5
   12490:	703030ef          	jal	ra,16392 <xbrtime_decode_pe>
   12494:	87aa                	mv	a5,a0
   12496:	0007861b          	sext.w	a2,a5
   1249a:	fc843783          	ld	a5,-56(s0)
   1249e:	0007869b          	sext.w	a3,a5
   124a2:	fc442783          	lw	a5,-60(s0)
   124a6:	2781                	sext.w	a5,a5
   124a8:	0017979b          	slliw	a5,a5,0x1
   124ac:	2781                	sext.w	a5,a5
   124ae:	873e                	mv	a4,a5
   124b0:	85ca                	mv	a1,s2
   124b2:	8526                	mv	a0,s1
   124b4:	203040ef          	jal	ra,16eb6 <__xbrtime_put_s2_seq>
   124b8:	a099                	j	124fe <xbrtime_int16_put+0xcc>
   124ba:	fd043483          	ld	s1,-48(s0)
   124be:	fd843783          	ld	a5,-40(s0)
   124c2:	fc042703          	lw	a4,-64(s0)
   124c6:	85ba                	mv	a1,a4
   124c8:	853e                	mv	a0,a5
   124ca:	b50fe0ef          	jal	ra,1081a <__xbrtime_ltor>
   124ce:	892a                	mv	s2,a0
   124d0:	fc042783          	lw	a5,-64(s0)
   124d4:	853e                	mv	a0,a5
   124d6:	6bd030ef          	jal	ra,16392 <xbrtime_decode_pe>
   124da:	87aa                	mv	a5,a0
   124dc:	0007861b          	sext.w	a2,a5
   124e0:	fc843783          	ld	a5,-56(s0)
   124e4:	0007869b          	sext.w	a3,a5
   124e8:	fc442783          	lw	a5,-60(s0)
   124ec:	2781                	sext.w	a5,a5
   124ee:	0017979b          	slliw	a5,a5,0x1
   124f2:	2781                	sext.w	a5,a5
   124f4:	873e                	mv	a4,a5
   124f6:	85ca                	mv	a1,s2
   124f8:	8526                	mv	a0,s1
   124fa:	1d9040ef          	jal	ra,16ed2 <__xbrtime_put_s2_agg>
   124fe:	251040ef          	jal	ra,16f4e <__xbrtime_asm_fence>
   12502:	a011                	j	12506 <xbrtime_int16_put+0xd4>
   12504:	0001                	nop
   12506:	70e2                	ld	ra,56(sp)
   12508:	7442                	ld	s0,48(sp)
   1250a:	74a2                	ld	s1,40(sp)
   1250c:	7902                	ld	s2,32(sp)
   1250e:	6121                	addi	sp,sp,64
   12510:	8082                	ret

0000000000012512 <xbrtime_int16_put_nb>:
   12512:	7139                	addi	sp,sp,-64
   12514:	fc06                	sd	ra,56(sp)
   12516:	f822                	sd	s0,48(sp)
   12518:	f426                	sd	s1,40(sp)
   1251a:	f04a                	sd	s2,32(sp)
   1251c:	0080                	addi	s0,sp,64
   1251e:	fca43c23          	sd	a0,-40(s0)
   12522:	fcb43823          	sd	a1,-48(s0)
   12526:	fcc43423          	sd	a2,-56(s0)
   1252a:	87b6                	mv	a5,a3
   1252c:	fcf42223          	sw	a5,-60(s0)
   12530:	87ba                	mv	a5,a4
   12532:	fcf42023          	sw	a5,-64(s0)
   12536:	fc843783          	ld	a5,-56(s0)
   1253a:	cfdd                	beqz	a5,125f8 <xbrtime_int16_put_nb+0xe6>
   1253c:	fc442783          	lw	a5,-60(s0)
   12540:	0007871b          	sext.w	a4,a5
   12544:	4785                	li	a5,1
   12546:	00f71763          	bne	a4,a5,12554 <xbrtime_int16_put_nb+0x42>
   1254a:	fc843703          	ld	a4,-56(s0)
   1254e:	4785                	li	a5,1
   12550:	04f71b63          	bne	a4,a5,125a6 <xbrtime_int16_put_nb+0x94>
   12554:	fd043483          	ld	s1,-48(s0)
   12558:	fd843783          	ld	a5,-40(s0)
   1255c:	fc042703          	lw	a4,-64(s0)
   12560:	85ba                	mv	a1,a4
   12562:	853e                	mv	a0,a5
   12564:	ffffe097          	auipc	ra,0xffffe
   12568:	2b6080e7          	jalr	694(ra) # 1081a <__xbrtime_ltor>
   1256c:	892a                	mv	s2,a0
   1256e:	fc042783          	lw	a5,-64(s0)
   12572:	853e                	mv	a0,a5
   12574:	00004097          	auipc	ra,0x4
   12578:	e1e080e7          	jalr	-482(ra) # 16392 <xbrtime_decode_pe>
   1257c:	87aa                	mv	a5,a0
   1257e:	0007861b          	sext.w	a2,a5
   12582:	fc843783          	ld	a5,-56(s0)
   12586:	0007869b          	sext.w	a3,a5
   1258a:	fc442783          	lw	a5,-60(s0)
   1258e:	2781                	sext.w	a5,a5
   12590:	0017979b          	slliw	a5,a5,0x1
   12594:	2781                	sext.w	a5,a5
   12596:	873e                	mv	a4,a5
   12598:	85ca                	mv	a1,s2
   1259a:	8526                	mv	a0,s1
   1259c:	00005097          	auipc	ra,0x5
   125a0:	91a080e7          	jalr	-1766(ra) # 16eb6 <__xbrtime_put_s2_seq>
   125a4:	a899                	j	125fa <xbrtime_int16_put_nb+0xe8>
   125a6:	fd043483          	ld	s1,-48(s0)
   125aa:	fd843783          	ld	a5,-40(s0)
   125ae:	fc042703          	lw	a4,-64(s0)
   125b2:	85ba                	mv	a1,a4
   125b4:	853e                	mv	a0,a5
   125b6:	ffffe097          	auipc	ra,0xffffe
   125ba:	264080e7          	jalr	612(ra) # 1081a <__xbrtime_ltor>
   125be:	892a                	mv	s2,a0
   125c0:	fc042783          	lw	a5,-64(s0)
   125c4:	853e                	mv	a0,a5
   125c6:	00004097          	auipc	ra,0x4
   125ca:	dcc080e7          	jalr	-564(ra) # 16392 <xbrtime_decode_pe>
   125ce:	87aa                	mv	a5,a0
   125d0:	0007861b          	sext.w	a2,a5
   125d4:	fc843783          	ld	a5,-56(s0)
   125d8:	0007869b          	sext.w	a3,a5
   125dc:	fc442783          	lw	a5,-60(s0)
   125e0:	2781                	sext.w	a5,a5
   125e2:	0017979b          	slliw	a5,a5,0x1
   125e6:	2781                	sext.w	a5,a5
   125e8:	873e                	mv	a4,a5
   125ea:	85ca                	mv	a1,s2
   125ec:	8526                	mv	a0,s1
   125ee:	00005097          	auipc	ra,0x5
   125f2:	8e4080e7          	jalr	-1820(ra) # 16ed2 <__xbrtime_put_s2_agg>
   125f6:	a011                	j	125fa <xbrtime_int16_put_nb+0xe8>
   125f8:	0001                	nop
   125fa:	70e2                	ld	ra,56(sp)
   125fc:	7442                	ld	s0,48(sp)
   125fe:	74a2                	ld	s1,40(sp)
   12600:	7902                	ld	s2,32(sp)
   12602:	6121                	addi	sp,sp,64
   12604:	8082                	ret

0000000000012606 <xbrtime_int32_put>:
   12606:	7139                	addi	sp,sp,-64
   12608:	fc06                	sd	ra,56(sp)
   1260a:	f822                	sd	s0,48(sp)
   1260c:	f426                	sd	s1,40(sp)
   1260e:	f04a                	sd	s2,32(sp)
   12610:	0080                	addi	s0,sp,64
   12612:	fca43c23          	sd	a0,-40(s0)
   12616:	fcb43823          	sd	a1,-48(s0)
   1261a:	fcc43423          	sd	a2,-56(s0)
   1261e:	87b6                	mv	a5,a3
   12620:	fcf42223          	sw	a5,-60(s0)
   12624:	87ba                	mv	a5,a4
   12626:	fcf42023          	sw	a5,-64(s0)
   1262a:	fc843783          	ld	a5,-56(s0)
   1262e:	c7cd                	beqz	a5,126d8 <xbrtime_int32_put+0xd2>
   12630:	fc442783          	lw	a5,-60(s0)
   12634:	0007871b          	sext.w	a4,a5
   12638:	4785                	li	a5,1
   1263a:	00f71763          	bne	a4,a5,12648 <xbrtime_int32_put+0x42>
   1263e:	fc843703          	ld	a4,-56(s0)
   12642:	4785                	li	a5,1
   12644:	04f71563          	bne	a4,a5,1268e <xbrtime_int32_put+0x88>
   12648:	fd043483          	ld	s1,-48(s0)
   1264c:	fd843783          	ld	a5,-40(s0)
   12650:	fc042703          	lw	a4,-64(s0)
   12654:	85ba                	mv	a1,a4
   12656:	853e                	mv	a0,a5
   12658:	9c2fe0ef          	jal	ra,1081a <__xbrtime_ltor>
   1265c:	892a                	mv	s2,a0
   1265e:	fc042783          	lw	a5,-64(s0)
   12662:	853e                	mv	a0,a5
   12664:	52f030ef          	jal	ra,16392 <xbrtime_decode_pe>
   12668:	87aa                	mv	a5,a0
   1266a:	0007861b          	sext.w	a2,a5
   1266e:	fc843783          	ld	a5,-56(s0)
   12672:	0007869b          	sext.w	a3,a5
   12676:	fc442783          	lw	a5,-60(s0)
   1267a:	2781                	sext.w	a5,a5
   1267c:	0027979b          	slliw	a5,a5,0x2
   12680:	2781                	sext.w	a5,a5
   12682:	873e                	mv	a4,a5
   12684:	85ca                	mv	a1,s2
   12686:	8526                	mv	a0,s1
   12688:	059040ef          	jal	ra,16ee0 <__xbrtime_put_s4_seq>
   1268c:	a099                	j	126d2 <xbrtime_int32_put+0xcc>
   1268e:	fd043483          	ld	s1,-48(s0)
   12692:	fd843783          	ld	a5,-40(s0)
   12696:	fc042703          	lw	a4,-64(s0)
   1269a:	85ba                	mv	a1,a4
   1269c:	853e                	mv	a0,a5
   1269e:	97cfe0ef          	jal	ra,1081a <__xbrtime_ltor>
   126a2:	892a                	mv	s2,a0
   126a4:	fc042783          	lw	a5,-64(s0)
   126a8:	853e                	mv	a0,a5
   126aa:	4e9030ef          	jal	ra,16392 <xbrtime_decode_pe>
   126ae:	87aa                	mv	a5,a0
   126b0:	0007861b          	sext.w	a2,a5
   126b4:	fc843783          	ld	a5,-56(s0)
   126b8:	0007869b          	sext.w	a3,a5
   126bc:	fc442783          	lw	a5,-60(s0)
   126c0:	2781                	sext.w	a5,a5
   126c2:	0027979b          	slliw	a5,a5,0x2
   126c6:	2781                	sext.w	a5,a5
   126c8:	873e                	mv	a4,a5
   126ca:	85ca                	mv	a1,s2
   126cc:	8526                	mv	a0,s1
   126ce:	02f040ef          	jal	ra,16efc <__xbrtime_put_s4_agg>
   126d2:	07d040ef          	jal	ra,16f4e <__xbrtime_asm_fence>
   126d6:	a011                	j	126da <xbrtime_int32_put+0xd4>
   126d8:	0001                	nop
   126da:	70e2                	ld	ra,56(sp)
   126dc:	7442                	ld	s0,48(sp)
   126de:	74a2                	ld	s1,40(sp)
   126e0:	7902                	ld	s2,32(sp)
   126e2:	6121                	addi	sp,sp,64
   126e4:	8082                	ret

00000000000126e6 <xbrtime_int32_put_nb>:
   126e6:	7139                	addi	sp,sp,-64
   126e8:	fc06                	sd	ra,56(sp)
   126ea:	f822                	sd	s0,48(sp)
   126ec:	f426                	sd	s1,40(sp)
   126ee:	f04a                	sd	s2,32(sp)
   126f0:	0080                	addi	s0,sp,64
   126f2:	fca43c23          	sd	a0,-40(s0)
   126f6:	fcb43823          	sd	a1,-48(s0)
   126fa:	fcc43423          	sd	a2,-56(s0)
   126fe:	87b6                	mv	a5,a3
   12700:	fcf42223          	sw	a5,-60(s0)
   12704:	87ba                	mv	a5,a4
   12706:	fcf42023          	sw	a5,-64(s0)
   1270a:	fc843783          	ld	a5,-56(s0)
   1270e:	cfdd                	beqz	a5,127cc <xbrtime_int32_put_nb+0xe6>
   12710:	fc442783          	lw	a5,-60(s0)
   12714:	0007871b          	sext.w	a4,a5
   12718:	4785                	li	a5,1
   1271a:	00f71763          	bne	a4,a5,12728 <xbrtime_int32_put_nb+0x42>
   1271e:	fc843703          	ld	a4,-56(s0)
   12722:	4785                	li	a5,1
   12724:	04f71b63          	bne	a4,a5,1277a <xbrtime_int32_put_nb+0x94>
   12728:	fd043483          	ld	s1,-48(s0)
   1272c:	fd843783          	ld	a5,-40(s0)
   12730:	fc042703          	lw	a4,-64(s0)
   12734:	85ba                	mv	a1,a4
   12736:	853e                	mv	a0,a5
   12738:	ffffe097          	auipc	ra,0xffffe
   1273c:	0e2080e7          	jalr	226(ra) # 1081a <__xbrtime_ltor>
   12740:	892a                	mv	s2,a0
   12742:	fc042783          	lw	a5,-64(s0)
   12746:	853e                	mv	a0,a5
   12748:	00004097          	auipc	ra,0x4
   1274c:	c4a080e7          	jalr	-950(ra) # 16392 <xbrtime_decode_pe>
   12750:	87aa                	mv	a5,a0
   12752:	0007861b          	sext.w	a2,a5
   12756:	fc843783          	ld	a5,-56(s0)
   1275a:	0007869b          	sext.w	a3,a5
   1275e:	fc442783          	lw	a5,-60(s0)
   12762:	2781                	sext.w	a5,a5
   12764:	0027979b          	slliw	a5,a5,0x2
   12768:	2781                	sext.w	a5,a5
   1276a:	873e                	mv	a4,a5
   1276c:	85ca                	mv	a1,s2
   1276e:	8526                	mv	a0,s1
   12770:	00004097          	auipc	ra,0x4
   12774:	770080e7          	jalr	1904(ra) # 16ee0 <__xbrtime_put_s4_seq>
   12778:	a899                	j	127ce <xbrtime_int32_put_nb+0xe8>
   1277a:	fd043483          	ld	s1,-48(s0)
   1277e:	fd843783          	ld	a5,-40(s0)
   12782:	fc042703          	lw	a4,-64(s0)
   12786:	85ba                	mv	a1,a4
   12788:	853e                	mv	a0,a5
   1278a:	ffffe097          	auipc	ra,0xffffe
   1278e:	090080e7          	jalr	144(ra) # 1081a <__xbrtime_ltor>
   12792:	892a                	mv	s2,a0
   12794:	fc042783          	lw	a5,-64(s0)
   12798:	853e                	mv	a0,a5
   1279a:	00004097          	auipc	ra,0x4
   1279e:	bf8080e7          	jalr	-1032(ra) # 16392 <xbrtime_decode_pe>
   127a2:	87aa                	mv	a5,a0
   127a4:	0007861b          	sext.w	a2,a5
   127a8:	fc843783          	ld	a5,-56(s0)
   127ac:	0007869b          	sext.w	a3,a5
   127b0:	fc442783          	lw	a5,-60(s0)
   127b4:	2781                	sext.w	a5,a5
   127b6:	0027979b          	slliw	a5,a5,0x2
   127ba:	2781                	sext.w	a5,a5
   127bc:	873e                	mv	a4,a5
   127be:	85ca                	mv	a1,s2
   127c0:	8526                	mv	a0,s1
   127c2:	00004097          	auipc	ra,0x4
   127c6:	73a080e7          	jalr	1850(ra) # 16efc <__xbrtime_put_s4_agg>
   127ca:	a011                	j	127ce <xbrtime_int32_put_nb+0xe8>
   127cc:	0001                	nop
   127ce:	70e2                	ld	ra,56(sp)
   127d0:	7442                	ld	s0,48(sp)
   127d2:	74a2                	ld	s1,40(sp)
   127d4:	7902                	ld	s2,32(sp)
   127d6:	6121                	addi	sp,sp,64
   127d8:	8082                	ret

00000000000127da <xbrtime_int64_put>:
   127da:	7139                	addi	sp,sp,-64
   127dc:	fc06                	sd	ra,56(sp)
   127de:	f822                	sd	s0,48(sp)
   127e0:	f426                	sd	s1,40(sp)
   127e2:	f04a                	sd	s2,32(sp)
   127e4:	0080                	addi	s0,sp,64
   127e6:	fca43c23          	sd	a0,-40(s0)
   127ea:	fcb43823          	sd	a1,-48(s0)
   127ee:	fcc43423          	sd	a2,-56(s0)
   127f2:	87b6                	mv	a5,a3
   127f4:	fcf42223          	sw	a5,-60(s0)
   127f8:	87ba                	mv	a5,a4
   127fa:	fcf42023          	sw	a5,-64(s0)
   127fe:	fc843783          	ld	a5,-56(s0)
   12802:	c7cd                	beqz	a5,128ac <xbrtime_int64_put+0xd2>
   12804:	fc442783          	lw	a5,-60(s0)
   12808:	0007871b          	sext.w	a4,a5
   1280c:	4785                	li	a5,1
   1280e:	00f71763          	bne	a4,a5,1281c <xbrtime_int64_put+0x42>
   12812:	fc843703          	ld	a4,-56(s0)
   12816:	4785                	li	a5,1
   12818:	04f71563          	bne	a4,a5,12862 <xbrtime_int64_put+0x88>
   1281c:	fd043483          	ld	s1,-48(s0)
   12820:	fd843783          	ld	a5,-40(s0)
   12824:	fc042703          	lw	a4,-64(s0)
   12828:	85ba                	mv	a1,a4
   1282a:	853e                	mv	a0,a5
   1282c:	feffd0ef          	jal	ra,1081a <__xbrtime_ltor>
   12830:	892a                	mv	s2,a0
   12832:	fc042783          	lw	a5,-64(s0)
   12836:	853e                	mv	a0,a5
   12838:	35b030ef          	jal	ra,16392 <xbrtime_decode_pe>
   1283c:	87aa                	mv	a5,a0
   1283e:	0007861b          	sext.w	a2,a5
   12842:	fc843783          	ld	a5,-56(s0)
   12846:	0007869b          	sext.w	a3,a5
   1284a:	fc442783          	lw	a5,-60(s0)
   1284e:	2781                	sext.w	a5,a5
   12850:	0037979b          	slliw	a5,a5,0x3
   12854:	2781                	sext.w	a5,a5
   12856:	873e                	mv	a4,a5
   12858:	85ca                	mv	a1,s2
   1285a:	8526                	mv	a0,s1
   1285c:	6ae040ef          	jal	ra,16f0a <__xbrtime_put_s8_seq>
   12860:	a099                	j	128a6 <xbrtime_int64_put+0xcc>
   12862:	fd043483          	ld	s1,-48(s0)
   12866:	fd843783          	ld	a5,-40(s0)
   1286a:	fc042703          	lw	a4,-64(s0)
   1286e:	85ba                	mv	a1,a4
   12870:	853e                	mv	a0,a5
   12872:	fa9fd0ef          	jal	ra,1081a <__xbrtime_ltor>
   12876:	892a                	mv	s2,a0
   12878:	fc042783          	lw	a5,-64(s0)
   1287c:	853e                	mv	a0,a5
   1287e:	315030ef          	jal	ra,16392 <xbrtime_decode_pe>
   12882:	87aa                	mv	a5,a0
   12884:	0007861b          	sext.w	a2,a5
   12888:	fc843783          	ld	a5,-56(s0)
   1288c:	0007869b          	sext.w	a3,a5
   12890:	fc442783          	lw	a5,-60(s0)
   12894:	2781                	sext.w	a5,a5
   12896:	0037979b          	slliw	a5,a5,0x3
   1289a:	2781                	sext.w	a5,a5
   1289c:	873e                	mv	a4,a5
   1289e:	85ca                	mv	a1,s2
   128a0:	8526                	mv	a0,s1
   128a2:	684040ef          	jal	ra,16f26 <__xbrtime_put_s8_agg>
   128a6:	6a8040ef          	jal	ra,16f4e <__xbrtime_asm_fence>
   128aa:	a011                	j	128ae <xbrtime_int64_put+0xd4>
   128ac:	0001                	nop
   128ae:	70e2                	ld	ra,56(sp)
   128b0:	7442                	ld	s0,48(sp)
   128b2:	74a2                	ld	s1,40(sp)
   128b4:	7902                	ld	s2,32(sp)
   128b6:	6121                	addi	sp,sp,64
   128b8:	8082                	ret

00000000000128ba <xbrtime_int64_put_nb>:
   128ba:	7139                	addi	sp,sp,-64
   128bc:	fc06                	sd	ra,56(sp)
   128be:	f822                	sd	s0,48(sp)
   128c0:	f426                	sd	s1,40(sp)
   128c2:	f04a                	sd	s2,32(sp)
   128c4:	0080                	addi	s0,sp,64
   128c6:	fca43c23          	sd	a0,-40(s0)
   128ca:	fcb43823          	sd	a1,-48(s0)
   128ce:	fcc43423          	sd	a2,-56(s0)
   128d2:	87b6                	mv	a5,a3
   128d4:	fcf42223          	sw	a5,-60(s0)
   128d8:	87ba                	mv	a5,a4
   128da:	fcf42023          	sw	a5,-64(s0)
   128de:	fc843783          	ld	a5,-56(s0)
   128e2:	cfdd                	beqz	a5,129a0 <xbrtime_int64_put_nb+0xe6>
   128e4:	fc442783          	lw	a5,-60(s0)
   128e8:	0007871b          	sext.w	a4,a5
   128ec:	4785                	li	a5,1
   128ee:	00f71763          	bne	a4,a5,128fc <xbrtime_int64_put_nb+0x42>
   128f2:	fc843703          	ld	a4,-56(s0)
   128f6:	4785                	li	a5,1
   128f8:	04f71b63          	bne	a4,a5,1294e <xbrtime_int64_put_nb+0x94>
   128fc:	fd043483          	ld	s1,-48(s0)
   12900:	fd843783          	ld	a5,-40(s0)
   12904:	fc042703          	lw	a4,-64(s0)
   12908:	85ba                	mv	a1,a4
   1290a:	853e                	mv	a0,a5
   1290c:	ffffe097          	auipc	ra,0xffffe
   12910:	f0e080e7          	jalr	-242(ra) # 1081a <__xbrtime_ltor>
   12914:	892a                	mv	s2,a0
   12916:	fc042783          	lw	a5,-64(s0)
   1291a:	853e                	mv	a0,a5
   1291c:	00004097          	auipc	ra,0x4
   12920:	a76080e7          	jalr	-1418(ra) # 16392 <xbrtime_decode_pe>
   12924:	87aa                	mv	a5,a0
   12926:	0007861b          	sext.w	a2,a5
   1292a:	fc843783          	ld	a5,-56(s0)
   1292e:	0007869b          	sext.w	a3,a5
   12932:	fc442783          	lw	a5,-60(s0)
   12936:	2781                	sext.w	a5,a5
   12938:	0037979b          	slliw	a5,a5,0x3
   1293c:	2781                	sext.w	a5,a5
   1293e:	873e                	mv	a4,a5
   12940:	85ca                	mv	a1,s2
   12942:	8526                	mv	a0,s1
   12944:	00004097          	auipc	ra,0x4
   12948:	5c6080e7          	jalr	1478(ra) # 16f0a <__xbrtime_put_s8_seq>
   1294c:	a899                	j	129a2 <xbrtime_int64_put_nb+0xe8>
   1294e:	fd043483          	ld	s1,-48(s0)
   12952:	fd843783          	ld	a5,-40(s0)
   12956:	fc042703          	lw	a4,-64(s0)
   1295a:	85ba                	mv	a1,a4
   1295c:	853e                	mv	a0,a5
   1295e:	ffffe097          	auipc	ra,0xffffe
   12962:	ebc080e7          	jalr	-324(ra) # 1081a <__xbrtime_ltor>
   12966:	892a                	mv	s2,a0
   12968:	fc042783          	lw	a5,-64(s0)
   1296c:	853e                	mv	a0,a5
   1296e:	00004097          	auipc	ra,0x4
   12972:	a24080e7          	jalr	-1500(ra) # 16392 <xbrtime_decode_pe>
   12976:	87aa                	mv	a5,a0
   12978:	0007861b          	sext.w	a2,a5
   1297c:	fc843783          	ld	a5,-56(s0)
   12980:	0007869b          	sext.w	a3,a5
   12984:	fc442783          	lw	a5,-60(s0)
   12988:	2781                	sext.w	a5,a5
   1298a:	0037979b          	slliw	a5,a5,0x3
   1298e:	2781                	sext.w	a5,a5
   12990:	873e                	mv	a4,a5
   12992:	85ca                	mv	a1,s2
   12994:	8526                	mv	a0,s1
   12996:	00004097          	auipc	ra,0x4
   1299a:	590080e7          	jalr	1424(ra) # 16f26 <__xbrtime_put_s8_agg>
   1299e:	a011                	j	129a2 <xbrtime_int64_put_nb+0xe8>
   129a0:	0001                	nop
   129a2:	70e2                	ld	ra,56(sp)
   129a4:	7442                	ld	s0,48(sp)
   129a6:	74a2                	ld	s1,40(sp)
   129a8:	7902                	ld	s2,32(sp)
   129aa:	6121                	addi	sp,sp,64
   129ac:	8082                	ret

00000000000129ae <xbrtime_uint8_put>:
   129ae:	7139                	addi	sp,sp,-64
   129b0:	fc06                	sd	ra,56(sp)
   129b2:	f822                	sd	s0,48(sp)
   129b4:	f426                	sd	s1,40(sp)
   129b6:	f04a                	sd	s2,32(sp)
   129b8:	0080                	addi	s0,sp,64
   129ba:	fca43c23          	sd	a0,-40(s0)
   129be:	fcb43823          	sd	a1,-48(s0)
   129c2:	fcc43423          	sd	a2,-56(s0)
   129c6:	87b6                	mv	a5,a3
   129c8:	fcf42223          	sw	a5,-60(s0)
   129cc:	87ba                	mv	a5,a4
   129ce:	fcf42023          	sw	a5,-64(s0)
   129d2:	fc843783          	ld	a5,-56(s0)
   129d6:	cfc9                	beqz	a5,12a70 <xbrtime_uint8_put+0xc2>
   129d8:	fc442783          	lw	a5,-60(s0)
   129dc:	0007871b          	sext.w	a4,a5
   129e0:	4785                	li	a5,1
   129e2:	00f71763          	bne	a4,a5,129f0 <xbrtime_uint8_put+0x42>
   129e6:	fc843703          	ld	a4,-56(s0)
   129ea:	4785                	li	a5,1
   129ec:	04f71163          	bne	a4,a5,12a2e <xbrtime_uint8_put+0x80>
   129f0:	fd043483          	ld	s1,-48(s0)
   129f4:	fd843783          	ld	a5,-40(s0)
   129f8:	fc042703          	lw	a4,-64(s0)
   129fc:	85ba                	mv	a1,a4
   129fe:	853e                	mv	a0,a5
   12a00:	e1bfd0ef          	jal	ra,1081a <__xbrtime_ltor>
   12a04:	892a                	mv	s2,a0
   12a06:	fc042783          	lw	a5,-64(s0)
   12a0a:	853e                	mv	a0,a5
   12a0c:	187030ef          	jal	ra,16392 <xbrtime_decode_pe>
   12a10:	87aa                	mv	a5,a0
   12a12:	2781                	sext.w	a5,a5
   12a14:	fc843703          	ld	a4,-56(s0)
   12a18:	0007069b          	sext.w	a3,a4
   12a1c:	fc442703          	lw	a4,-60(s0)
   12a20:	2701                	sext.w	a4,a4
   12a22:	863e                	mv	a2,a5
   12a24:	85ca                	mv	a1,s2
   12a26:	8526                	mv	a0,s1
   12a28:	3bc040ef          	jal	ra,16de4 <__xbrtime_put_u1_seq>
   12a2c:	a83d                	j	12a6a <xbrtime_uint8_put+0xbc>
   12a2e:	fd043483          	ld	s1,-48(s0)
   12a32:	fd843783          	ld	a5,-40(s0)
   12a36:	fc042703          	lw	a4,-64(s0)
   12a3a:	85ba                	mv	a1,a4
   12a3c:	853e                	mv	a0,a5
   12a3e:	dddfd0ef          	jal	ra,1081a <__xbrtime_ltor>
   12a42:	892a                	mv	s2,a0
   12a44:	fc042783          	lw	a5,-64(s0)
   12a48:	853e                	mv	a0,a5
   12a4a:	149030ef          	jal	ra,16392 <xbrtime_decode_pe>
   12a4e:	87aa                	mv	a5,a0
   12a50:	2781                	sext.w	a5,a5
   12a52:	fc843703          	ld	a4,-56(s0)
   12a56:	0007069b          	sext.w	a3,a4
   12a5a:	fc442703          	lw	a4,-60(s0)
   12a5e:	2701                	sext.w	a4,a4
   12a60:	863e                	mv	a2,a5
   12a62:	85ca                	mv	a1,s2
   12a64:	8526                	mv	a0,s1
   12a66:	39a040ef          	jal	ra,16e00 <__xbrtime_put_u1_agg>
   12a6a:	4e4040ef          	jal	ra,16f4e <__xbrtime_asm_fence>
   12a6e:	a011                	j	12a72 <xbrtime_uint8_put+0xc4>
   12a70:	0001                	nop
   12a72:	70e2                	ld	ra,56(sp)
   12a74:	7442                	ld	s0,48(sp)
   12a76:	74a2                	ld	s1,40(sp)
   12a78:	7902                	ld	s2,32(sp)
   12a7a:	6121                	addi	sp,sp,64
   12a7c:	8082                	ret

0000000000012a7e <xbrtime_uint8_put_nb>:
   12a7e:	7139                	addi	sp,sp,-64
   12a80:	fc06                	sd	ra,56(sp)
   12a82:	f822                	sd	s0,48(sp)
   12a84:	f426                	sd	s1,40(sp)
   12a86:	f04a                	sd	s2,32(sp)
   12a88:	0080                	addi	s0,sp,64
   12a8a:	fca43c23          	sd	a0,-40(s0)
   12a8e:	fcb43823          	sd	a1,-48(s0)
   12a92:	fcc43423          	sd	a2,-56(s0)
   12a96:	87b6                	mv	a5,a3
   12a98:	fcf42223          	sw	a5,-60(s0)
   12a9c:	87ba                	mv	a5,a4
   12a9e:	fcf42023          	sw	a5,-64(s0)
   12aa2:	fc843783          	ld	a5,-56(s0)
   12aa6:	c7dd                	beqz	a5,12b54 <xbrtime_uint8_put_nb+0xd6>
   12aa8:	fc442783          	lw	a5,-60(s0)
   12aac:	0007871b          	sext.w	a4,a5
   12ab0:	4785                	li	a5,1
   12ab2:	00f71763          	bne	a4,a5,12ac0 <xbrtime_uint8_put_nb+0x42>
   12ab6:	fc843703          	ld	a4,-56(s0)
   12aba:	4785                	li	a5,1
   12abc:	04f71763          	bne	a4,a5,12b0a <xbrtime_uint8_put_nb+0x8c>
   12ac0:	fd043483          	ld	s1,-48(s0)
   12ac4:	fd843783          	ld	a5,-40(s0)
   12ac8:	fc042703          	lw	a4,-64(s0)
   12acc:	85ba                	mv	a1,a4
   12ace:	853e                	mv	a0,a5
   12ad0:	ffffe097          	auipc	ra,0xffffe
   12ad4:	d4a080e7          	jalr	-694(ra) # 1081a <__xbrtime_ltor>
   12ad8:	892a                	mv	s2,a0
   12ada:	fc042783          	lw	a5,-64(s0)
   12ade:	853e                	mv	a0,a5
   12ae0:	00004097          	auipc	ra,0x4
   12ae4:	8b2080e7          	jalr	-1870(ra) # 16392 <xbrtime_decode_pe>
   12ae8:	87aa                	mv	a5,a0
   12aea:	2781                	sext.w	a5,a5
   12aec:	fc843703          	ld	a4,-56(s0)
   12af0:	0007069b          	sext.w	a3,a4
   12af4:	fc442703          	lw	a4,-60(s0)
   12af8:	2701                	sext.w	a4,a4
   12afa:	863e                	mv	a2,a5
   12afc:	85ca                	mv	a1,s2
   12afe:	8526                	mv	a0,s1
   12b00:	00004097          	auipc	ra,0x4
   12b04:	2e4080e7          	jalr	740(ra) # 16de4 <__xbrtime_put_u1_seq>
   12b08:	a0b9                	j	12b56 <xbrtime_uint8_put_nb+0xd8>
   12b0a:	fd043483          	ld	s1,-48(s0)
   12b0e:	fd843783          	ld	a5,-40(s0)
   12b12:	fc042703          	lw	a4,-64(s0)
   12b16:	85ba                	mv	a1,a4
   12b18:	853e                	mv	a0,a5
   12b1a:	ffffe097          	auipc	ra,0xffffe
   12b1e:	d00080e7          	jalr	-768(ra) # 1081a <__xbrtime_ltor>
   12b22:	892a                	mv	s2,a0
   12b24:	fc042783          	lw	a5,-64(s0)
   12b28:	853e                	mv	a0,a5
   12b2a:	00004097          	auipc	ra,0x4
   12b2e:	868080e7          	jalr	-1944(ra) # 16392 <xbrtime_decode_pe>
   12b32:	87aa                	mv	a5,a0
   12b34:	2781                	sext.w	a5,a5
   12b36:	fc843703          	ld	a4,-56(s0)
   12b3a:	0007069b          	sext.w	a3,a4
   12b3e:	fc442703          	lw	a4,-60(s0)
   12b42:	2701                	sext.w	a4,a4
   12b44:	863e                	mv	a2,a5
   12b46:	85ca                	mv	a1,s2
   12b48:	8526                	mv	a0,s1
   12b4a:	00004097          	auipc	ra,0x4
   12b4e:	2b6080e7          	jalr	694(ra) # 16e00 <__xbrtime_put_u1_agg>
   12b52:	a011                	j	12b56 <xbrtime_uint8_put_nb+0xd8>
   12b54:	0001                	nop
   12b56:	70e2                	ld	ra,56(sp)
   12b58:	7442                	ld	s0,48(sp)
   12b5a:	74a2                	ld	s1,40(sp)
   12b5c:	7902                	ld	s2,32(sp)
   12b5e:	6121                	addi	sp,sp,64
   12b60:	8082                	ret

0000000000012b62 <xbrtime_uint16_put>:
   12b62:	7139                	addi	sp,sp,-64
   12b64:	fc06                	sd	ra,56(sp)
   12b66:	f822                	sd	s0,48(sp)
   12b68:	f426                	sd	s1,40(sp)
   12b6a:	f04a                	sd	s2,32(sp)
   12b6c:	0080                	addi	s0,sp,64
   12b6e:	fca43c23          	sd	a0,-40(s0)
   12b72:	fcb43823          	sd	a1,-48(s0)
   12b76:	fcc43423          	sd	a2,-56(s0)
   12b7a:	87b6                	mv	a5,a3
   12b7c:	fcf42223          	sw	a5,-60(s0)
   12b80:	87ba                	mv	a5,a4
   12b82:	fcf42023          	sw	a5,-64(s0)
   12b86:	fc843783          	ld	a5,-56(s0)
   12b8a:	c7cd                	beqz	a5,12c34 <xbrtime_uint16_put+0xd2>
   12b8c:	fc442783          	lw	a5,-60(s0)
   12b90:	0007871b          	sext.w	a4,a5
   12b94:	4785                	li	a5,1
   12b96:	00f71763          	bne	a4,a5,12ba4 <xbrtime_uint16_put+0x42>
   12b9a:	fc843703          	ld	a4,-56(s0)
   12b9e:	4785                	li	a5,1
   12ba0:	04f71563          	bne	a4,a5,12bea <xbrtime_uint16_put+0x88>
   12ba4:	fd043483          	ld	s1,-48(s0)
   12ba8:	fd843783          	ld	a5,-40(s0)
   12bac:	fc042703          	lw	a4,-64(s0)
   12bb0:	85ba                	mv	a1,a4
   12bb2:	853e                	mv	a0,a5
   12bb4:	c67fd0ef          	jal	ra,1081a <__xbrtime_ltor>
   12bb8:	892a                	mv	s2,a0
   12bba:	fc042783          	lw	a5,-64(s0)
   12bbe:	853e                	mv	a0,a5
   12bc0:	7d2030ef          	jal	ra,16392 <xbrtime_decode_pe>
   12bc4:	87aa                	mv	a5,a0
   12bc6:	0007861b          	sext.w	a2,a5
   12bca:	fc843783          	ld	a5,-56(s0)
   12bce:	0007869b          	sext.w	a3,a5
   12bd2:	fc442783          	lw	a5,-60(s0)
   12bd6:	2781                	sext.w	a5,a5
   12bd8:	0017979b          	slliw	a5,a5,0x1
   12bdc:	2781                	sext.w	a5,a5
   12bde:	873e                	mv	a4,a5
   12be0:	85ca                	mv	a1,s2
   12be2:	8526                	mv	a0,s1
   12be4:	22a040ef          	jal	ra,16e0e <__xbrtime_put_u2_seq>
   12be8:	a099                	j	12c2e <xbrtime_uint16_put+0xcc>
   12bea:	fd043483          	ld	s1,-48(s0)
   12bee:	fd843783          	ld	a5,-40(s0)
   12bf2:	fc042703          	lw	a4,-64(s0)
   12bf6:	85ba                	mv	a1,a4
   12bf8:	853e                	mv	a0,a5
   12bfa:	c21fd0ef          	jal	ra,1081a <__xbrtime_ltor>
   12bfe:	892a                	mv	s2,a0
   12c00:	fc042783          	lw	a5,-64(s0)
   12c04:	853e                	mv	a0,a5
   12c06:	78c030ef          	jal	ra,16392 <xbrtime_decode_pe>
   12c0a:	87aa                	mv	a5,a0
   12c0c:	0007861b          	sext.w	a2,a5
   12c10:	fc843783          	ld	a5,-56(s0)
   12c14:	0007869b          	sext.w	a3,a5
   12c18:	fc442783          	lw	a5,-60(s0)
   12c1c:	2781                	sext.w	a5,a5
   12c1e:	0017979b          	slliw	a5,a5,0x1
   12c22:	2781                	sext.w	a5,a5
   12c24:	873e                	mv	a4,a5
   12c26:	85ca                	mv	a1,s2
   12c28:	8526                	mv	a0,s1
   12c2a:	200040ef          	jal	ra,16e2a <__xbrtime_put_u2_agg>
   12c2e:	320040ef          	jal	ra,16f4e <__xbrtime_asm_fence>
   12c32:	a011                	j	12c36 <xbrtime_uint16_put+0xd4>
   12c34:	0001                	nop
   12c36:	70e2                	ld	ra,56(sp)
   12c38:	7442                	ld	s0,48(sp)
   12c3a:	74a2                	ld	s1,40(sp)
   12c3c:	7902                	ld	s2,32(sp)
   12c3e:	6121                	addi	sp,sp,64
   12c40:	8082                	ret

0000000000012c42 <xbrtime_uint16_put_nb>:
   12c42:	7139                	addi	sp,sp,-64
   12c44:	fc06                	sd	ra,56(sp)
   12c46:	f822                	sd	s0,48(sp)
   12c48:	f426                	sd	s1,40(sp)
   12c4a:	f04a                	sd	s2,32(sp)
   12c4c:	0080                	addi	s0,sp,64
   12c4e:	fca43c23          	sd	a0,-40(s0)
   12c52:	fcb43823          	sd	a1,-48(s0)
   12c56:	fcc43423          	sd	a2,-56(s0)
   12c5a:	87b6                	mv	a5,a3
   12c5c:	fcf42223          	sw	a5,-60(s0)
   12c60:	87ba                	mv	a5,a4
   12c62:	fcf42023          	sw	a5,-64(s0)
   12c66:	fc843783          	ld	a5,-56(s0)
   12c6a:	cfdd                	beqz	a5,12d28 <xbrtime_uint16_put_nb+0xe6>
   12c6c:	fc442783          	lw	a5,-60(s0)
   12c70:	0007871b          	sext.w	a4,a5
   12c74:	4785                	li	a5,1
   12c76:	00f71763          	bne	a4,a5,12c84 <xbrtime_uint16_put_nb+0x42>
   12c7a:	fc843703          	ld	a4,-56(s0)
   12c7e:	4785                	li	a5,1
   12c80:	04f71b63          	bne	a4,a5,12cd6 <xbrtime_uint16_put_nb+0x94>
   12c84:	fd043483          	ld	s1,-48(s0)
   12c88:	fd843783          	ld	a5,-40(s0)
   12c8c:	fc042703          	lw	a4,-64(s0)
   12c90:	85ba                	mv	a1,a4
   12c92:	853e                	mv	a0,a5
   12c94:	ffffe097          	auipc	ra,0xffffe
   12c98:	b86080e7          	jalr	-1146(ra) # 1081a <__xbrtime_ltor>
   12c9c:	892a                	mv	s2,a0
   12c9e:	fc042783          	lw	a5,-64(s0)
   12ca2:	853e                	mv	a0,a5
   12ca4:	00003097          	auipc	ra,0x3
   12ca8:	6ee080e7          	jalr	1774(ra) # 16392 <xbrtime_decode_pe>
   12cac:	87aa                	mv	a5,a0
   12cae:	0007861b          	sext.w	a2,a5
   12cb2:	fc843783          	ld	a5,-56(s0)
   12cb6:	0007869b          	sext.w	a3,a5
   12cba:	fc442783          	lw	a5,-60(s0)
   12cbe:	2781                	sext.w	a5,a5
   12cc0:	0017979b          	slliw	a5,a5,0x1
   12cc4:	2781                	sext.w	a5,a5
   12cc6:	873e                	mv	a4,a5
   12cc8:	85ca                	mv	a1,s2
   12cca:	8526                	mv	a0,s1
   12ccc:	00004097          	auipc	ra,0x4
   12cd0:	142080e7          	jalr	322(ra) # 16e0e <__xbrtime_put_u2_seq>
   12cd4:	a899                	j	12d2a <xbrtime_uint16_put_nb+0xe8>
   12cd6:	fd043483          	ld	s1,-48(s0)
   12cda:	fd843783          	ld	a5,-40(s0)
   12cde:	fc042703          	lw	a4,-64(s0)
   12ce2:	85ba                	mv	a1,a4
   12ce4:	853e                	mv	a0,a5
   12ce6:	ffffe097          	auipc	ra,0xffffe
   12cea:	b34080e7          	jalr	-1228(ra) # 1081a <__xbrtime_ltor>
   12cee:	892a                	mv	s2,a0
   12cf0:	fc042783          	lw	a5,-64(s0)
   12cf4:	853e                	mv	a0,a5
   12cf6:	00003097          	auipc	ra,0x3
   12cfa:	69c080e7          	jalr	1692(ra) # 16392 <xbrtime_decode_pe>
   12cfe:	87aa                	mv	a5,a0
   12d00:	0007861b          	sext.w	a2,a5
   12d04:	fc843783          	ld	a5,-56(s0)
   12d08:	0007869b          	sext.w	a3,a5
   12d0c:	fc442783          	lw	a5,-60(s0)
   12d10:	2781                	sext.w	a5,a5
   12d12:	0017979b          	slliw	a5,a5,0x1
   12d16:	2781                	sext.w	a5,a5
   12d18:	873e                	mv	a4,a5
   12d1a:	85ca                	mv	a1,s2
   12d1c:	8526                	mv	a0,s1
   12d1e:	00004097          	auipc	ra,0x4
   12d22:	10c080e7          	jalr	268(ra) # 16e2a <__xbrtime_put_u2_agg>
   12d26:	a011                	j	12d2a <xbrtime_uint16_put_nb+0xe8>
   12d28:	0001                	nop
   12d2a:	70e2                	ld	ra,56(sp)
   12d2c:	7442                	ld	s0,48(sp)
   12d2e:	74a2                	ld	s1,40(sp)
   12d30:	7902                	ld	s2,32(sp)
   12d32:	6121                	addi	sp,sp,64
   12d34:	8082                	ret

0000000000012d36 <xbrtime_uint32_put>:
   12d36:	7139                	addi	sp,sp,-64
   12d38:	fc06                	sd	ra,56(sp)
   12d3a:	f822                	sd	s0,48(sp)
   12d3c:	f426                	sd	s1,40(sp)
   12d3e:	f04a                	sd	s2,32(sp)
   12d40:	0080                	addi	s0,sp,64
   12d42:	fca43c23          	sd	a0,-40(s0)
   12d46:	fcb43823          	sd	a1,-48(s0)
   12d4a:	fcc43423          	sd	a2,-56(s0)
   12d4e:	87b6                	mv	a5,a3
   12d50:	fcf42223          	sw	a5,-60(s0)
   12d54:	87ba                	mv	a5,a4
   12d56:	fcf42023          	sw	a5,-64(s0)
   12d5a:	fc843783          	ld	a5,-56(s0)
   12d5e:	c7cd                	beqz	a5,12e08 <xbrtime_uint32_put+0xd2>
   12d60:	fc442783          	lw	a5,-60(s0)
   12d64:	0007871b          	sext.w	a4,a5
   12d68:	4785                	li	a5,1
   12d6a:	00f71763          	bne	a4,a5,12d78 <xbrtime_uint32_put+0x42>
   12d6e:	fc843703          	ld	a4,-56(s0)
   12d72:	4785                	li	a5,1
   12d74:	04f71563          	bne	a4,a5,12dbe <xbrtime_uint32_put+0x88>
   12d78:	fd043483          	ld	s1,-48(s0)
   12d7c:	fd843783          	ld	a5,-40(s0)
   12d80:	fc042703          	lw	a4,-64(s0)
   12d84:	85ba                	mv	a1,a4
   12d86:	853e                	mv	a0,a5
   12d88:	a93fd0ef          	jal	ra,1081a <__xbrtime_ltor>
   12d8c:	892a                	mv	s2,a0
   12d8e:	fc042783          	lw	a5,-64(s0)
   12d92:	853e                	mv	a0,a5
   12d94:	5fe030ef          	jal	ra,16392 <xbrtime_decode_pe>
   12d98:	87aa                	mv	a5,a0
   12d9a:	0007861b          	sext.w	a2,a5
   12d9e:	fc843783          	ld	a5,-56(s0)
   12da2:	0007869b          	sext.w	a3,a5
   12da6:	fc442783          	lw	a5,-60(s0)
   12daa:	2781                	sext.w	a5,a5
   12dac:	0027979b          	slliw	a5,a5,0x2
   12db0:	2781                	sext.w	a5,a5
   12db2:	873e                	mv	a4,a5
   12db4:	85ca                	mv	a1,s2
   12db6:	8526                	mv	a0,s1
   12db8:	080040ef          	jal	ra,16e38 <__xbrtime_put_u4_seq>
   12dbc:	a099                	j	12e02 <xbrtime_uint32_put+0xcc>
   12dbe:	fd043483          	ld	s1,-48(s0)
   12dc2:	fd843783          	ld	a5,-40(s0)
   12dc6:	fc042703          	lw	a4,-64(s0)
   12dca:	85ba                	mv	a1,a4
   12dcc:	853e                	mv	a0,a5
   12dce:	a4dfd0ef          	jal	ra,1081a <__xbrtime_ltor>
   12dd2:	892a                	mv	s2,a0
   12dd4:	fc042783          	lw	a5,-64(s0)
   12dd8:	853e                	mv	a0,a5
   12dda:	5b8030ef          	jal	ra,16392 <xbrtime_decode_pe>
   12dde:	87aa                	mv	a5,a0
   12de0:	0007861b          	sext.w	a2,a5
   12de4:	fc843783          	ld	a5,-56(s0)
   12de8:	0007869b          	sext.w	a3,a5
   12dec:	fc442783          	lw	a5,-60(s0)
   12df0:	2781                	sext.w	a5,a5
   12df2:	0027979b          	slliw	a5,a5,0x2
   12df6:	2781                	sext.w	a5,a5
   12df8:	873e                	mv	a4,a5
   12dfa:	85ca                	mv	a1,s2
   12dfc:	8526                	mv	a0,s1
   12dfe:	056040ef          	jal	ra,16e54 <__xbrtime_put_u4_agg>
   12e02:	14c040ef          	jal	ra,16f4e <__xbrtime_asm_fence>
   12e06:	a011                	j	12e0a <xbrtime_uint32_put+0xd4>
   12e08:	0001                	nop
   12e0a:	70e2                	ld	ra,56(sp)
   12e0c:	7442                	ld	s0,48(sp)
   12e0e:	74a2                	ld	s1,40(sp)
   12e10:	7902                	ld	s2,32(sp)
   12e12:	6121                	addi	sp,sp,64
   12e14:	8082                	ret

0000000000012e16 <xbrtime_uint32_put_nb>:
   12e16:	7139                	addi	sp,sp,-64
   12e18:	fc06                	sd	ra,56(sp)
   12e1a:	f822                	sd	s0,48(sp)
   12e1c:	f426                	sd	s1,40(sp)
   12e1e:	f04a                	sd	s2,32(sp)
   12e20:	0080                	addi	s0,sp,64
   12e22:	fca43c23          	sd	a0,-40(s0)
   12e26:	fcb43823          	sd	a1,-48(s0)
   12e2a:	fcc43423          	sd	a2,-56(s0)
   12e2e:	87b6                	mv	a5,a3
   12e30:	fcf42223          	sw	a5,-60(s0)
   12e34:	87ba                	mv	a5,a4
   12e36:	fcf42023          	sw	a5,-64(s0)
   12e3a:	fc843783          	ld	a5,-56(s0)
   12e3e:	cfdd                	beqz	a5,12efc <xbrtime_uint32_put_nb+0xe6>
   12e40:	fc442783          	lw	a5,-60(s0)
   12e44:	0007871b          	sext.w	a4,a5
   12e48:	4785                	li	a5,1
   12e4a:	00f71763          	bne	a4,a5,12e58 <xbrtime_uint32_put_nb+0x42>
   12e4e:	fc843703          	ld	a4,-56(s0)
   12e52:	4785                	li	a5,1
   12e54:	04f71b63          	bne	a4,a5,12eaa <xbrtime_uint32_put_nb+0x94>
   12e58:	fd043483          	ld	s1,-48(s0)
   12e5c:	fd843783          	ld	a5,-40(s0)
   12e60:	fc042703          	lw	a4,-64(s0)
   12e64:	85ba                	mv	a1,a4
   12e66:	853e                	mv	a0,a5
   12e68:	ffffe097          	auipc	ra,0xffffe
   12e6c:	9b2080e7          	jalr	-1614(ra) # 1081a <__xbrtime_ltor>
   12e70:	892a                	mv	s2,a0
   12e72:	fc042783          	lw	a5,-64(s0)
   12e76:	853e                	mv	a0,a5
   12e78:	00003097          	auipc	ra,0x3
   12e7c:	51a080e7          	jalr	1306(ra) # 16392 <xbrtime_decode_pe>
   12e80:	87aa                	mv	a5,a0
   12e82:	0007861b          	sext.w	a2,a5
   12e86:	fc843783          	ld	a5,-56(s0)
   12e8a:	0007869b          	sext.w	a3,a5
   12e8e:	fc442783          	lw	a5,-60(s0)
   12e92:	2781                	sext.w	a5,a5
   12e94:	0027979b          	slliw	a5,a5,0x2
   12e98:	2781                	sext.w	a5,a5
   12e9a:	873e                	mv	a4,a5
   12e9c:	85ca                	mv	a1,s2
   12e9e:	8526                	mv	a0,s1
   12ea0:	00004097          	auipc	ra,0x4
   12ea4:	f98080e7          	jalr	-104(ra) # 16e38 <__xbrtime_put_u4_seq>
   12ea8:	a899                	j	12efe <xbrtime_uint32_put_nb+0xe8>
   12eaa:	fd043483          	ld	s1,-48(s0)
   12eae:	fd843783          	ld	a5,-40(s0)
   12eb2:	fc042703          	lw	a4,-64(s0)
   12eb6:	85ba                	mv	a1,a4
   12eb8:	853e                	mv	a0,a5
   12eba:	ffffe097          	auipc	ra,0xffffe
   12ebe:	960080e7          	jalr	-1696(ra) # 1081a <__xbrtime_ltor>
   12ec2:	892a                	mv	s2,a0
   12ec4:	fc042783          	lw	a5,-64(s0)
   12ec8:	853e                	mv	a0,a5
   12eca:	00003097          	auipc	ra,0x3
   12ece:	4c8080e7          	jalr	1224(ra) # 16392 <xbrtime_decode_pe>
   12ed2:	87aa                	mv	a5,a0
   12ed4:	0007861b          	sext.w	a2,a5
   12ed8:	fc843783          	ld	a5,-56(s0)
   12edc:	0007869b          	sext.w	a3,a5
   12ee0:	fc442783          	lw	a5,-60(s0)
   12ee4:	2781                	sext.w	a5,a5
   12ee6:	0027979b          	slliw	a5,a5,0x2
   12eea:	2781                	sext.w	a5,a5
   12eec:	873e                	mv	a4,a5
   12eee:	85ca                	mv	a1,s2
   12ef0:	8526                	mv	a0,s1
   12ef2:	00004097          	auipc	ra,0x4
   12ef6:	f62080e7          	jalr	-158(ra) # 16e54 <__xbrtime_put_u4_agg>
   12efa:	a011                	j	12efe <xbrtime_uint32_put_nb+0xe8>
   12efc:	0001                	nop
   12efe:	70e2                	ld	ra,56(sp)
   12f00:	7442                	ld	s0,48(sp)
   12f02:	74a2                	ld	s1,40(sp)
   12f04:	7902                	ld	s2,32(sp)
   12f06:	6121                	addi	sp,sp,64
   12f08:	8082                	ret

0000000000012f0a <xbrtime_uint64_put>:
   12f0a:	7139                	addi	sp,sp,-64
   12f0c:	fc06                	sd	ra,56(sp)
   12f0e:	f822                	sd	s0,48(sp)
   12f10:	f426                	sd	s1,40(sp)
   12f12:	f04a                	sd	s2,32(sp)
   12f14:	0080                	addi	s0,sp,64
   12f16:	fca43c23          	sd	a0,-40(s0)
   12f1a:	fcb43823          	sd	a1,-48(s0)
   12f1e:	fcc43423          	sd	a2,-56(s0)
   12f22:	87b6                	mv	a5,a3
   12f24:	fcf42223          	sw	a5,-60(s0)
   12f28:	87ba                	mv	a5,a4
   12f2a:	fcf42023          	sw	a5,-64(s0)
   12f2e:	fc843783          	ld	a5,-56(s0)
   12f32:	c7cd                	beqz	a5,12fdc <xbrtime_uint64_put+0xd2>
   12f34:	fc442783          	lw	a5,-60(s0)
   12f38:	0007871b          	sext.w	a4,a5
   12f3c:	4785                	li	a5,1
   12f3e:	00f71763          	bne	a4,a5,12f4c <xbrtime_uint64_put+0x42>
   12f42:	fc843703          	ld	a4,-56(s0)
   12f46:	4785                	li	a5,1
   12f48:	04f71563          	bne	a4,a5,12f92 <xbrtime_uint64_put+0x88>
   12f4c:	fd043483          	ld	s1,-48(s0)
   12f50:	fd843783          	ld	a5,-40(s0)
   12f54:	fc042703          	lw	a4,-64(s0)
   12f58:	85ba                	mv	a1,a4
   12f5a:	853e                	mv	a0,a5
   12f5c:	8bffd0ef          	jal	ra,1081a <__xbrtime_ltor>
   12f60:	892a                	mv	s2,a0
   12f62:	fc042783          	lw	a5,-64(s0)
   12f66:	853e                	mv	a0,a5
   12f68:	42a030ef          	jal	ra,16392 <xbrtime_decode_pe>
   12f6c:	87aa                	mv	a5,a0
   12f6e:	0007861b          	sext.w	a2,a5
   12f72:	fc843783          	ld	a5,-56(s0)
   12f76:	0007869b          	sext.w	a3,a5
   12f7a:	fc442783          	lw	a5,-60(s0)
   12f7e:	2781                	sext.w	a5,a5
   12f80:	0037979b          	slliw	a5,a5,0x3
   12f84:	2781                	sext.w	a5,a5
   12f86:	873e                	mv	a4,a5
   12f88:	85ca                	mv	a1,s2
   12f8a:	8526                	mv	a0,s1
   12f8c:	6d7030ef          	jal	ra,16e62 <__xbrtime_put_u8_seq>
   12f90:	a099                	j	12fd6 <xbrtime_uint64_put+0xcc>
   12f92:	fd043483          	ld	s1,-48(s0)
   12f96:	fd843783          	ld	a5,-40(s0)
   12f9a:	fc042703          	lw	a4,-64(s0)
   12f9e:	85ba                	mv	a1,a4
   12fa0:	853e                	mv	a0,a5
   12fa2:	879fd0ef          	jal	ra,1081a <__xbrtime_ltor>
   12fa6:	892a                	mv	s2,a0
   12fa8:	fc042783          	lw	a5,-64(s0)
   12fac:	853e                	mv	a0,a5
   12fae:	3e4030ef          	jal	ra,16392 <xbrtime_decode_pe>
   12fb2:	87aa                	mv	a5,a0
   12fb4:	0007861b          	sext.w	a2,a5
   12fb8:	fc843783          	ld	a5,-56(s0)
   12fbc:	0007869b          	sext.w	a3,a5
   12fc0:	fc442783          	lw	a5,-60(s0)
   12fc4:	2781                	sext.w	a5,a5
   12fc6:	0037979b          	slliw	a5,a5,0x3
   12fca:	2781                	sext.w	a5,a5
   12fcc:	873e                	mv	a4,a5
   12fce:	85ca                	mv	a1,s2
   12fd0:	8526                	mv	a0,s1
   12fd2:	6ad030ef          	jal	ra,16e7e <__xbrtime_put_u8_agg>
   12fd6:	779030ef          	jal	ra,16f4e <__xbrtime_asm_fence>
   12fda:	a011                	j	12fde <xbrtime_uint64_put+0xd4>
   12fdc:	0001                	nop
   12fde:	70e2                	ld	ra,56(sp)
   12fe0:	7442                	ld	s0,48(sp)
   12fe2:	74a2                	ld	s1,40(sp)
   12fe4:	7902                	ld	s2,32(sp)
   12fe6:	6121                	addi	sp,sp,64
   12fe8:	8082                	ret

0000000000012fea <xbrtime_uint64_put_nb>:
   12fea:	7139                	addi	sp,sp,-64
   12fec:	fc06                	sd	ra,56(sp)
   12fee:	f822                	sd	s0,48(sp)
   12ff0:	f426                	sd	s1,40(sp)
   12ff2:	f04a                	sd	s2,32(sp)
   12ff4:	0080                	addi	s0,sp,64
   12ff6:	fca43c23          	sd	a0,-40(s0)
   12ffa:	fcb43823          	sd	a1,-48(s0)
   12ffe:	fcc43423          	sd	a2,-56(s0)
   13002:	87b6                	mv	a5,a3
   13004:	fcf42223          	sw	a5,-60(s0)
   13008:	87ba                	mv	a5,a4
   1300a:	fcf42023          	sw	a5,-64(s0)
   1300e:	fc843783          	ld	a5,-56(s0)
   13012:	cfdd                	beqz	a5,130d0 <xbrtime_uint64_put_nb+0xe6>
   13014:	fc442783          	lw	a5,-60(s0)
   13018:	0007871b          	sext.w	a4,a5
   1301c:	4785                	li	a5,1
   1301e:	00f71763          	bne	a4,a5,1302c <xbrtime_uint64_put_nb+0x42>
   13022:	fc843703          	ld	a4,-56(s0)
   13026:	4785                	li	a5,1
   13028:	04f71b63          	bne	a4,a5,1307e <xbrtime_uint64_put_nb+0x94>
   1302c:	fd043483          	ld	s1,-48(s0)
   13030:	fd843783          	ld	a5,-40(s0)
   13034:	fc042703          	lw	a4,-64(s0)
   13038:	85ba                	mv	a1,a4
   1303a:	853e                	mv	a0,a5
   1303c:	ffffd097          	auipc	ra,0xffffd
   13040:	7de080e7          	jalr	2014(ra) # 1081a <__xbrtime_ltor>
   13044:	892a                	mv	s2,a0
   13046:	fc042783          	lw	a5,-64(s0)
   1304a:	853e                	mv	a0,a5
   1304c:	00003097          	auipc	ra,0x3
   13050:	346080e7          	jalr	838(ra) # 16392 <xbrtime_decode_pe>
   13054:	87aa                	mv	a5,a0
   13056:	0007861b          	sext.w	a2,a5
   1305a:	fc843783          	ld	a5,-56(s0)
   1305e:	0007869b          	sext.w	a3,a5
   13062:	fc442783          	lw	a5,-60(s0)
   13066:	2781                	sext.w	a5,a5
   13068:	0037979b          	slliw	a5,a5,0x3
   1306c:	2781                	sext.w	a5,a5
   1306e:	873e                	mv	a4,a5
   13070:	85ca                	mv	a1,s2
   13072:	8526                	mv	a0,s1
   13074:	00004097          	auipc	ra,0x4
   13078:	dee080e7          	jalr	-530(ra) # 16e62 <__xbrtime_put_u8_seq>
   1307c:	a899                	j	130d2 <xbrtime_uint64_put_nb+0xe8>
   1307e:	fd043483          	ld	s1,-48(s0)
   13082:	fd843783          	ld	a5,-40(s0)
   13086:	fc042703          	lw	a4,-64(s0)
   1308a:	85ba                	mv	a1,a4
   1308c:	853e                	mv	a0,a5
   1308e:	ffffd097          	auipc	ra,0xffffd
   13092:	78c080e7          	jalr	1932(ra) # 1081a <__xbrtime_ltor>
   13096:	892a                	mv	s2,a0
   13098:	fc042783          	lw	a5,-64(s0)
   1309c:	853e                	mv	a0,a5
   1309e:	00003097          	auipc	ra,0x3
   130a2:	2f4080e7          	jalr	756(ra) # 16392 <xbrtime_decode_pe>
   130a6:	87aa                	mv	a5,a0
   130a8:	0007861b          	sext.w	a2,a5
   130ac:	fc843783          	ld	a5,-56(s0)
   130b0:	0007869b          	sext.w	a3,a5
   130b4:	fc442783          	lw	a5,-60(s0)
   130b8:	2781                	sext.w	a5,a5
   130ba:	0037979b          	slliw	a5,a5,0x3
   130be:	2781                	sext.w	a5,a5
   130c0:	873e                	mv	a4,a5
   130c2:	85ca                	mv	a1,s2
   130c4:	8526                	mv	a0,s1
   130c6:	00004097          	auipc	ra,0x4
   130ca:	db8080e7          	jalr	-584(ra) # 16e7e <__xbrtime_put_u8_agg>
   130ce:	a011                	j	130d2 <xbrtime_uint64_put_nb+0xe8>
   130d0:	0001                	nop
   130d2:	70e2                	ld	ra,56(sp)
   130d4:	7442                	ld	s0,48(sp)
   130d6:	74a2                	ld	s1,40(sp)
   130d8:	7902                	ld	s2,32(sp)
   130da:	6121                	addi	sp,sp,64
   130dc:	8082                	ret

00000000000130de <xbrtime_size_put>:
   130de:	7139                	addi	sp,sp,-64
   130e0:	fc06                	sd	ra,56(sp)
   130e2:	f822                	sd	s0,48(sp)
   130e4:	f426                	sd	s1,40(sp)
   130e6:	f04a                	sd	s2,32(sp)
   130e8:	0080                	addi	s0,sp,64
   130ea:	fca43c23          	sd	a0,-40(s0)
   130ee:	fcb43823          	sd	a1,-48(s0)
   130f2:	fcc43423          	sd	a2,-56(s0)
   130f6:	87b6                	mv	a5,a3
   130f8:	fcf42223          	sw	a5,-60(s0)
   130fc:	87ba                	mv	a5,a4
   130fe:	fcf42023          	sw	a5,-64(s0)
   13102:	fc843783          	ld	a5,-56(s0)
   13106:	c7cd                	beqz	a5,131b0 <xbrtime_size_put+0xd2>
   13108:	fc442783          	lw	a5,-60(s0)
   1310c:	0007871b          	sext.w	a4,a5
   13110:	4785                	li	a5,1
   13112:	00f71763          	bne	a4,a5,13120 <xbrtime_size_put+0x42>
   13116:	fc843703          	ld	a4,-56(s0)
   1311a:	4785                	li	a5,1
   1311c:	04f71563          	bne	a4,a5,13166 <xbrtime_size_put+0x88>
   13120:	fd043483          	ld	s1,-48(s0)
   13124:	fd843783          	ld	a5,-40(s0)
   13128:	fc042703          	lw	a4,-64(s0)
   1312c:	85ba                	mv	a1,a4
   1312e:	853e                	mv	a0,a5
   13130:	eeafd0ef          	jal	ra,1081a <__xbrtime_ltor>
   13134:	892a                	mv	s2,a0
   13136:	fc042783          	lw	a5,-64(s0)
   1313a:	853e                	mv	a0,a5
   1313c:	256030ef          	jal	ra,16392 <xbrtime_decode_pe>
   13140:	87aa                	mv	a5,a0
   13142:	0007861b          	sext.w	a2,a5
   13146:	fc843783          	ld	a5,-56(s0)
   1314a:	0007869b          	sext.w	a3,a5
   1314e:	fc442783          	lw	a5,-60(s0)
   13152:	2781                	sext.w	a5,a5
   13154:	0037979b          	slliw	a5,a5,0x3
   13158:	2781                	sext.w	a5,a5
   1315a:	873e                	mv	a4,a5
   1315c:	85ca                	mv	a1,s2
   1315e:	8526                	mv	a0,s1
   13160:	4d9030ef          	jal	ra,16e38 <__xbrtime_put_u4_seq>
   13164:	a099                	j	131aa <xbrtime_size_put+0xcc>
   13166:	fd043483          	ld	s1,-48(s0)
   1316a:	fd843783          	ld	a5,-40(s0)
   1316e:	fc042703          	lw	a4,-64(s0)
   13172:	85ba                	mv	a1,a4
   13174:	853e                	mv	a0,a5
   13176:	ea4fd0ef          	jal	ra,1081a <__xbrtime_ltor>
   1317a:	892a                	mv	s2,a0
   1317c:	fc042783          	lw	a5,-64(s0)
   13180:	853e                	mv	a0,a5
   13182:	210030ef          	jal	ra,16392 <xbrtime_decode_pe>
   13186:	87aa                	mv	a5,a0
   13188:	0007861b          	sext.w	a2,a5
   1318c:	fc843783          	ld	a5,-56(s0)
   13190:	0007869b          	sext.w	a3,a5
   13194:	fc442783          	lw	a5,-60(s0)
   13198:	2781                	sext.w	a5,a5
   1319a:	0037979b          	slliw	a5,a5,0x3
   1319e:	2781                	sext.w	a5,a5
   131a0:	873e                	mv	a4,a5
   131a2:	85ca                	mv	a1,s2
   131a4:	8526                	mv	a0,s1
   131a6:	4af030ef          	jal	ra,16e54 <__xbrtime_put_u4_agg>
   131aa:	5a5030ef          	jal	ra,16f4e <__xbrtime_asm_fence>
   131ae:	a011                	j	131b2 <xbrtime_size_put+0xd4>
   131b0:	0001                	nop
   131b2:	70e2                	ld	ra,56(sp)
   131b4:	7442                	ld	s0,48(sp)
   131b6:	74a2                	ld	s1,40(sp)
   131b8:	7902                	ld	s2,32(sp)
   131ba:	6121                	addi	sp,sp,64
   131bc:	8082                	ret

00000000000131be <xbrtime_size_put_nb>:
   131be:	7139                	addi	sp,sp,-64
   131c0:	fc06                	sd	ra,56(sp)
   131c2:	f822                	sd	s0,48(sp)
   131c4:	f426                	sd	s1,40(sp)
   131c6:	f04a                	sd	s2,32(sp)
   131c8:	0080                	addi	s0,sp,64
   131ca:	fca43c23          	sd	a0,-40(s0)
   131ce:	fcb43823          	sd	a1,-48(s0)
   131d2:	fcc43423          	sd	a2,-56(s0)
   131d6:	87b6                	mv	a5,a3
   131d8:	fcf42223          	sw	a5,-60(s0)
   131dc:	87ba                	mv	a5,a4
   131de:	fcf42023          	sw	a5,-64(s0)
   131e2:	fc843783          	ld	a5,-56(s0)
   131e6:	cfdd                	beqz	a5,132a4 <xbrtime_size_put_nb+0xe6>
   131e8:	fc442783          	lw	a5,-60(s0)
   131ec:	0007871b          	sext.w	a4,a5
   131f0:	4785                	li	a5,1
   131f2:	00f71763          	bne	a4,a5,13200 <xbrtime_size_put_nb+0x42>
   131f6:	fc843703          	ld	a4,-56(s0)
   131fa:	4785                	li	a5,1
   131fc:	04f71b63          	bne	a4,a5,13252 <xbrtime_size_put_nb+0x94>
   13200:	fd043483          	ld	s1,-48(s0)
   13204:	fd843783          	ld	a5,-40(s0)
   13208:	fc042703          	lw	a4,-64(s0)
   1320c:	85ba                	mv	a1,a4
   1320e:	853e                	mv	a0,a5
   13210:	ffffd097          	auipc	ra,0xffffd
   13214:	60a080e7          	jalr	1546(ra) # 1081a <__xbrtime_ltor>
   13218:	892a                	mv	s2,a0
   1321a:	fc042783          	lw	a5,-64(s0)
   1321e:	853e                	mv	a0,a5
   13220:	00003097          	auipc	ra,0x3
   13224:	172080e7          	jalr	370(ra) # 16392 <xbrtime_decode_pe>
   13228:	87aa                	mv	a5,a0
   1322a:	0007861b          	sext.w	a2,a5
   1322e:	fc843783          	ld	a5,-56(s0)
   13232:	0007869b          	sext.w	a3,a5
   13236:	fc442783          	lw	a5,-60(s0)
   1323a:	2781                	sext.w	a5,a5
   1323c:	0037979b          	slliw	a5,a5,0x3
   13240:	2781                	sext.w	a5,a5
   13242:	873e                	mv	a4,a5
   13244:	85ca                	mv	a1,s2
   13246:	8526                	mv	a0,s1
   13248:	00004097          	auipc	ra,0x4
   1324c:	bf0080e7          	jalr	-1040(ra) # 16e38 <__xbrtime_put_u4_seq>
   13250:	a899                	j	132a6 <xbrtime_size_put_nb+0xe8>
   13252:	fd043483          	ld	s1,-48(s0)
   13256:	fd843783          	ld	a5,-40(s0)
   1325a:	fc042703          	lw	a4,-64(s0)
   1325e:	85ba                	mv	a1,a4
   13260:	853e                	mv	a0,a5
   13262:	ffffd097          	auipc	ra,0xffffd
   13266:	5b8080e7          	jalr	1464(ra) # 1081a <__xbrtime_ltor>
   1326a:	892a                	mv	s2,a0
   1326c:	fc042783          	lw	a5,-64(s0)
   13270:	853e                	mv	a0,a5
   13272:	00003097          	auipc	ra,0x3
   13276:	120080e7          	jalr	288(ra) # 16392 <xbrtime_decode_pe>
   1327a:	87aa                	mv	a5,a0
   1327c:	0007861b          	sext.w	a2,a5
   13280:	fc843783          	ld	a5,-56(s0)
   13284:	0007869b          	sext.w	a3,a5
   13288:	fc442783          	lw	a5,-60(s0)
   1328c:	2781                	sext.w	a5,a5
   1328e:	0037979b          	slliw	a5,a5,0x3
   13292:	2781                	sext.w	a5,a5
   13294:	873e                	mv	a4,a5
   13296:	85ca                	mv	a1,s2
   13298:	8526                	mv	a0,s1
   1329a:	00004097          	auipc	ra,0x4
   1329e:	bba080e7          	jalr	-1094(ra) # 16e54 <__xbrtime_put_u4_agg>
   132a2:	a011                	j	132a6 <xbrtime_size_put_nb+0xe8>
   132a4:	0001                	nop
   132a6:	70e2                	ld	ra,56(sp)
   132a8:	7442                	ld	s0,48(sp)
   132aa:	74a2                	ld	s1,40(sp)
   132ac:	7902                	ld	s2,32(sp)
   132ae:	6121                	addi	sp,sp,64
   132b0:	8082                	ret

00000000000132b2 <xbrtime_ptrdiff_put>:
   132b2:	7139                	addi	sp,sp,-64
   132b4:	fc06                	sd	ra,56(sp)
   132b6:	f822                	sd	s0,48(sp)
   132b8:	f426                	sd	s1,40(sp)
   132ba:	f04a                	sd	s2,32(sp)
   132bc:	0080                	addi	s0,sp,64
   132be:	fca43c23          	sd	a0,-40(s0)
   132c2:	fcb43823          	sd	a1,-48(s0)
   132c6:	fcc43423          	sd	a2,-56(s0)
   132ca:	87b6                	mv	a5,a3
   132cc:	fcf42223          	sw	a5,-60(s0)
   132d0:	87ba                	mv	a5,a4
   132d2:	fcf42023          	sw	a5,-64(s0)
   132d6:	fc843783          	ld	a5,-56(s0)
   132da:	c7cd                	beqz	a5,13384 <xbrtime_ptrdiff_put+0xd2>
   132dc:	fc442783          	lw	a5,-60(s0)
   132e0:	0007871b          	sext.w	a4,a5
   132e4:	4785                	li	a5,1
   132e6:	00f71763          	bne	a4,a5,132f4 <xbrtime_ptrdiff_put+0x42>
   132ea:	fc843703          	ld	a4,-56(s0)
   132ee:	4785                	li	a5,1
   132f0:	04f71563          	bne	a4,a5,1333a <xbrtime_ptrdiff_put+0x88>
   132f4:	fd043483          	ld	s1,-48(s0)
   132f8:	fd843783          	ld	a5,-40(s0)
   132fc:	fc042703          	lw	a4,-64(s0)
   13300:	85ba                	mv	a1,a4
   13302:	853e                	mv	a0,a5
   13304:	d16fd0ef          	jal	ra,1081a <__xbrtime_ltor>
   13308:	892a                	mv	s2,a0
   1330a:	fc042783          	lw	a5,-64(s0)
   1330e:	853e                	mv	a0,a5
   13310:	082030ef          	jal	ra,16392 <xbrtime_decode_pe>
   13314:	87aa                	mv	a5,a0
   13316:	0007861b          	sext.w	a2,a5
   1331a:	fc843783          	ld	a5,-56(s0)
   1331e:	0007869b          	sext.w	a3,a5
   13322:	fc442783          	lw	a5,-60(s0)
   13326:	2781                	sext.w	a5,a5
   13328:	0037979b          	slliw	a5,a5,0x3
   1332c:	2781                	sext.w	a5,a5
   1332e:	873e                	mv	a4,a5
   13330:	85ca                	mv	a1,s2
   13332:	8526                	mv	a0,s1
   13334:	3ad030ef          	jal	ra,16ee0 <__xbrtime_put_s4_seq>
   13338:	a099                	j	1337e <xbrtime_ptrdiff_put+0xcc>
   1333a:	fd043483          	ld	s1,-48(s0)
   1333e:	fd843783          	ld	a5,-40(s0)
   13342:	fc042703          	lw	a4,-64(s0)
   13346:	85ba                	mv	a1,a4
   13348:	853e                	mv	a0,a5
   1334a:	cd0fd0ef          	jal	ra,1081a <__xbrtime_ltor>
   1334e:	892a                	mv	s2,a0
   13350:	fc042783          	lw	a5,-64(s0)
   13354:	853e                	mv	a0,a5
   13356:	03c030ef          	jal	ra,16392 <xbrtime_decode_pe>
   1335a:	87aa                	mv	a5,a0
   1335c:	0007861b          	sext.w	a2,a5
   13360:	fc843783          	ld	a5,-56(s0)
   13364:	0007869b          	sext.w	a3,a5
   13368:	fc442783          	lw	a5,-60(s0)
   1336c:	2781                	sext.w	a5,a5
   1336e:	0037979b          	slliw	a5,a5,0x3
   13372:	2781                	sext.w	a5,a5
   13374:	873e                	mv	a4,a5
   13376:	85ca                	mv	a1,s2
   13378:	8526                	mv	a0,s1
   1337a:	383030ef          	jal	ra,16efc <__xbrtime_put_s4_agg>
   1337e:	3d1030ef          	jal	ra,16f4e <__xbrtime_asm_fence>
   13382:	a011                	j	13386 <xbrtime_ptrdiff_put+0xd4>
   13384:	0001                	nop
   13386:	70e2                	ld	ra,56(sp)
   13388:	7442                	ld	s0,48(sp)
   1338a:	74a2                	ld	s1,40(sp)
   1338c:	7902                	ld	s2,32(sp)
   1338e:	6121                	addi	sp,sp,64
   13390:	8082                	ret

0000000000013392 <xbrtime_ptrdiff_put_nb>:
   13392:	7139                	addi	sp,sp,-64
   13394:	fc06                	sd	ra,56(sp)
   13396:	f822                	sd	s0,48(sp)
   13398:	f426                	sd	s1,40(sp)
   1339a:	f04a                	sd	s2,32(sp)
   1339c:	0080                	addi	s0,sp,64
   1339e:	fca43c23          	sd	a0,-40(s0)
   133a2:	fcb43823          	sd	a1,-48(s0)
   133a6:	fcc43423          	sd	a2,-56(s0)
   133aa:	87b6                	mv	a5,a3
   133ac:	fcf42223          	sw	a5,-60(s0)
   133b0:	87ba                	mv	a5,a4
   133b2:	fcf42023          	sw	a5,-64(s0)
   133b6:	fc843783          	ld	a5,-56(s0)
   133ba:	cfdd                	beqz	a5,13478 <xbrtime_ptrdiff_put_nb+0xe6>
   133bc:	fc442783          	lw	a5,-60(s0)
   133c0:	0007871b          	sext.w	a4,a5
   133c4:	4785                	li	a5,1
   133c6:	00f71763          	bne	a4,a5,133d4 <xbrtime_ptrdiff_put_nb+0x42>
   133ca:	fc843703          	ld	a4,-56(s0)
   133ce:	4785                	li	a5,1
   133d0:	04f71b63          	bne	a4,a5,13426 <xbrtime_ptrdiff_put_nb+0x94>
   133d4:	fd043483          	ld	s1,-48(s0)
   133d8:	fd843783          	ld	a5,-40(s0)
   133dc:	fc042703          	lw	a4,-64(s0)
   133e0:	85ba                	mv	a1,a4
   133e2:	853e                	mv	a0,a5
   133e4:	ffffd097          	auipc	ra,0xffffd
   133e8:	436080e7          	jalr	1078(ra) # 1081a <__xbrtime_ltor>
   133ec:	892a                	mv	s2,a0
   133ee:	fc042783          	lw	a5,-64(s0)
   133f2:	853e                	mv	a0,a5
   133f4:	00003097          	auipc	ra,0x3
   133f8:	f9e080e7          	jalr	-98(ra) # 16392 <xbrtime_decode_pe>
   133fc:	87aa                	mv	a5,a0
   133fe:	0007861b          	sext.w	a2,a5
   13402:	fc843783          	ld	a5,-56(s0)
   13406:	0007869b          	sext.w	a3,a5
   1340a:	fc442783          	lw	a5,-60(s0)
   1340e:	2781                	sext.w	a5,a5
   13410:	0037979b          	slliw	a5,a5,0x3
   13414:	2781                	sext.w	a5,a5
   13416:	873e                	mv	a4,a5
   13418:	85ca                	mv	a1,s2
   1341a:	8526                	mv	a0,s1
   1341c:	00004097          	auipc	ra,0x4
   13420:	ac4080e7          	jalr	-1340(ra) # 16ee0 <__xbrtime_put_s4_seq>
   13424:	a899                	j	1347a <xbrtime_ptrdiff_put_nb+0xe8>
   13426:	fd043483          	ld	s1,-48(s0)
   1342a:	fd843783          	ld	a5,-40(s0)
   1342e:	fc042703          	lw	a4,-64(s0)
   13432:	85ba                	mv	a1,a4
   13434:	853e                	mv	a0,a5
   13436:	ffffd097          	auipc	ra,0xffffd
   1343a:	3e4080e7          	jalr	996(ra) # 1081a <__xbrtime_ltor>
   1343e:	892a                	mv	s2,a0
   13440:	fc042783          	lw	a5,-64(s0)
   13444:	853e                	mv	a0,a5
   13446:	00003097          	auipc	ra,0x3
   1344a:	f4c080e7          	jalr	-180(ra) # 16392 <xbrtime_decode_pe>
   1344e:	87aa                	mv	a5,a0
   13450:	0007861b          	sext.w	a2,a5
   13454:	fc843783          	ld	a5,-56(s0)
   13458:	0007869b          	sext.w	a3,a5
   1345c:	fc442783          	lw	a5,-60(s0)
   13460:	2781                	sext.w	a5,a5
   13462:	0037979b          	slliw	a5,a5,0x3
   13466:	2781                	sext.w	a5,a5
   13468:	873e                	mv	a4,a5
   1346a:	85ca                	mv	a1,s2
   1346c:	8526                	mv	a0,s1
   1346e:	00004097          	auipc	ra,0x4
   13472:	a8e080e7          	jalr	-1394(ra) # 16efc <__xbrtime_put_s4_agg>
   13476:	a011                	j	1347a <xbrtime_ptrdiff_put_nb+0xe8>
   13478:	0001                	nop
   1347a:	70e2                	ld	ra,56(sp)
   1347c:	7442                	ld	s0,48(sp)
   1347e:	74a2                	ld	s1,40(sp)
   13480:	7902                	ld	s2,32(sp)
   13482:	6121                	addi	sp,sp,64
   13484:	8082                	ret

0000000000013486 <xbrtime_float_get>:
   13486:	7139                	addi	sp,sp,-64
   13488:	fc06                	sd	ra,56(sp)
   1348a:	f822                	sd	s0,48(sp)
   1348c:	f426                	sd	s1,40(sp)
   1348e:	f04a                	sd	s2,32(sp)
   13490:	0080                	addi	s0,sp,64
   13492:	fca43c23          	sd	a0,-40(s0)
   13496:	fcb43823          	sd	a1,-48(s0)
   1349a:	fcc43423          	sd	a2,-56(s0)
   1349e:	87b6                	mv	a5,a3
   134a0:	fcf42223          	sw	a5,-60(s0)
   134a4:	87ba                	mv	a5,a4
   134a6:	fcf42023          	sw	a5,-64(s0)
   134aa:	fc843783          	ld	a5,-56(s0)
   134ae:	c7cd                	beqz	a5,13558 <xbrtime_float_get+0xd2>
   134b0:	fc442783          	lw	a5,-60(s0)
   134b4:	0007871b          	sext.w	a4,a5
   134b8:	4785                	li	a5,1
   134ba:	00f71763          	bne	a4,a5,134c8 <xbrtime_float_get+0x42>
   134be:	fc843703          	ld	a4,-56(s0)
   134c2:	4785                	li	a5,1
   134c4:	04f71563          	bne	a4,a5,1350e <xbrtime_float_get+0x88>
   134c8:	fd043783          	ld	a5,-48(s0)
   134cc:	fc042703          	lw	a4,-64(s0)
   134d0:	85ba                	mv	a1,a4
   134d2:	853e                	mv	a0,a5
   134d4:	b46fd0ef          	jal	ra,1081a <__xbrtime_ltor>
   134d8:	892a                	mv	s2,a0
   134da:	fd843483          	ld	s1,-40(s0)
   134de:	fc042783          	lw	a5,-64(s0)
   134e2:	853e                	mv	a0,a5
   134e4:	6af020ef          	jal	ra,16392 <xbrtime_decode_pe>
   134e8:	87aa                	mv	a5,a0
   134ea:	0007861b          	sext.w	a2,a5
   134ee:	fc843783          	ld	a5,-56(s0)
   134f2:	0007869b          	sext.w	a3,a5
   134f6:	fc442783          	lw	a5,-60(s0)
   134fa:	2781                	sext.w	a5,a5
   134fc:	0027979b          	slliw	a5,a5,0x2
   13500:	2781                	sext.w	a5,a5
   13502:	873e                	mv	a4,a5
   13504:	85a6                	mv	a1,s1
   13506:	854a                	mv	a0,s2
   13508:	7e0030ef          	jal	ra,16ce8 <__xbrtime_get_u4_seq>
   1350c:	a099                	j	13552 <xbrtime_float_get+0xcc>
   1350e:	fd043783          	ld	a5,-48(s0)
   13512:	fc042703          	lw	a4,-64(s0)
   13516:	85ba                	mv	a1,a4
   13518:	853e                	mv	a0,a5
   1351a:	b00fd0ef          	jal	ra,1081a <__xbrtime_ltor>
   1351e:	892a                	mv	s2,a0
   13520:	fd843483          	ld	s1,-40(s0)
   13524:	fc042783          	lw	a5,-64(s0)
   13528:	853e                	mv	a0,a5
   1352a:	669020ef          	jal	ra,16392 <xbrtime_decode_pe>
   1352e:	87aa                	mv	a5,a0
   13530:	0007861b          	sext.w	a2,a5
   13534:	fc843783          	ld	a5,-56(s0)
   13538:	0007869b          	sext.w	a3,a5
   1353c:	fc442783          	lw	a5,-60(s0)
   13540:	2781                	sext.w	a5,a5
   13542:	0027979b          	slliw	a5,a5,0x2
   13546:	2781                	sext.w	a5,a5
   13548:	873e                	mv	a4,a5
   1354a:	85a6                	mv	a1,s1
   1354c:	854a                	mv	a0,s2
   1354e:	7b6030ef          	jal	ra,16d04 <__xbrtime_get_u4_agg>
   13552:	1fd030ef          	jal	ra,16f4e <__xbrtime_asm_fence>
   13556:	a011                	j	1355a <xbrtime_float_get+0xd4>
   13558:	0001                	nop
   1355a:	70e2                	ld	ra,56(sp)
   1355c:	7442                	ld	s0,48(sp)
   1355e:	74a2                	ld	s1,40(sp)
   13560:	7902                	ld	s2,32(sp)
   13562:	6121                	addi	sp,sp,64
   13564:	8082                	ret

0000000000013566 <xbrtime_float_get_nb>:
   13566:	7139                	addi	sp,sp,-64
   13568:	fc06                	sd	ra,56(sp)
   1356a:	f822                	sd	s0,48(sp)
   1356c:	f426                	sd	s1,40(sp)
   1356e:	f04a                	sd	s2,32(sp)
   13570:	0080                	addi	s0,sp,64
   13572:	fca43c23          	sd	a0,-40(s0)
   13576:	fcb43823          	sd	a1,-48(s0)
   1357a:	fcc43423          	sd	a2,-56(s0)
   1357e:	87b6                	mv	a5,a3
   13580:	fcf42223          	sw	a5,-60(s0)
   13584:	87ba                	mv	a5,a4
   13586:	fcf42023          	sw	a5,-64(s0)
   1358a:	fc843783          	ld	a5,-56(s0)
   1358e:	cfdd                	beqz	a5,1364c <xbrtime_float_get_nb+0xe6>
   13590:	fc442783          	lw	a5,-60(s0)
   13594:	0007871b          	sext.w	a4,a5
   13598:	4785                	li	a5,1
   1359a:	00f71763          	bne	a4,a5,135a8 <xbrtime_float_get_nb+0x42>
   1359e:	fc843703          	ld	a4,-56(s0)
   135a2:	4785                	li	a5,1
   135a4:	04f71b63          	bne	a4,a5,135fa <xbrtime_float_get_nb+0x94>
   135a8:	fd043783          	ld	a5,-48(s0)
   135ac:	fc042703          	lw	a4,-64(s0)
   135b0:	85ba                	mv	a1,a4
   135b2:	853e                	mv	a0,a5
   135b4:	ffffd097          	auipc	ra,0xffffd
   135b8:	266080e7          	jalr	614(ra) # 1081a <__xbrtime_ltor>
   135bc:	892a                	mv	s2,a0
   135be:	fd843483          	ld	s1,-40(s0)
   135c2:	fc042783          	lw	a5,-64(s0)
   135c6:	853e                	mv	a0,a5
   135c8:	00003097          	auipc	ra,0x3
   135cc:	dca080e7          	jalr	-566(ra) # 16392 <xbrtime_decode_pe>
   135d0:	87aa                	mv	a5,a0
   135d2:	0007861b          	sext.w	a2,a5
   135d6:	fc843783          	ld	a5,-56(s0)
   135da:	0007869b          	sext.w	a3,a5
   135de:	fc442783          	lw	a5,-60(s0)
   135e2:	2781                	sext.w	a5,a5
   135e4:	0027979b          	slliw	a5,a5,0x2
   135e8:	2781                	sext.w	a5,a5
   135ea:	873e                	mv	a4,a5
   135ec:	85a6                	mv	a1,s1
   135ee:	854a                	mv	a0,s2
   135f0:	00003097          	auipc	ra,0x3
   135f4:	6f8080e7          	jalr	1784(ra) # 16ce8 <__xbrtime_get_u4_seq>
   135f8:	a899                	j	1364e <xbrtime_float_get_nb+0xe8>
   135fa:	fd043783          	ld	a5,-48(s0)
   135fe:	fc042703          	lw	a4,-64(s0)
   13602:	85ba                	mv	a1,a4
   13604:	853e                	mv	a0,a5
   13606:	ffffd097          	auipc	ra,0xffffd
   1360a:	214080e7          	jalr	532(ra) # 1081a <__xbrtime_ltor>
   1360e:	892a                	mv	s2,a0
   13610:	fd843483          	ld	s1,-40(s0)
   13614:	fc042783          	lw	a5,-64(s0)
   13618:	853e                	mv	a0,a5
   1361a:	00003097          	auipc	ra,0x3
   1361e:	d78080e7          	jalr	-648(ra) # 16392 <xbrtime_decode_pe>
   13622:	87aa                	mv	a5,a0
   13624:	0007861b          	sext.w	a2,a5
   13628:	fc843783          	ld	a5,-56(s0)
   1362c:	0007869b          	sext.w	a3,a5
   13630:	fc442783          	lw	a5,-60(s0)
   13634:	2781                	sext.w	a5,a5
   13636:	0027979b          	slliw	a5,a5,0x2
   1363a:	2781                	sext.w	a5,a5
   1363c:	873e                	mv	a4,a5
   1363e:	85a6                	mv	a1,s1
   13640:	854a                	mv	a0,s2
   13642:	00003097          	auipc	ra,0x3
   13646:	6c2080e7          	jalr	1730(ra) # 16d04 <__xbrtime_get_u4_agg>
   1364a:	a011                	j	1364e <xbrtime_float_get_nb+0xe8>
   1364c:	0001                	nop
   1364e:	70e2                	ld	ra,56(sp)
   13650:	7442                	ld	s0,48(sp)
   13652:	74a2                	ld	s1,40(sp)
   13654:	7902                	ld	s2,32(sp)
   13656:	6121                	addi	sp,sp,64
   13658:	8082                	ret

000000000001365a <xbrtime_double_get>:
   1365a:	7139                	addi	sp,sp,-64
   1365c:	fc06                	sd	ra,56(sp)
   1365e:	f822                	sd	s0,48(sp)
   13660:	f426                	sd	s1,40(sp)
   13662:	f04a                	sd	s2,32(sp)
   13664:	0080                	addi	s0,sp,64
   13666:	fca43c23          	sd	a0,-40(s0)
   1366a:	fcb43823          	sd	a1,-48(s0)
   1366e:	fcc43423          	sd	a2,-56(s0)
   13672:	87b6                	mv	a5,a3
   13674:	fcf42223          	sw	a5,-60(s0)
   13678:	87ba                	mv	a5,a4
   1367a:	fcf42023          	sw	a5,-64(s0)
   1367e:	fc843783          	ld	a5,-56(s0)
   13682:	c7cd                	beqz	a5,1372c <xbrtime_double_get+0xd2>
   13684:	fc442783          	lw	a5,-60(s0)
   13688:	0007871b          	sext.w	a4,a5
   1368c:	4785                	li	a5,1
   1368e:	00f71763          	bne	a4,a5,1369c <xbrtime_double_get+0x42>
   13692:	fc843703          	ld	a4,-56(s0)
   13696:	4785                	li	a5,1
   13698:	04f71563          	bne	a4,a5,136e2 <xbrtime_double_get+0x88>
   1369c:	fd043783          	ld	a5,-48(s0)
   136a0:	fc042703          	lw	a4,-64(s0)
   136a4:	85ba                	mv	a1,a4
   136a6:	853e                	mv	a0,a5
   136a8:	972fd0ef          	jal	ra,1081a <__xbrtime_ltor>
   136ac:	892a                	mv	s2,a0
   136ae:	fd843483          	ld	s1,-40(s0)
   136b2:	fc042783          	lw	a5,-64(s0)
   136b6:	853e                	mv	a0,a5
   136b8:	4db020ef          	jal	ra,16392 <xbrtime_decode_pe>
   136bc:	87aa                	mv	a5,a0
   136be:	0007861b          	sext.w	a2,a5
   136c2:	fc843783          	ld	a5,-56(s0)
   136c6:	0007869b          	sext.w	a3,a5
   136ca:	fc442783          	lw	a5,-60(s0)
   136ce:	2781                	sext.w	a5,a5
   136d0:	0037979b          	slliw	a5,a5,0x3
   136d4:	2781                	sext.w	a5,a5
   136d6:	873e                	mv	a4,a5
   136d8:	85a6                	mv	a1,s1
   136da:	854a                	mv	a0,s2
   136dc:	636030ef          	jal	ra,16d12 <__xbrtime_get_u8_seq>
   136e0:	a099                	j	13726 <xbrtime_double_get+0xcc>
   136e2:	fd043783          	ld	a5,-48(s0)
   136e6:	fc042703          	lw	a4,-64(s0)
   136ea:	85ba                	mv	a1,a4
   136ec:	853e                	mv	a0,a5
   136ee:	92cfd0ef          	jal	ra,1081a <__xbrtime_ltor>
   136f2:	892a                	mv	s2,a0
   136f4:	fd843483          	ld	s1,-40(s0)
   136f8:	fc042783          	lw	a5,-64(s0)
   136fc:	853e                	mv	a0,a5
   136fe:	495020ef          	jal	ra,16392 <xbrtime_decode_pe>
   13702:	87aa                	mv	a5,a0
   13704:	0007861b          	sext.w	a2,a5
   13708:	fc843783          	ld	a5,-56(s0)
   1370c:	0007869b          	sext.w	a3,a5
   13710:	fc442783          	lw	a5,-60(s0)
   13714:	2781                	sext.w	a5,a5
   13716:	0037979b          	slliw	a5,a5,0x3
   1371a:	2781                	sext.w	a5,a5
   1371c:	873e                	mv	a4,a5
   1371e:	85a6                	mv	a1,s1
   13720:	854a                	mv	a0,s2
   13722:	60c030ef          	jal	ra,16d2e <__xbrtime_get_u8_agg>
   13726:	029030ef          	jal	ra,16f4e <__xbrtime_asm_fence>
   1372a:	a011                	j	1372e <xbrtime_double_get+0xd4>
   1372c:	0001                	nop
   1372e:	70e2                	ld	ra,56(sp)
   13730:	7442                	ld	s0,48(sp)
   13732:	74a2                	ld	s1,40(sp)
   13734:	7902                	ld	s2,32(sp)
   13736:	6121                	addi	sp,sp,64
   13738:	8082                	ret

000000000001373a <xbrtime_double_get_nb>:
   1373a:	7139                	addi	sp,sp,-64
   1373c:	fc06                	sd	ra,56(sp)
   1373e:	f822                	sd	s0,48(sp)
   13740:	f426                	sd	s1,40(sp)
   13742:	f04a                	sd	s2,32(sp)
   13744:	0080                	addi	s0,sp,64
   13746:	fca43c23          	sd	a0,-40(s0)
   1374a:	fcb43823          	sd	a1,-48(s0)
   1374e:	fcc43423          	sd	a2,-56(s0)
   13752:	87b6                	mv	a5,a3
   13754:	fcf42223          	sw	a5,-60(s0)
   13758:	87ba                	mv	a5,a4
   1375a:	fcf42023          	sw	a5,-64(s0)
   1375e:	fc843783          	ld	a5,-56(s0)
   13762:	cfdd                	beqz	a5,13820 <xbrtime_double_get_nb+0xe6>
   13764:	fc442783          	lw	a5,-60(s0)
   13768:	0007871b          	sext.w	a4,a5
   1376c:	4785                	li	a5,1
   1376e:	00f71763          	bne	a4,a5,1377c <xbrtime_double_get_nb+0x42>
   13772:	fc843703          	ld	a4,-56(s0)
   13776:	4785                	li	a5,1
   13778:	04f71b63          	bne	a4,a5,137ce <xbrtime_double_get_nb+0x94>
   1377c:	fd043783          	ld	a5,-48(s0)
   13780:	fc042703          	lw	a4,-64(s0)
   13784:	85ba                	mv	a1,a4
   13786:	853e                	mv	a0,a5
   13788:	ffffd097          	auipc	ra,0xffffd
   1378c:	092080e7          	jalr	146(ra) # 1081a <__xbrtime_ltor>
   13790:	892a                	mv	s2,a0
   13792:	fd843483          	ld	s1,-40(s0)
   13796:	fc042783          	lw	a5,-64(s0)
   1379a:	853e                	mv	a0,a5
   1379c:	00003097          	auipc	ra,0x3
   137a0:	bf6080e7          	jalr	-1034(ra) # 16392 <xbrtime_decode_pe>
   137a4:	87aa                	mv	a5,a0
   137a6:	0007861b          	sext.w	a2,a5
   137aa:	fc843783          	ld	a5,-56(s0)
   137ae:	0007869b          	sext.w	a3,a5
   137b2:	fc442783          	lw	a5,-60(s0)
   137b6:	2781                	sext.w	a5,a5
   137b8:	0037979b          	slliw	a5,a5,0x3
   137bc:	2781                	sext.w	a5,a5
   137be:	873e                	mv	a4,a5
   137c0:	85a6                	mv	a1,s1
   137c2:	854a                	mv	a0,s2
   137c4:	00003097          	auipc	ra,0x3
   137c8:	54e080e7          	jalr	1358(ra) # 16d12 <__xbrtime_get_u8_seq>
   137cc:	a899                	j	13822 <xbrtime_double_get_nb+0xe8>
   137ce:	fd043783          	ld	a5,-48(s0)
   137d2:	fc042703          	lw	a4,-64(s0)
   137d6:	85ba                	mv	a1,a4
   137d8:	853e                	mv	a0,a5
   137da:	ffffd097          	auipc	ra,0xffffd
   137de:	040080e7          	jalr	64(ra) # 1081a <__xbrtime_ltor>
   137e2:	892a                	mv	s2,a0
   137e4:	fd843483          	ld	s1,-40(s0)
   137e8:	fc042783          	lw	a5,-64(s0)
   137ec:	853e                	mv	a0,a5
   137ee:	00003097          	auipc	ra,0x3
   137f2:	ba4080e7          	jalr	-1116(ra) # 16392 <xbrtime_decode_pe>
   137f6:	87aa                	mv	a5,a0
   137f8:	0007861b          	sext.w	a2,a5
   137fc:	fc843783          	ld	a5,-56(s0)
   13800:	0007869b          	sext.w	a3,a5
   13804:	fc442783          	lw	a5,-60(s0)
   13808:	2781                	sext.w	a5,a5
   1380a:	0037979b          	slliw	a5,a5,0x3
   1380e:	2781                	sext.w	a5,a5
   13810:	873e                	mv	a4,a5
   13812:	85a6                	mv	a1,s1
   13814:	854a                	mv	a0,s2
   13816:	00003097          	auipc	ra,0x3
   1381a:	518080e7          	jalr	1304(ra) # 16d2e <__xbrtime_get_u8_agg>
   1381e:	a011                	j	13822 <xbrtime_double_get_nb+0xe8>
   13820:	0001                	nop
   13822:	70e2                	ld	ra,56(sp)
   13824:	7442                	ld	s0,48(sp)
   13826:	74a2                	ld	s1,40(sp)
   13828:	7902                	ld	s2,32(sp)
   1382a:	6121                	addi	sp,sp,64
   1382c:	8082                	ret

000000000001382e <xbrtime_longdouble_get>:
   1382e:	7139                	addi	sp,sp,-64
   13830:	fc06                	sd	ra,56(sp)
   13832:	f822                	sd	s0,48(sp)
   13834:	f426                	sd	s1,40(sp)
   13836:	f04a                	sd	s2,32(sp)
   13838:	0080                	addi	s0,sp,64
   1383a:	fca43c23          	sd	a0,-40(s0)
   1383e:	fcb43823          	sd	a1,-48(s0)
   13842:	fcc43423          	sd	a2,-56(s0)
   13846:	87b6                	mv	a5,a3
   13848:	fcf42223          	sw	a5,-60(s0)
   1384c:	87ba                	mv	a5,a4
   1384e:	fcf42023          	sw	a5,-64(s0)
   13852:	fc843783          	ld	a5,-56(s0)
   13856:	c7cd                	beqz	a5,13900 <xbrtime_longdouble_get+0xd2>
   13858:	fc442783          	lw	a5,-60(s0)
   1385c:	0007871b          	sext.w	a4,a5
   13860:	4785                	li	a5,1
   13862:	00f71763          	bne	a4,a5,13870 <xbrtime_longdouble_get+0x42>
   13866:	fc843703          	ld	a4,-56(s0)
   1386a:	4785                	li	a5,1
   1386c:	04f71563          	bne	a4,a5,138b6 <xbrtime_longdouble_get+0x88>
   13870:	fd043783          	ld	a5,-48(s0)
   13874:	fc042703          	lw	a4,-64(s0)
   13878:	85ba                	mv	a1,a4
   1387a:	853e                	mv	a0,a5
   1387c:	f9ffc0ef          	jal	ra,1081a <__xbrtime_ltor>
   13880:	892a                	mv	s2,a0
   13882:	fd843483          	ld	s1,-40(s0)
   13886:	fc042783          	lw	a5,-64(s0)
   1388a:	853e                	mv	a0,a5
   1388c:	307020ef          	jal	ra,16392 <xbrtime_decode_pe>
   13890:	87aa                	mv	a5,a0
   13892:	0007861b          	sext.w	a2,a5
   13896:	fc843783          	ld	a5,-56(s0)
   1389a:	0007869b          	sext.w	a3,a5
   1389e:	fc442783          	lw	a5,-60(s0)
   138a2:	2781                	sext.w	a5,a5
   138a4:	0047979b          	slliw	a5,a5,0x4
   138a8:	2781                	sext.w	a5,a5
   138aa:	873e                	mv	a4,a5
   138ac:	85a6                	mv	a1,s1
   138ae:	854a                	mv	a0,s2
   138b0:	462030ef          	jal	ra,16d12 <__xbrtime_get_u8_seq>
   138b4:	a099                	j	138fa <xbrtime_longdouble_get+0xcc>
   138b6:	fd043783          	ld	a5,-48(s0)
   138ba:	fc042703          	lw	a4,-64(s0)
   138be:	85ba                	mv	a1,a4
   138c0:	853e                	mv	a0,a5
   138c2:	f59fc0ef          	jal	ra,1081a <__xbrtime_ltor>
   138c6:	892a                	mv	s2,a0
   138c8:	fd843483          	ld	s1,-40(s0)
   138cc:	fc042783          	lw	a5,-64(s0)
   138d0:	853e                	mv	a0,a5
   138d2:	2c1020ef          	jal	ra,16392 <xbrtime_decode_pe>
   138d6:	87aa                	mv	a5,a0
   138d8:	0007861b          	sext.w	a2,a5
   138dc:	fc843783          	ld	a5,-56(s0)
   138e0:	0007869b          	sext.w	a3,a5
   138e4:	fc442783          	lw	a5,-60(s0)
   138e8:	2781                	sext.w	a5,a5
   138ea:	0047979b          	slliw	a5,a5,0x4
   138ee:	2781                	sext.w	a5,a5
   138f0:	873e                	mv	a4,a5
   138f2:	85a6                	mv	a1,s1
   138f4:	854a                	mv	a0,s2
   138f6:	438030ef          	jal	ra,16d2e <__xbrtime_get_u8_agg>
   138fa:	654030ef          	jal	ra,16f4e <__xbrtime_asm_fence>
   138fe:	a011                	j	13902 <xbrtime_longdouble_get+0xd4>
   13900:	0001                	nop
   13902:	70e2                	ld	ra,56(sp)
   13904:	7442                	ld	s0,48(sp)
   13906:	74a2                	ld	s1,40(sp)
   13908:	7902                	ld	s2,32(sp)
   1390a:	6121                	addi	sp,sp,64
   1390c:	8082                	ret

000000000001390e <xbrtime_longdouble_get_nb>:
   1390e:	7139                	addi	sp,sp,-64
   13910:	fc06                	sd	ra,56(sp)
   13912:	f822                	sd	s0,48(sp)
   13914:	f426                	sd	s1,40(sp)
   13916:	f04a                	sd	s2,32(sp)
   13918:	0080                	addi	s0,sp,64
   1391a:	fca43c23          	sd	a0,-40(s0)
   1391e:	fcb43823          	sd	a1,-48(s0)
   13922:	fcc43423          	sd	a2,-56(s0)
   13926:	87b6                	mv	a5,a3
   13928:	fcf42223          	sw	a5,-60(s0)
   1392c:	87ba                	mv	a5,a4
   1392e:	fcf42023          	sw	a5,-64(s0)
   13932:	fc843783          	ld	a5,-56(s0)
   13936:	cfdd                	beqz	a5,139f4 <xbrtime_longdouble_get_nb+0xe6>
   13938:	fc442783          	lw	a5,-60(s0)
   1393c:	0007871b          	sext.w	a4,a5
   13940:	4785                	li	a5,1
   13942:	00f71763          	bne	a4,a5,13950 <xbrtime_longdouble_get_nb+0x42>
   13946:	fc843703          	ld	a4,-56(s0)
   1394a:	4785                	li	a5,1
   1394c:	04f71b63          	bne	a4,a5,139a2 <xbrtime_longdouble_get_nb+0x94>
   13950:	fd043783          	ld	a5,-48(s0)
   13954:	fc042703          	lw	a4,-64(s0)
   13958:	85ba                	mv	a1,a4
   1395a:	853e                	mv	a0,a5
   1395c:	ffffd097          	auipc	ra,0xffffd
   13960:	ebe080e7          	jalr	-322(ra) # 1081a <__xbrtime_ltor>
   13964:	892a                	mv	s2,a0
   13966:	fd843483          	ld	s1,-40(s0)
   1396a:	fc042783          	lw	a5,-64(s0)
   1396e:	853e                	mv	a0,a5
   13970:	00003097          	auipc	ra,0x3
   13974:	a22080e7          	jalr	-1502(ra) # 16392 <xbrtime_decode_pe>
   13978:	87aa                	mv	a5,a0
   1397a:	0007861b          	sext.w	a2,a5
   1397e:	fc843783          	ld	a5,-56(s0)
   13982:	0007869b          	sext.w	a3,a5
   13986:	fc442783          	lw	a5,-60(s0)
   1398a:	2781                	sext.w	a5,a5
   1398c:	0047979b          	slliw	a5,a5,0x4
   13990:	2781                	sext.w	a5,a5
   13992:	873e                	mv	a4,a5
   13994:	85a6                	mv	a1,s1
   13996:	854a                	mv	a0,s2
   13998:	00003097          	auipc	ra,0x3
   1399c:	37a080e7          	jalr	890(ra) # 16d12 <__xbrtime_get_u8_seq>
   139a0:	a899                	j	139f6 <xbrtime_longdouble_get_nb+0xe8>
   139a2:	fd043783          	ld	a5,-48(s0)
   139a6:	fc042703          	lw	a4,-64(s0)
   139aa:	85ba                	mv	a1,a4
   139ac:	853e                	mv	a0,a5
   139ae:	ffffd097          	auipc	ra,0xffffd
   139b2:	e6c080e7          	jalr	-404(ra) # 1081a <__xbrtime_ltor>
   139b6:	892a                	mv	s2,a0
   139b8:	fd843483          	ld	s1,-40(s0)
   139bc:	fc042783          	lw	a5,-64(s0)
   139c0:	853e                	mv	a0,a5
   139c2:	00003097          	auipc	ra,0x3
   139c6:	9d0080e7          	jalr	-1584(ra) # 16392 <xbrtime_decode_pe>
   139ca:	87aa                	mv	a5,a0
   139cc:	0007861b          	sext.w	a2,a5
   139d0:	fc843783          	ld	a5,-56(s0)
   139d4:	0007869b          	sext.w	a3,a5
   139d8:	fc442783          	lw	a5,-60(s0)
   139dc:	2781                	sext.w	a5,a5
   139de:	0047979b          	slliw	a5,a5,0x4
   139e2:	2781                	sext.w	a5,a5
   139e4:	873e                	mv	a4,a5
   139e6:	85a6                	mv	a1,s1
   139e8:	854a                	mv	a0,s2
   139ea:	00003097          	auipc	ra,0x3
   139ee:	344080e7          	jalr	836(ra) # 16d2e <__xbrtime_get_u8_agg>
   139f2:	a011                	j	139f6 <xbrtime_longdouble_get_nb+0xe8>
   139f4:	0001                	nop
   139f6:	70e2                	ld	ra,56(sp)
   139f8:	7442                	ld	s0,48(sp)
   139fa:	74a2                	ld	s1,40(sp)
   139fc:	7902                	ld	s2,32(sp)
   139fe:	6121                	addi	sp,sp,64
   13a00:	8082                	ret

0000000000013a02 <xbrtime_schar_get>:
   13a02:	7139                	addi	sp,sp,-64
   13a04:	fc06                	sd	ra,56(sp)
   13a06:	f822                	sd	s0,48(sp)
   13a08:	f426                	sd	s1,40(sp)
   13a0a:	f04a                	sd	s2,32(sp)
   13a0c:	0080                	addi	s0,sp,64
   13a0e:	fca43c23          	sd	a0,-40(s0)
   13a12:	fcb43823          	sd	a1,-48(s0)
   13a16:	fcc43423          	sd	a2,-56(s0)
   13a1a:	87b6                	mv	a5,a3
   13a1c:	fcf42223          	sw	a5,-60(s0)
   13a20:	87ba                	mv	a5,a4
   13a22:	fcf42023          	sw	a5,-64(s0)
   13a26:	fc843783          	ld	a5,-56(s0)
   13a2a:	cfc9                	beqz	a5,13ac4 <xbrtime_schar_get+0xc2>
   13a2c:	fc442783          	lw	a5,-60(s0)
   13a30:	0007871b          	sext.w	a4,a5
   13a34:	4785                	li	a5,1
   13a36:	00f71763          	bne	a4,a5,13a44 <xbrtime_schar_get+0x42>
   13a3a:	fc843703          	ld	a4,-56(s0)
   13a3e:	4785                	li	a5,1
   13a40:	04f71163          	bne	a4,a5,13a82 <xbrtime_schar_get+0x80>
   13a44:	fd043783          	ld	a5,-48(s0)
   13a48:	fc042703          	lw	a4,-64(s0)
   13a4c:	85ba                	mv	a1,a4
   13a4e:	853e                	mv	a0,a5
   13a50:	dcbfc0ef          	jal	ra,1081a <__xbrtime_ltor>
   13a54:	892a                	mv	s2,a0
   13a56:	fd843483          	ld	s1,-40(s0)
   13a5a:	fc042783          	lw	a5,-64(s0)
   13a5e:	853e                	mv	a0,a5
   13a60:	133020ef          	jal	ra,16392 <xbrtime_decode_pe>
   13a64:	87aa                	mv	a5,a0
   13a66:	2781                	sext.w	a5,a5
   13a68:	fc843703          	ld	a4,-56(s0)
   13a6c:	0007069b          	sext.w	a3,a4
   13a70:	fc442703          	lw	a4,-60(s0)
   13a74:	2701                	sext.w	a4,a4
   13a76:	863e                	mv	a2,a5
   13a78:	85a6                	mv	a1,s1
   13a7a:	854a                	mv	a0,s2
   13a7c:	2c0030ef          	jal	ra,16d3c <__xbrtime_get_s1_seq>
   13a80:	a83d                	j	13abe <xbrtime_schar_get+0xbc>
   13a82:	fd043783          	ld	a5,-48(s0)
   13a86:	fc042703          	lw	a4,-64(s0)
   13a8a:	85ba                	mv	a1,a4
   13a8c:	853e                	mv	a0,a5
   13a8e:	d8dfc0ef          	jal	ra,1081a <__xbrtime_ltor>
   13a92:	892a                	mv	s2,a0
   13a94:	fd843483          	ld	s1,-40(s0)
   13a98:	fc042783          	lw	a5,-64(s0)
   13a9c:	853e                	mv	a0,a5
   13a9e:	0f5020ef          	jal	ra,16392 <xbrtime_decode_pe>
   13aa2:	87aa                	mv	a5,a0
   13aa4:	2781                	sext.w	a5,a5
   13aa6:	fc843703          	ld	a4,-56(s0)
   13aaa:	0007069b          	sext.w	a3,a4
   13aae:	fc442703          	lw	a4,-60(s0)
   13ab2:	2701                	sext.w	a4,a4
   13ab4:	863e                	mv	a2,a5
   13ab6:	85a6                	mv	a1,s1
   13ab8:	854a                	mv	a0,s2
   13aba:	29e030ef          	jal	ra,16d58 <__xbrtime_get_s1_agg>
   13abe:	490030ef          	jal	ra,16f4e <__xbrtime_asm_fence>
   13ac2:	a011                	j	13ac6 <xbrtime_schar_get+0xc4>
   13ac4:	0001                	nop
   13ac6:	70e2                	ld	ra,56(sp)
   13ac8:	7442                	ld	s0,48(sp)
   13aca:	74a2                	ld	s1,40(sp)
   13acc:	7902                	ld	s2,32(sp)
   13ace:	6121                	addi	sp,sp,64
   13ad0:	8082                	ret

0000000000013ad2 <xbrtime_schar_get_nb>:
   13ad2:	7139                	addi	sp,sp,-64
   13ad4:	fc06                	sd	ra,56(sp)
   13ad6:	f822                	sd	s0,48(sp)
   13ad8:	f426                	sd	s1,40(sp)
   13ada:	f04a                	sd	s2,32(sp)
   13adc:	0080                	addi	s0,sp,64
   13ade:	fca43c23          	sd	a0,-40(s0)
   13ae2:	fcb43823          	sd	a1,-48(s0)
   13ae6:	fcc43423          	sd	a2,-56(s0)
   13aea:	87b6                	mv	a5,a3
   13aec:	fcf42223          	sw	a5,-60(s0)
   13af0:	87ba                	mv	a5,a4
   13af2:	fcf42023          	sw	a5,-64(s0)
   13af6:	fc843783          	ld	a5,-56(s0)
   13afa:	c7dd                	beqz	a5,13ba8 <xbrtime_schar_get_nb+0xd6>
   13afc:	fc442783          	lw	a5,-60(s0)
   13b00:	0007871b          	sext.w	a4,a5
   13b04:	4785                	li	a5,1
   13b06:	00f71763          	bne	a4,a5,13b14 <xbrtime_schar_get_nb+0x42>
   13b0a:	fc843703          	ld	a4,-56(s0)
   13b0e:	4785                	li	a5,1
   13b10:	04f71763          	bne	a4,a5,13b5e <xbrtime_schar_get_nb+0x8c>
   13b14:	fd043783          	ld	a5,-48(s0)
   13b18:	fc042703          	lw	a4,-64(s0)
   13b1c:	85ba                	mv	a1,a4
   13b1e:	853e                	mv	a0,a5
   13b20:	ffffd097          	auipc	ra,0xffffd
   13b24:	cfa080e7          	jalr	-774(ra) # 1081a <__xbrtime_ltor>
   13b28:	892a                	mv	s2,a0
   13b2a:	fd843483          	ld	s1,-40(s0)
   13b2e:	fc042783          	lw	a5,-64(s0)
   13b32:	853e                	mv	a0,a5
   13b34:	00003097          	auipc	ra,0x3
   13b38:	85e080e7          	jalr	-1954(ra) # 16392 <xbrtime_decode_pe>
   13b3c:	87aa                	mv	a5,a0
   13b3e:	2781                	sext.w	a5,a5
   13b40:	fc843703          	ld	a4,-56(s0)
   13b44:	0007069b          	sext.w	a3,a4
   13b48:	fc442703          	lw	a4,-60(s0)
   13b4c:	2701                	sext.w	a4,a4
   13b4e:	863e                	mv	a2,a5
   13b50:	85a6                	mv	a1,s1
   13b52:	854a                	mv	a0,s2
   13b54:	00003097          	auipc	ra,0x3
   13b58:	1e8080e7          	jalr	488(ra) # 16d3c <__xbrtime_get_s1_seq>
   13b5c:	a0b9                	j	13baa <xbrtime_schar_get_nb+0xd8>
   13b5e:	fd043783          	ld	a5,-48(s0)
   13b62:	fc042703          	lw	a4,-64(s0)
   13b66:	85ba                	mv	a1,a4
   13b68:	853e                	mv	a0,a5
   13b6a:	ffffd097          	auipc	ra,0xffffd
   13b6e:	cb0080e7          	jalr	-848(ra) # 1081a <__xbrtime_ltor>
   13b72:	892a                	mv	s2,a0
   13b74:	fd843483          	ld	s1,-40(s0)
   13b78:	fc042783          	lw	a5,-64(s0)
   13b7c:	853e                	mv	a0,a5
   13b7e:	00003097          	auipc	ra,0x3
   13b82:	814080e7          	jalr	-2028(ra) # 16392 <xbrtime_decode_pe>
   13b86:	87aa                	mv	a5,a0
   13b88:	2781                	sext.w	a5,a5
   13b8a:	fc843703          	ld	a4,-56(s0)
   13b8e:	0007069b          	sext.w	a3,a4
   13b92:	fc442703          	lw	a4,-60(s0)
   13b96:	2701                	sext.w	a4,a4
   13b98:	863e                	mv	a2,a5
   13b9a:	85a6                	mv	a1,s1
   13b9c:	854a                	mv	a0,s2
   13b9e:	00003097          	auipc	ra,0x3
   13ba2:	1ba080e7          	jalr	442(ra) # 16d58 <__xbrtime_get_s1_agg>
   13ba6:	a011                	j	13baa <xbrtime_schar_get_nb+0xd8>
   13ba8:	0001                	nop
   13baa:	70e2                	ld	ra,56(sp)
   13bac:	7442                	ld	s0,48(sp)
   13bae:	74a2                	ld	s1,40(sp)
   13bb0:	7902                	ld	s2,32(sp)
   13bb2:	6121                	addi	sp,sp,64
   13bb4:	8082                	ret

0000000000013bb6 <xbrtime_char_get>:
   13bb6:	7139                	addi	sp,sp,-64
   13bb8:	fc06                	sd	ra,56(sp)
   13bba:	f822                	sd	s0,48(sp)
   13bbc:	f426                	sd	s1,40(sp)
   13bbe:	f04a                	sd	s2,32(sp)
   13bc0:	0080                	addi	s0,sp,64
   13bc2:	fca43c23          	sd	a0,-40(s0)
   13bc6:	fcb43823          	sd	a1,-48(s0)
   13bca:	fcc43423          	sd	a2,-56(s0)
   13bce:	87b6                	mv	a5,a3
   13bd0:	fcf42223          	sw	a5,-60(s0)
   13bd4:	87ba                	mv	a5,a4
   13bd6:	fcf42023          	sw	a5,-64(s0)
   13bda:	fc843783          	ld	a5,-56(s0)
   13bde:	cfb1                	beqz	a5,13c3a <xbrtime_char_get+0x84>
   13be0:	fc442783          	lw	a5,-60(s0)
   13be4:	0007871b          	sext.w	a4,a5
   13be8:	4785                	li	a5,1
   13bea:	00f71763          	bne	a4,a5,13bf8 <xbrtime_char_get+0x42>
   13bee:	fc843703          	ld	a4,-56(s0)
   13bf2:	4785                	li	a5,1
   13bf4:	04f71063          	bne	a4,a5,13c34 <xbrtime_char_get+0x7e>
   13bf8:	fd043783          	ld	a5,-48(s0)
   13bfc:	fc042703          	lw	a4,-64(s0)
   13c00:	85ba                	mv	a1,a4
   13c02:	853e                	mv	a0,a5
   13c04:	c17fc0ef          	jal	ra,1081a <__xbrtime_ltor>
   13c08:	892a                	mv	s2,a0
   13c0a:	fd843483          	ld	s1,-40(s0)
   13c0e:	fc042783          	lw	a5,-64(s0)
   13c12:	853e                	mv	a0,a5
   13c14:	77e020ef          	jal	ra,16392 <xbrtime_decode_pe>
   13c18:	87aa                	mv	a5,a0
   13c1a:	2781                	sext.w	a5,a5
   13c1c:	fc843703          	ld	a4,-56(s0)
   13c20:	0007069b          	sext.w	a3,a4
   13c24:	fc442703          	lw	a4,-60(s0)
   13c28:	2701                	sext.w	a4,a4
   13c2a:	863e                	mv	a2,a5
   13c2c:	85a6                	mv	a1,s1
   13c2e:	854a                	mv	a0,s2
   13c30:	080030ef          	jal	ra,16cb0 <__xbrtime_get_u1_agg>
   13c34:	31a030ef          	jal	ra,16f4e <__xbrtime_asm_fence>
   13c38:	a011                	j	13c3c <xbrtime_char_get+0x86>
   13c3a:	0001                	nop
   13c3c:	70e2                	ld	ra,56(sp)
   13c3e:	7442                	ld	s0,48(sp)
   13c40:	74a2                	ld	s1,40(sp)
   13c42:	7902                	ld	s2,32(sp)
   13c44:	6121                	addi	sp,sp,64
   13c46:	8082                	ret

0000000000013c48 <xbrtime_char_get_nb>:
   13c48:	7139                	addi	sp,sp,-64
   13c4a:	fc06                	sd	ra,56(sp)
   13c4c:	f822                	sd	s0,48(sp)
   13c4e:	f426                	sd	s1,40(sp)
   13c50:	f04a                	sd	s2,32(sp)
   13c52:	0080                	addi	s0,sp,64
   13c54:	fca43c23          	sd	a0,-40(s0)
   13c58:	fcb43823          	sd	a1,-48(s0)
   13c5c:	fcc43423          	sd	a2,-56(s0)
   13c60:	87b6                	mv	a5,a3
   13c62:	fcf42223          	sw	a5,-60(s0)
   13c66:	87ba                	mv	a5,a4
   13c68:	fcf42023          	sw	a5,-64(s0)
   13c6c:	fc843783          	ld	a5,-56(s0)
   13c70:	c7dd                	beqz	a5,13d1e <xbrtime_char_get_nb+0xd6>
   13c72:	fc442783          	lw	a5,-60(s0)
   13c76:	0007871b          	sext.w	a4,a5
   13c7a:	4785                	li	a5,1
   13c7c:	00f71763          	bne	a4,a5,13c8a <xbrtime_char_get_nb+0x42>
   13c80:	fc843703          	ld	a4,-56(s0)
   13c84:	4785                	li	a5,1
   13c86:	04f71763          	bne	a4,a5,13cd4 <xbrtime_char_get_nb+0x8c>
   13c8a:	fd043783          	ld	a5,-48(s0)
   13c8e:	fc042703          	lw	a4,-64(s0)
   13c92:	85ba                	mv	a1,a4
   13c94:	853e                	mv	a0,a5
   13c96:	ffffd097          	auipc	ra,0xffffd
   13c9a:	b84080e7          	jalr	-1148(ra) # 1081a <__xbrtime_ltor>
   13c9e:	892a                	mv	s2,a0
   13ca0:	fd843483          	ld	s1,-40(s0)
   13ca4:	fc042783          	lw	a5,-64(s0)
   13ca8:	853e                	mv	a0,a5
   13caa:	00002097          	auipc	ra,0x2
   13cae:	6e8080e7          	jalr	1768(ra) # 16392 <xbrtime_decode_pe>
   13cb2:	87aa                	mv	a5,a0
   13cb4:	2781                	sext.w	a5,a5
   13cb6:	fc843703          	ld	a4,-56(s0)
   13cba:	0007069b          	sext.w	a3,a4
   13cbe:	fc442703          	lw	a4,-60(s0)
   13cc2:	2701                	sext.w	a4,a4
   13cc4:	863e                	mv	a2,a5
   13cc6:	85a6                	mv	a1,s1
   13cc8:	854a                	mv	a0,s2
   13cca:	00003097          	auipc	ra,0x3
   13cce:	fca080e7          	jalr	-54(ra) # 16c94 <__xbrtime_get_u1_seq>
   13cd2:	a0b9                	j	13d20 <xbrtime_char_get_nb+0xd8>
   13cd4:	fd043783          	ld	a5,-48(s0)
   13cd8:	fc042703          	lw	a4,-64(s0)
   13cdc:	85ba                	mv	a1,a4
   13cde:	853e                	mv	a0,a5
   13ce0:	ffffd097          	auipc	ra,0xffffd
   13ce4:	b3a080e7          	jalr	-1222(ra) # 1081a <__xbrtime_ltor>
   13ce8:	892a                	mv	s2,a0
   13cea:	fd843483          	ld	s1,-40(s0)
   13cee:	fc042783          	lw	a5,-64(s0)
   13cf2:	853e                	mv	a0,a5
   13cf4:	00002097          	auipc	ra,0x2
   13cf8:	69e080e7          	jalr	1694(ra) # 16392 <xbrtime_decode_pe>
   13cfc:	87aa                	mv	a5,a0
   13cfe:	2781                	sext.w	a5,a5
   13d00:	fc843703          	ld	a4,-56(s0)
   13d04:	0007069b          	sext.w	a3,a4
   13d08:	fc442703          	lw	a4,-60(s0)
   13d0c:	2701                	sext.w	a4,a4
   13d0e:	863e                	mv	a2,a5
   13d10:	85a6                	mv	a1,s1
   13d12:	854a                	mv	a0,s2
   13d14:	00003097          	auipc	ra,0x3
   13d18:	f9c080e7          	jalr	-100(ra) # 16cb0 <__xbrtime_get_u1_agg>
   13d1c:	a011                	j	13d20 <xbrtime_char_get_nb+0xd8>
   13d1e:	0001                	nop
   13d20:	70e2                	ld	ra,56(sp)
   13d22:	7442                	ld	s0,48(sp)
   13d24:	74a2                	ld	s1,40(sp)
   13d26:	7902                	ld	s2,32(sp)
   13d28:	6121                	addi	sp,sp,64
   13d2a:	8082                	ret

0000000000013d2c <xbrtime_short_get>:
   13d2c:	7139                	addi	sp,sp,-64
   13d2e:	fc06                	sd	ra,56(sp)
   13d30:	f822                	sd	s0,48(sp)
   13d32:	f426                	sd	s1,40(sp)
   13d34:	f04a                	sd	s2,32(sp)
   13d36:	0080                	addi	s0,sp,64
   13d38:	fca43c23          	sd	a0,-40(s0)
   13d3c:	fcb43823          	sd	a1,-48(s0)
   13d40:	fcc43423          	sd	a2,-56(s0)
   13d44:	87b6                	mv	a5,a3
   13d46:	fcf42223          	sw	a5,-60(s0)
   13d4a:	87ba                	mv	a5,a4
   13d4c:	fcf42023          	sw	a5,-64(s0)
   13d50:	fc843783          	ld	a5,-56(s0)
   13d54:	c7cd                	beqz	a5,13dfe <xbrtime_short_get+0xd2>
   13d56:	fc442783          	lw	a5,-60(s0)
   13d5a:	0007871b          	sext.w	a4,a5
   13d5e:	4785                	li	a5,1
   13d60:	00f71763          	bne	a4,a5,13d6e <xbrtime_short_get+0x42>
   13d64:	fc843703          	ld	a4,-56(s0)
   13d68:	4785                	li	a5,1
   13d6a:	04f71563          	bne	a4,a5,13db4 <xbrtime_short_get+0x88>
   13d6e:	fd043783          	ld	a5,-48(s0)
   13d72:	fc042703          	lw	a4,-64(s0)
   13d76:	85ba                	mv	a1,a4
   13d78:	853e                	mv	a0,a5
   13d7a:	aa1fc0ef          	jal	ra,1081a <__xbrtime_ltor>
   13d7e:	892a                	mv	s2,a0
   13d80:	fd843483          	ld	s1,-40(s0)
   13d84:	fc042783          	lw	a5,-64(s0)
   13d88:	853e                	mv	a0,a5
   13d8a:	608020ef          	jal	ra,16392 <xbrtime_decode_pe>
   13d8e:	87aa                	mv	a5,a0
   13d90:	0007861b          	sext.w	a2,a5
   13d94:	fc843783          	ld	a5,-56(s0)
   13d98:	0007869b          	sext.w	a3,a5
   13d9c:	fc442783          	lw	a5,-60(s0)
   13da0:	2781                	sext.w	a5,a5
   13da2:	0017979b          	slliw	a5,a5,0x1
   13da6:	2781                	sext.w	a5,a5
   13da8:	873e                	mv	a4,a5
   13daa:	85a6                	mv	a1,s1
   13dac:	854a                	mv	a0,s2
   13dae:	7b9020ef          	jal	ra,16d66 <__xbrtime_get_s2_seq>
   13db2:	a099                	j	13df8 <xbrtime_short_get+0xcc>
   13db4:	fd043783          	ld	a5,-48(s0)
   13db8:	fc042703          	lw	a4,-64(s0)
   13dbc:	85ba                	mv	a1,a4
   13dbe:	853e                	mv	a0,a5
   13dc0:	a5bfc0ef          	jal	ra,1081a <__xbrtime_ltor>
   13dc4:	892a                	mv	s2,a0
   13dc6:	fd843483          	ld	s1,-40(s0)
   13dca:	fc042783          	lw	a5,-64(s0)
   13dce:	853e                	mv	a0,a5
   13dd0:	5c2020ef          	jal	ra,16392 <xbrtime_decode_pe>
   13dd4:	87aa                	mv	a5,a0
   13dd6:	0007861b          	sext.w	a2,a5
   13dda:	fc843783          	ld	a5,-56(s0)
   13dde:	0007869b          	sext.w	a3,a5
   13de2:	fc442783          	lw	a5,-60(s0)
   13de6:	2781                	sext.w	a5,a5
   13de8:	0017979b          	slliw	a5,a5,0x1
   13dec:	2781                	sext.w	a5,a5
   13dee:	873e                	mv	a4,a5
   13df0:	85a6                	mv	a1,s1
   13df2:	854a                	mv	a0,s2
   13df4:	78f020ef          	jal	ra,16d82 <__xbrtime_get_s2_agg>
   13df8:	156030ef          	jal	ra,16f4e <__xbrtime_asm_fence>
   13dfc:	a011                	j	13e00 <xbrtime_short_get+0xd4>
   13dfe:	0001                	nop
   13e00:	70e2                	ld	ra,56(sp)
   13e02:	7442                	ld	s0,48(sp)
   13e04:	74a2                	ld	s1,40(sp)
   13e06:	7902                	ld	s2,32(sp)
   13e08:	6121                	addi	sp,sp,64
   13e0a:	8082                	ret

0000000000013e0c <xbrtime_short_get_nb>:
   13e0c:	7139                	addi	sp,sp,-64
   13e0e:	fc06                	sd	ra,56(sp)
   13e10:	f822                	sd	s0,48(sp)
   13e12:	f426                	sd	s1,40(sp)
   13e14:	f04a                	sd	s2,32(sp)
   13e16:	0080                	addi	s0,sp,64
   13e18:	fca43c23          	sd	a0,-40(s0)
   13e1c:	fcb43823          	sd	a1,-48(s0)
   13e20:	fcc43423          	sd	a2,-56(s0)
   13e24:	87b6                	mv	a5,a3
   13e26:	fcf42223          	sw	a5,-60(s0)
   13e2a:	87ba                	mv	a5,a4
   13e2c:	fcf42023          	sw	a5,-64(s0)
   13e30:	fc843783          	ld	a5,-56(s0)
   13e34:	cfdd                	beqz	a5,13ef2 <xbrtime_short_get_nb+0xe6>
   13e36:	fc442783          	lw	a5,-60(s0)
   13e3a:	0007871b          	sext.w	a4,a5
   13e3e:	4785                	li	a5,1
   13e40:	00f71763          	bne	a4,a5,13e4e <xbrtime_short_get_nb+0x42>
   13e44:	fc843703          	ld	a4,-56(s0)
   13e48:	4785                	li	a5,1
   13e4a:	04f71b63          	bne	a4,a5,13ea0 <xbrtime_short_get_nb+0x94>
   13e4e:	fd043783          	ld	a5,-48(s0)
   13e52:	fc042703          	lw	a4,-64(s0)
   13e56:	85ba                	mv	a1,a4
   13e58:	853e                	mv	a0,a5
   13e5a:	ffffd097          	auipc	ra,0xffffd
   13e5e:	9c0080e7          	jalr	-1600(ra) # 1081a <__xbrtime_ltor>
   13e62:	892a                	mv	s2,a0
   13e64:	fd843483          	ld	s1,-40(s0)
   13e68:	fc042783          	lw	a5,-64(s0)
   13e6c:	853e                	mv	a0,a5
   13e6e:	00002097          	auipc	ra,0x2
   13e72:	524080e7          	jalr	1316(ra) # 16392 <xbrtime_decode_pe>
   13e76:	87aa                	mv	a5,a0
   13e78:	0007861b          	sext.w	a2,a5
   13e7c:	fc843783          	ld	a5,-56(s0)
   13e80:	0007869b          	sext.w	a3,a5
   13e84:	fc442783          	lw	a5,-60(s0)
   13e88:	2781                	sext.w	a5,a5
   13e8a:	0017979b          	slliw	a5,a5,0x1
   13e8e:	2781                	sext.w	a5,a5
   13e90:	873e                	mv	a4,a5
   13e92:	85a6                	mv	a1,s1
   13e94:	854a                	mv	a0,s2
   13e96:	00003097          	auipc	ra,0x3
   13e9a:	ed0080e7          	jalr	-304(ra) # 16d66 <__xbrtime_get_s2_seq>
   13e9e:	a899                	j	13ef4 <xbrtime_short_get_nb+0xe8>
   13ea0:	fd043783          	ld	a5,-48(s0)
   13ea4:	fc042703          	lw	a4,-64(s0)
   13ea8:	85ba                	mv	a1,a4
   13eaa:	853e                	mv	a0,a5
   13eac:	ffffd097          	auipc	ra,0xffffd
   13eb0:	96e080e7          	jalr	-1682(ra) # 1081a <__xbrtime_ltor>
   13eb4:	892a                	mv	s2,a0
   13eb6:	fd843483          	ld	s1,-40(s0)
   13eba:	fc042783          	lw	a5,-64(s0)
   13ebe:	853e                	mv	a0,a5
   13ec0:	00002097          	auipc	ra,0x2
   13ec4:	4d2080e7          	jalr	1234(ra) # 16392 <xbrtime_decode_pe>
   13ec8:	87aa                	mv	a5,a0
   13eca:	0007861b          	sext.w	a2,a5
   13ece:	fc843783          	ld	a5,-56(s0)
   13ed2:	0007869b          	sext.w	a3,a5
   13ed6:	fc442783          	lw	a5,-60(s0)
   13eda:	2781                	sext.w	a5,a5
   13edc:	0017979b          	slliw	a5,a5,0x1
   13ee0:	2781                	sext.w	a5,a5
   13ee2:	873e                	mv	a4,a5
   13ee4:	85a6                	mv	a1,s1
   13ee6:	854a                	mv	a0,s2
   13ee8:	00003097          	auipc	ra,0x3
   13eec:	e9a080e7          	jalr	-358(ra) # 16d82 <__xbrtime_get_s2_agg>
   13ef0:	a011                	j	13ef4 <xbrtime_short_get_nb+0xe8>
   13ef2:	0001                	nop
   13ef4:	70e2                	ld	ra,56(sp)
   13ef6:	7442                	ld	s0,48(sp)
   13ef8:	74a2                	ld	s1,40(sp)
   13efa:	7902                	ld	s2,32(sp)
   13efc:	6121                	addi	sp,sp,64
   13efe:	8082                	ret

0000000000013f00 <xbrtime_int_get>:
   13f00:	7139                	addi	sp,sp,-64
   13f02:	fc06                	sd	ra,56(sp)
   13f04:	f822                	sd	s0,48(sp)
   13f06:	f426                	sd	s1,40(sp)
   13f08:	f04a                	sd	s2,32(sp)
   13f0a:	0080                	addi	s0,sp,64
   13f0c:	fca43c23          	sd	a0,-40(s0)
   13f10:	fcb43823          	sd	a1,-48(s0)
   13f14:	fcc43423          	sd	a2,-56(s0)
   13f18:	87b6                	mv	a5,a3
   13f1a:	fcf42223          	sw	a5,-60(s0)
   13f1e:	87ba                	mv	a5,a4
   13f20:	fcf42023          	sw	a5,-64(s0)
   13f24:	fc843783          	ld	a5,-56(s0)
   13f28:	c7cd                	beqz	a5,13fd2 <xbrtime_int_get+0xd2>
   13f2a:	fc442783          	lw	a5,-60(s0)
   13f2e:	0007871b          	sext.w	a4,a5
   13f32:	4785                	li	a5,1
   13f34:	00f71763          	bne	a4,a5,13f42 <xbrtime_int_get+0x42>
   13f38:	fc843703          	ld	a4,-56(s0)
   13f3c:	4785                	li	a5,1
   13f3e:	04f71563          	bne	a4,a5,13f88 <xbrtime_int_get+0x88>
   13f42:	fd043783          	ld	a5,-48(s0)
   13f46:	fc042703          	lw	a4,-64(s0)
   13f4a:	85ba                	mv	a1,a4
   13f4c:	853e                	mv	a0,a5
   13f4e:	8cdfc0ef          	jal	ra,1081a <__xbrtime_ltor>
   13f52:	892a                	mv	s2,a0
   13f54:	fd843483          	ld	s1,-40(s0)
   13f58:	fc042783          	lw	a5,-64(s0)
